ARM GAS  /var/folders/j2/t8glr22d56s93xphj_30s8g80000gn/T//ccQqE1zC.s 			page 1


   1              		.cpu cortex-m4
   2              		.eabi_attribute 27, 1
   3              		.eabi_attribute 28, 1
   4              		.eabi_attribute 20, 1
   5              		.eabi_attribute 21, 1
   6              		.eabi_attribute 23, 3
   7              		.eabi_attribute 24, 1
   8              		.eabi_attribute 25, 1
   9              		.eabi_attribute 26, 1
  10              		.eabi_attribute 30, 2
  11              		.eabi_attribute 34, 1
  12              		.eabi_attribute 18, 4
  13              		.file	"main.c"
  14              		.text
  15              	.Ltext0:
  16              		.cfi_sections	.debug_frame
  17              		.section	.text.chprintf.constprop.0,"ax",%progbits
  18              		.align	1
  19              		.p2align 4,,15
  20              		.syntax unified
  21              		.thumb
  22              		.thumb_func
  23              		.fpu fpv4-sp-d16
  24              		.type	chprintf.constprop.0, %function
  25              	chprintf.constprop.0:
  26              	.LFB297:
  27              		.file 1 "../../lib/e-puck2_main-processor/ChibiOS//os/hal/lib/streams/chprintf.h"
  28              		.loc 1 69 0
  29              		.cfi_startproc
  30              		@ args = 4, pretend = 12, frame = 8
  31              		@ frame_needed = 0, uses_anonymous_args = 1
  32              	.LVL0:
  33 0000 0EB4     		push	{r1, r2, r3}
  34              		.cfi_def_cfa_offset 12
  35              		.cfi_offset 1, -12
  36              		.cfi_offset 2, -8
  37              		.cfi_offset 3, -4
  38 0002 10B5     		push	{r4, lr}
  39              		.cfi_def_cfa_offset 20
  40              		.cfi_offset 4, -20
  41              		.cfi_offset 14, -16
  42 0004 0A4C     		ldr	r4, .L6
  43              		.loc 1 74 0
  44 0006 0B49     		ldr	r1, .L6+4
  45              		.loc 1 69 0
  46 0008 2368     		ldr	r3, [r4]
  47              		.loc 1 74 0
  48 000a 0B48     		ldr	r0, .L6+8
  49              	.LVL1:
  50              		.loc 1 69 0
  51 000c 83B0     		sub	sp, sp, #12
  52              		.cfi_def_cfa_offset 32
  53              		.loc 1 69 0
  54 000e 0193     		str	r3, [sp, #4]
  55              	.LVL2:
  56              		.loc 1 73 0
  57 0010 06AB     		add	r3, sp, #24
ARM GAS  /var/folders/j2/t8glr22d56s93xphj_30s8g80000gn/T//ccQqE1zC.s 			page 2


  58              		.loc 1 74 0
  59 0012 1A46     		mov	r2, r3
  60              		.loc 1 73 0
  61 0014 0093     		str	r3, [sp]
  62              		.loc 1 74 0
  63 0016 FFF7FEFF 		bl	chvprintf
  64              	.LVL3:
  65              		.loc 1 78 0
  66 001a 019A     		ldr	r2, [sp, #4]
  67 001c 2368     		ldr	r3, [r4]
  68 001e 9A42     		cmp	r2, r3
  69 0020 04D1     		bne	.L5
  70 0022 03B0     		add	sp, sp, #12
  71              		.cfi_remember_state
  72              		.cfi_def_cfa_offset 20
  73              		@ sp needed
  74 0024 BDE81040 		pop	{r4, lr}
  75              		.cfi_restore 14
  76              		.cfi_restore 4
  77              		.cfi_def_cfa_offset 12
  78 0028 03B0     		add	sp, sp, #12
  79              		.cfi_restore 3
  80              		.cfi_restore 2
  81              		.cfi_restore 1
  82              		.cfi_def_cfa_offset 0
  83 002a 7047     		bx	lr
  84              	.L5:
  85              		.cfi_restore_state
  86 002c FFF7FEFF 		bl	__stack_chk_fail
  87              	.LVL4:
  88              	.L7:
  89              		.align	2
  90              	.L6:
  91 0030 00000000 		.word	__stack_chk_guard
  92 0034 00000000 		.word	.LC0
  93 0038 00000000 		.word	SDU1
  94              		.cfi_endproc
  95              	.LFE297:
  96              		.size	chprintf.constprop.0, .-chprintf.constprop.0
  97              		.section	.text.SendUint8ToComputer,"ax",%progbits
  98              		.align	1
  99              		.p2align 4,,15
 100              		.global	SendUint8ToComputer
 101              		.syntax unified
 102              		.thumb
 103              		.thumb_func
 104              		.fpu fpv4-sp-d16
 105              		.type	SendUint8ToComputer, %function
 106              	SendUint8ToComputer:
 107              	.LFB293:
 108              		.file 2 "main.c"
 109              		.loc 2 34 0
 110              		.cfi_startproc
 111              		@ args = 0, pretend = 0, frame = 16
 112              		@ frame_needed = 0, uses_anonymous_args = 0
 113              	.LVL5:
 114 0000 70B5     		push	{r4, r5, r6, lr}
ARM GAS  /var/folders/j2/t8glr22d56s93xphj_30s8g80000gn/T//ccQqE1zC.s 			page 3


 115              		.cfi_def_cfa_offset 16
 116              		.cfi_offset 4, -16
 117              		.cfi_offset 5, -12
 118              		.cfi_offset 6, -8
 119              		.cfi_offset 14, -4
 120              		.loc 2 35 0
 121 0002 124C     		ldr	r4, .L12
 122              		.loc 2 34 0
 123 0004 124D     		ldr	r5, .L12+4
 124              		.loc 2 35 0
 125 0006 2368     		ldr	r3, [r4]
 126              		.loc 2 34 0
 127 0008 2A68     		ldr	r2, [r5]
 128 000a 84B0     		sub	sp, sp, #16
 129              		.cfi_def_cfa_offset 32
 130              		.loc 2 34 0
 131 000c 0646     		mov	r6, r0
 132 000e ADF80610 		strh	r1, [sp, #6]	@ movhi
 133              		.loc 2 35 0
 134 0012 1B68     		ldr	r3, [r3]
 135 0014 0F49     		ldr	r1, .L12+8
 136              	.LVL6:
 137              		.loc 2 34 0
 138 0016 0392     		str	r2, [sp, #12]
 139              		.loc 2 35 0
 140 0018 2046     		mov	r0, r4
 141              	.LVL7:
 142 001a 0522     		movs	r2, #5
 143 001c 9847     		blx	r3
 144              	.LVL8:
 145              		.loc 2 36 0
 146 001e 2368     		ldr	r3, [r4]
 147 0020 0222     		movs	r2, #2
 148 0022 1B68     		ldr	r3, [r3]
 149 0024 0DF10601 		add	r1, sp, #6
 150 0028 2046     		mov	r0, r4
 151 002a 9847     		blx	r3
 152              	.LVL9:
 153              		.loc 2 37 0
 154 002c 2368     		ldr	r3, [r4]
 155 002e BDF80620 		ldrh	r2, [sp, #6]
 156 0032 1B68     		ldr	r3, [r3]
 157 0034 3146     		mov	r1, r6
 158 0036 2046     		mov	r0, r4
 159 0038 9847     		blx	r3
 160              	.LVL10:
 161              		.loc 2 38 0
 162 003a 039A     		ldr	r2, [sp, #12]
 163 003c 2B68     		ldr	r3, [r5]
 164 003e 9A42     		cmp	r2, r3
 165 0040 01D1     		bne	.L11
 166 0042 04B0     		add	sp, sp, #16
 167              		.cfi_remember_state
 168              		.cfi_def_cfa_offset 16
 169              		@ sp needed
 170 0044 70BD     		pop	{r4, r5, r6, pc}
 171              	.LVL11:
ARM GAS  /var/folders/j2/t8glr22d56s93xphj_30s8g80000gn/T//ccQqE1zC.s 			page 4


 172              	.L11:
 173              		.cfi_restore_state
 174 0046 FFF7FEFF 		bl	__stack_chk_fail
 175              	.LVL12:
 176              	.L13:
 177 004a 00BF     		.align	2
 178              	.L12:
 179 004c 00000000 		.word	SD3
 180 0050 00000000 		.word	__stack_chk_guard
 181 0054 00000000 		.word	.LC1
 182              		.cfi_endproc
 183              	.LFE293:
 184              		.size	SendUint8ToComputer, .-SendUint8ToComputer
 185              		.section	.text.startup.main,"ax",%progbits
 186              		.align	1
 187              		.p2align 4,,15
 188              		.global	main
 189              		.syntax unified
 190              		.thumb
 191              		.thumb_func
 192              		.fpu fpv4-sp-d16
 193              		.type	main, %function
 194              	main:
 195              	.LFB295:
 196              		.loc 2 71 0
 197              		.cfi_startproc
 198              		@ Volatile: function does not return.
 199              		@ args = 0, pretend = 0, frame = 8
 200              		@ frame_needed = 0, uses_anonymous_args = 0
 201 0000 00B5     		push	{lr}
 202              		.cfi_def_cfa_offset 4
 203              		.cfi_offset 14, -4
 204 0002 194B     		ldr	r3, .L18
 205              		.loc 2 101 0
 206 0004 194D     		ldr	r5, .L18+4
 207              		.loc 2 71 0
 208 0006 1B68     		ldr	r3, [r3]
 209              		.loc 2 101 0
 210 0008 194C     		ldr	r4, .L18+8
 211              		.loc 2 71 0
 212 000a 83B0     		sub	sp, sp, #12
 213              		.cfi_def_cfa_offset 16
 214              		.loc 2 71 0
 215 000c 0193     		str	r3, [sp, #4]
 216              		.loc 2 73 0
 217 000e FFF7FEFF 		bl	halInit
 218              	.LVL13:
 219              		.loc 2 74 0
 220 0012 FFF7FEFF 		bl	chSysInit
 221              	.LVL14:
 222              		.loc 2 75 0
 223 0016 FFF7FEFF 		bl	mpu_init
 224              	.LVL15:
 225              	.LBB4:
 226              	.LBB5:
 227              		.loc 2 49 0
 228 001a 1649     		ldr	r1, .L18+12
ARM GAS  /var/folders/j2/t8glr22d56s93xphj_30s8g80000gn/T//ccQqE1zC.s 			page 5


 229 001c 1648     		ldr	r0, .L18+16
 230 001e FFF7FEFF 		bl	sdStart
 231              	.LVL16:
 232              	.LBE5:
 233              	.LBE4:
 234              		.loc 2 81 0
 235 0022 FFF7FEFF 		bl	usb_start
 236              	.LVL17:
 237              		.loc 2 83 0
 238 0026 FFF7FEFF 		bl	dcmi_start
 239              	.LVL18:
 240              		.loc 2 84 0
 241 002a FFF7FEFF 		bl	po8030_start
 242              	.LVL19:
 243              		.loc 2 86 0
 244 002e FFF7FEFF 		bl	motors_init
 245              	.LVL20:
 246              		.loc 2 88 0
 247 0032 124A     		ldr	r2, .L18+20
 248 0034 1249     		ldr	r1, .L18+24
 249 0036 1348     		ldr	r0, .L18+28
 250 0038 FFF7FEFF 		bl	messagebus_init
 251              	.LVL21:
 252              		.loc 2 90 0
 253 003c FFF7FEFF 		bl	proximity_start
 254              	.LVL22:
 255              	.L15:
 256              		.loc 2 100 0 discriminator 1
 257 0040 4FF47A70 		mov	r0, #1000
 258 0044 FFF7FEFF 		bl	chThdSleep
 259              	.LVL23:
 260              		.loc 2 101 0 discriminator 1
 261 0048 0320     		movs	r0, #3
 262 004a FFF7FEFF 		bl	get_calibrated_prox
 263              	.LVL24:
 264 004e 2946     		mov	r1, r5
 265 0050 0246     		mov	r2, r0
 266 0052 2046     		mov	r0, r4
 267 0054 FFF7FEFF 		bl	chprintf.constprop.0
 268              	.LVL25:
 269              		.loc 2 102 0 discriminator 1
 270 0058 4FF47A70 		mov	r0, #1000
 271 005c FFF7FEFF 		bl	left_motor_set_speed
 272              	.LVL26:
 273              		.loc 2 103 0 discriminator 1
 274 0060 0948     		ldr	r0, .L18+32
 275 0062 FFF7FEFF 		bl	right_motor_set_speed
 276              	.LVL27:
 277 0066 EBE7     		b	.L15
 278              	.L19:
 279              		.align	2
 280              	.L18:
 281 0068 00000000 		.word	__stack_chk_guard
 282 006c 00000000 		.word	.LC0
 283 0070 00000000 		.word	SDU1
 284 0074 00000000 		.word	.LANCHOR0
 285 0078 00000000 		.word	SD3
ARM GAS  /var/folders/j2/t8glr22d56s93xphj_30s8g80000gn/T//ccQqE1zC.s 			page 6


 286 007c 00000000 		.word	.LANCHOR1
 287 0080 00000000 		.word	.LANCHOR2
 288 0084 00000000 		.word	.LANCHOR3
 289 0088 18FCFFFF 		.word	-1000
 290              		.cfi_endproc
 291              	.LFE295:
 292              		.size	main, .-main
 293              		.section	.text.__stack_chk_fail,"ax",%progbits
 294              		.align	1
 295              		.p2align 4,,15
 296              		.global	__stack_chk_fail
 297              		.syntax unified
 298              		.thumb
 299              		.thumb_func
 300              		.fpu fpv4-sp-d16
 301              		.type	__stack_chk_fail, %function
 302              	__stack_chk_fail:
 303              	.LFB296:
 304              		.loc 2 111 0
 305              		.cfi_startproc
 306              		@ args = 0, pretend = 0, frame = 8
 307              		@ frame_needed = 0, uses_anonymous_args = 0
 308 0000 00B5     		push	{lr}
 309              		.cfi_def_cfa_offset 4
 310              		.cfi_offset 14, -4
 311 0002 084B     		ldr	r3, .L25
 312 0004 83B0     		sub	sp, sp, #12
 313              		.cfi_def_cfa_offset 16
 314              		.loc 2 111 0
 315 0006 1A68     		ldr	r2, [r3]
 316 0008 0192     		str	r2, [sp, #4]
 317              		.loc 2 112 0
 318 000a 019A     		ldr	r2, [sp, #4]
 319 000c 1B68     		ldr	r3, [r3]
 320 000e 9A42     		cmp	r2, r3
 321 0010 05D1     		bne	.L24
 322 0012 0548     		ldr	r0, .L25+4
 323              		.loc 2 113 0
 324 0014 03B0     		add	sp, sp, #12
 325              		.cfi_remember_state
 326              		.cfi_def_cfa_offset 4
 327              		@ sp needed
 328 0016 5DF804EB 		ldr	lr, [sp], #4
 329              		.cfi_restore 14
 330              		.cfi_def_cfa_offset 0
 331              		.loc 2 112 0
 332 001a FFF7FEBF 		b	chSysHalt
 333              	.LVL28:
 334              	.L24:
 335              		.cfi_restore_state
 336 001e FFF7FEFF 		bl	__stack_chk_fail
 337              	.LVL29:
 338              	.L26:
 339 0022 00BF     		.align	2
 340              	.L25:
 341 0024 00000000 		.word	__stack_chk_guard
 342 0028 00000000 		.word	.LC2
ARM GAS  /var/folders/j2/t8glr22d56s93xphj_30s8g80000gn/T//ccQqE1zC.s 			page 7


 343              		.cfi_endproc
 344              	.LFE296:
 345              		.size	__stack_chk_fail, .-__stack_chk_fail
 346              		.global	__stack_chk_guard
 347              		.global	bus_condvar
 348              		.global	bus_lock
 349              		.global	bus
 350              		.section	.bss.bus,"aw",%nobits
 351              		.align	2
 352              		.set	.LANCHOR3,. + 0
 353              		.type	bus, %object
 354              		.size	bus, 12
 355              	bus:
 356 0000 00000000 		.space	12
 356      00000000 
 356      00000000 
 357              		.section	.data.__stack_chk_guard,"aw",%progbits
 358              		.align	2
 359              		.type	__stack_chk_guard, %object
 360              		.size	__stack_chk_guard, 4
 361              	__stack_chk_guard:
 362 0000 96E3DEE2 		.word	-488709226
 363              		.section	.data.bus_condvar,"aw",%progbits
 364              		.align	2
 365              		.set	.LANCHOR1,. + 0
 366              		.type	bus_condvar, %object
 367              		.size	bus_condvar, 8
 368              	bus_condvar:
 369 0000 00000000 		.word	bus_condvar
 370 0004 00000000 		.word	bus_condvar
 371              		.section	.data.bus_lock,"aw",%progbits
 372              		.align	2
 373              		.set	.LANCHOR2,. + 0
 374              		.type	bus_lock, %object
 375              		.size	bus_lock, 20
 376              	bus_lock:
 377 0000 00000000 		.word	bus_lock
 378 0004 00000000 		.word	bus_lock
 379 0008 00000000 		.word	0
 380 000c 00000000 		.word	0
 381 0010 00000000 		.word	0
 382              		.section	.data.ser_cfg.14932,"aw",%progbits
 383              		.align	2
 384              		.set	.LANCHOR0,. + 0
 385              		.type	ser_cfg.14932, %object
 386              		.size	ser_cfg.14932, 12
 387              	ser_cfg.14932:
 388 0000 00C20100 		.word	115200
 389 0004 0000     		.short	0
 390 0006 0000     		.short	0
 391 0008 0000     		.short	0
 392 000a 0000     		.space	2
 393              		.section	.rodata.SendUint8ToComputer.str1.4,"aMS",%progbits,1
 394              		.align	2
 395              	.LC1:
 396 0000 53544152 		.ascii	"START\000"
 396      5400
ARM GAS  /var/folders/j2/t8glr22d56s93xphj_30s8g80000gn/T//ccQqE1zC.s 			page 8


 397              		.section	.rodata.__stack_chk_fail.str1.4,"aMS",%progbits,1
 398              		.align	2
 399              	.LC2:
 400 0000 53746163 		.ascii	"Stack smashing detected\000"
 400      6B20736D 
 400      61736869 
 400      6E672064 
 400      65746563 
 401              		.section	.rodata.chprintf.constprop.0.str1.4,"aMS",%progbits,1
 402              		.align	2
 403              	.LC0:
 404 0000 56616C65 		.ascii	"Valeur du capteur 4 =%d \012\000"
 404      75722064 
 404      75206361 
 404      70746575 
 404      72203420 
 405              		.text
 406              	.Letext0:
 407              		.file 3 "/Applications/Eclipse_e-puck2.app/Contents/Eclipse_e-puck2/Tools/gcc-arm-none-eabi-7-2017
 408              		.file 4 "/Applications/Eclipse_e-puck2.app/Contents/Eclipse_e-puck2/Tools/gcc-arm-none-eabi-7-2017
 409              		.file 5 "/Applications/Eclipse_e-puck2.app/Contents/Eclipse_e-puck2/Tools/gcc-arm-none-eabi-7-2017
 410              		.file 6 "/Applications/Eclipse_e-puck2.app/Contents/Eclipse_e-puck2/Tools/gcc-arm-none-eabi-7-2017
 411              		.file 7 "/Applications/Eclipse_e-puck2.app/Contents/Eclipse_e-puck2/Tools/gcc-arm-none-eabi-7-2017
 412              		.file 8 "/Applications/Eclipse_e-puck2.app/Contents/Eclipse_e-puck2/Tools/gcc-arm-none-eabi-7-2017
 413              		.file 9 "/Applications/Eclipse_e-puck2.app/Contents/Eclipse_e-puck2/Tools/gcc-arm-none-eabi-7-2017
 414              		.file 10 "<built-in>"
 415              		.file 11 "/Applications/Eclipse_e-puck2.app/Contents/Eclipse_e-puck2/Tools/gcc-arm-none-eabi-7-201
 416              		.file 12 "/Applications/Eclipse_e-puck2.app/Contents/Eclipse_e-puck2/Tools/gcc-arm-none-eabi-7-201
 417              		.file 13 "/Applications/Eclipse_e-puck2.app/Contents/Eclipse_e-puck2/Tools/gcc-arm-none-eabi-7-201
 418              		.file 14 "../../lib/e-puck2_main-processor/ChibiOS//os/rt/ports/ARMCMx/compilers/GCC/chtypes.h"
 419              		.file 15 "../../lib/e-puck2_main-processor/ChibiOS//os/rt/include/chsystypes.h"
 420              		.file 16 "../../lib/e-puck2_main-processor/ChibiOS//os/rt/include/chschd.h"
 421              		.file 17 "../../lib/e-puck2_main-processor/ChibiOS//os/ext/CMSIS/include/core_cm4.h"
 422              		.file 18 "../../lib/e-puck2_main-processor/ChibiOS//os/ext/CMSIS/ST/system_stm32f4xx.h"
 423              		.file 19 "../../lib/e-puck2_main-processor/ChibiOS//os/ext/CMSIS/ST/stm32f407xx.h"
 424              		.file 20 "../../lib/e-puck2_main-processor/ChibiOS//os/rt/ports/ARMCMx/chcore.h"
 425              		.file 21 "../../lib/e-puck2_main-processor/ChibiOS//os/rt/ports/ARMCMx/chcore_v7m.h"
 426              		.file 22 "../../lib/e-puck2_main-processor/ChibiOS//os/rt/include/chdebug.h"
 427              		.file 23 "../../lib/e-puck2_main-processor/ChibiOS//os/rt/include/chtm.h"
 428              		.file 24 "../../lib/e-puck2_main-processor/ChibiOS//os/rt/include/chstats.h"
 429              		.file 25 "../../lib/e-puck2_main-processor/ChibiOS//os/rt/include/chsem.h"
 430              		.file 26 "../../lib/e-puck2_main-processor/ChibiOS//os/rt/include/chmtx.h"
 431              		.file 27 "../../lib/e-puck2_main-processor/ChibiOS//os/rt/include/chregistry.h"
 432              		.file 28 "../../lib/e-puck2_main-processor/ChibiOS//os/rt/include/chcond.h"
 433              		.file 29 "../../lib/e-puck2_main-processor/ChibiOS//os/rt/include/chevents.h"
 434              		.file 30 "../../lib/e-puck2_main-processor/ChibiOS//os/rt/include/chqueues.h"
 435              		.file 31 "../../lib/e-puck2_main-processor/ChibiOS//os/rt/include/chstreams.h"
 436              		.file 32 "../../lib/e-puck2_main-processor/ChibiOS//os/hal/ports/STM32/STM32F4xx/stm32_dma.h"
 437              		.file 33 "../../lib/e-puck2_main-processor/ChibiOS//os/hal/include/hal_ioblock.h"
 438              		.file 34 "../../lib/e-puck2_main-processor/ChibiOS//os/hal/ports/STM32/LLD/GPIOv2/pal_lld.h"
 439              		.file 35 "../../lib/e-puck2_main-processor/ChibiOS//os/hal/include/adc.h"
 440              		.file 36 "../../lib/e-puck2_main-processor/ChibiOS//os/hal/ports/STM32/STM32F4xx/adc_lld.h"
 441              		.file 37 "../../lib/e-puck2_main-processor/ChibiOS//os/hal/include/can.h"
 442              		.file 38 "../../lib/e-puck2_main-processor/ChibiOS//os/hal/ports/STM32/LLD/can_lld.h"
 443              		.file 39 "../../lib/e-puck2_main-processor/ChibiOS//os/hal/include/dac.h"
 444              		.file 40 "../../lib/e-puck2_main-processor/ChibiOS//os/hal/ports/STM32/LLD/DACv1/dac_lld.h"
 445              		.file 41 "../../lib/e-puck2_main-processor/ChibiOS//os/hal/include/ext.h"
ARM GAS  /var/folders/j2/t8glr22d56s93xphj_30s8g80000gn/T//ccQqE1zC.s 			page 9


 446              		.file 42 "../../lib/e-puck2_main-processor/ChibiOS//os/hal/ports/STM32/LLD/ext_lld.h"
 447              		.file 43 "../../lib/e-puck2_main-processor/ChibiOS//os/hal/include/gpt.h"
 448              		.file 44 "../../lib/e-puck2_main-processor/ChibiOS//os/hal/ports/STM32/LLD/TIMv1/gpt_lld.h"
 449              		.file 45 "../../lib/e-puck2_main-processor/ChibiOS//os/hal/ports/STM32/LLD/TIMv1/stm32_tim.h"
 450              		.file 46 "../../lib/e-puck2_main-processor/ChibiOS//os/hal/include/i2c.h"
 451              		.file 47 "../../lib/e-puck2_main-processor/ChibiOS//os/hal/ports/STM32/LLD/I2Cv1/i2c_lld.h"
 452              		.file 48 "../../lib/e-puck2_main-processor/ChibiOS//os/hal/include/i2s.h"
 453              		.file 49 "../../lib/e-puck2_main-processor/ChibiOS//os/hal/ports/STM32/LLD/SPIv1/i2s_lld.h"
 454              		.file 50 "../../lib/e-puck2_main-processor/ChibiOS//os/hal/include/pwm.h"
 455              		.file 51 "../../lib/e-puck2_main-processor/ChibiOS//os/hal/ports/STM32/LLD/TIMv1/pwm_lld.h"
 456              		.file 52 "../../lib/e-puck2_main-processor/ChibiOS//os/hal/include/serial.h"
 457              		.file 53 "../../lib/e-puck2_main-processor/ChibiOS//os/hal/ports/STM32/LLD/USARTv1/serial_lld.h"
 458              		.file 54 "../../lib/e-puck2_main-processor/ChibiOS//os/hal/include/sdc.h"
 459              		.file 55 "../../lib/e-puck2_main-processor/ChibiOS//os/hal/ports/STM32/LLD/sdc_lld.h"
 460              		.file 56 "../../lib/e-puck2_main-processor/ChibiOS//os/hal/include/spi.h"
 461              		.file 57 "../../lib/e-puck2_main-processor/ChibiOS//os/hal/ports/STM32/LLD/SPIv1/spi_lld.h"
 462              		.file 58 "../../lib/e-puck2_main-processor/ChibiOS//os/hal/include/usb.h"
 463              		.file 59 "../../lib/e-puck2_main-processor/ChibiOS//os/hal/ports/STM32/LLD/OTGv1/usb_lld.h"
 464              		.file 60 "../../lib/e-puck2_main-processor/ChibiOS//os/hal/ports/STM32/LLD/OTGv1/stm32_otg.h"
 465              		.file 61 "../../lib/e-puck2_main-processor/ChibiOS//os/hal/include/serial_usb.h"
 466              		.file 62 "../../lib/e-puck2_main-processor/src/usbcfg.h"
 467              		.file 63 "../../lib/e-puck2_main-processor/ChibiOS_ext/os/hal/include/../ports/STM32/STM32F4xx/dcm
 468              		.file 64 "/Applications/Eclipse_e-puck2.app/Contents/Eclipse_e-puck2/Tools/gcc-arm-none-eabi-7-201
 469              		.file 65 "../../lib/e-puck2_main-processor/src/msgbus/messagebus.h"
 470              		.file 66 "../../lib/e-puck2_main-processor/src/parameter/parameter.h"
 471              		.file 67 "./main.h"
 472              		.file 68 "../../lib/e-puck2_main-processor/ChibiOS//os/rt/include/chsys.h"
 473              		.file 69 "../../lib/e-puck2_main-processor/ChibiOS//os/hal/include/hal.h"
 474              		.file 70 "../../lib/e-puck2_main-processor/src/memory_protection.h"
 475              		.file 71 "../../lib/e-puck2_main-processor/src/camera/dcmi_camera.h"
 476              		.file 72 "../../lib/e-puck2_main-processor/src/camera/po8030.h"
 477              		.file 73 "../../lib/e-puck2_main-processor/src/motors.h"
 478              		.file 74 "../../lib/e-puck2_main-processor/src/sensors/proximity.h"
 479              		.file 75 "../../lib/e-puck2_main-processor/ChibiOS//os/rt/include/chthreads.h"