ARM GAS  /var/folders/j2/t8glr22d56s93xphj_30s8g80000gn/T//cc8l81ic.s 			page 1


   1              		.cpu cortex-m4
   2              		.eabi_attribute 27, 1
   3              		.eabi_attribute 28, 1
   4              		.eabi_attribute 20, 1
   5              		.eabi_attribute 21, 1
   6              		.eabi_attribute 23, 3
   7              		.eabi_attribute 24, 1
   8              		.eabi_attribute 25, 1
   9              		.eabi_attribute 26, 1
  10              		.eabi_attribute 30, 2
  11              		.eabi_attribute 34, 1
  12              		.eabi_attribute 18, 4
  13              		.file	"motors.c"
  14              		.text
  15              	.Ltext0:
  16              		.cfi_sections	.debug_frame
  17              		.section	.text.right_motor_update,"ax",%progbits
  18              		.align	1
  19              		.p2align 4,,15
  20              		.syntax unified
  21              		.thumb
  22              		.thumb_func
  23              		.fpu fpv4-sp-d16
  24              		.type	right_motor_update, %function
  25              	right_motor_update:
  26              	.LFB256:
  27              		.file 1 "../../lib/e-puck2_main-processor/src/motors.c"
  28              		.loc 1 55 0
  29              		.cfi_startproc
  30              		@ args = 0, pretend = 0, frame = 8
  31              		@ frame_needed = 0, uses_anonymous_args = 0
  32              	.LVL0:
  33 0000 00B5     		push	{lr}
  34              		.cfi_def_cfa_offset 4
  35              		.cfi_offset 14, -4
  36 0002 1F4B     		ldr	r3, .L17
  37              		.loc 1 57 0
  38 0004 0278     		ldrb	r2, [r0]	@ zero_extendqisi2
  39              		.loc 1 55 0
  40 0006 1968     		ldr	r1, [r3]
  41 0008 83B0     		sub	sp, sp, #12
  42              		.cfi_def_cfa_offset 16
  43              		.loc 1 55 0
  44 000a 0191     		str	r1, [sp, #4]
  45              		.loc 1 57 0
  46 000c E2B1     		cbz	r2, .L2
  47              		.loc 1 57 0 is_stmt 0 discriminator 1
  48 000e 1D4A     		ldr	r2, .L17+4
  49 0010 4FF40051 		mov	r1, #8192
  50 0014 1183     		strh	r1, [r2, #24]	@ movhi
  51              		.loc 1 58 0 is_stmt 1 discriminator 1
  52 0016 4278     		ldrb	r2, [r0, #1]	@ zero_extendqisi2
  53 0018 EAB1     		cbz	r2, .L4
  54              	.L15:
  55 001a 1A4A     		ldr	r2, .L17+4
  56 001c 4FF48051 		mov	r1, #4096
  57 0020 1183     		strh	r1, [r2, #24]	@ movhi
ARM GAS  /var/folders/j2/t8glr22d56s93xphj_30s8g80000gn/T//cc8l81ic.s 			page 2


  58              		.loc 1 59 0 discriminator 1
  59 0022 8278     		ldrb	r2, [r0, #2]	@ zero_extendqisi2
  60 0024 F2B1     		cbz	r2, .L6
  61              	.L16:
  62 0026 174A     		ldr	r2, .L17+4
  63 0028 4FF48041 		mov	r1, #16384
  64 002c 1183     		strh	r1, [r2, #24]	@ movhi
  65              		.loc 1 60 0 discriminator 1
  66 002e C278     		ldrb	r2, [r0, #3]	@ zero_extendqisi2
  67 0030 FAB9     		cbnz	r2, .L13
  68              	.L8:
  69              		.loc 1 60 0 is_stmt 0 discriminator 2
  70 0032 144A     		ldr	r2, .L17+4
  71 0034 4FF40041 		mov	r1, #32768
  72 0038 5183     		strh	r1, [r2, #26]	@ movhi
  73              	.L1:
  74              		.loc 1 61 0 is_stmt 1
  75 003a 019A     		ldr	r2, [sp, #4]
  76 003c 1B68     		ldr	r3, [r3]
  77 003e 9A42     		cmp	r2, r3
  78 0040 1CD1     		bne	.L14
  79 0042 03B0     		add	sp, sp, #12
  80              		.cfi_remember_state
  81              		.cfi_def_cfa_offset 4
  82              		@ sp needed
  83 0044 5DF804FB 		ldr	pc, [sp], #4
  84              	.L2:
  85              		.cfi_restore_state
  86              		.loc 1 57 0 discriminator 2
  87 0048 0E4A     		ldr	r2, .L17+4
  88 004a 4FF40051 		mov	r1, #8192
  89 004e 5183     		strh	r1, [r2, #26]	@ movhi
  90              		.loc 1 58 0 discriminator 2
  91 0050 4278     		ldrb	r2, [r0, #1]	@ zero_extendqisi2
  92 0052 002A     		cmp	r2, #0
  93 0054 E1D1     		bne	.L15
  94              	.L4:
  95 0056 0B4A     		ldr	r2, .L17+4
  96 0058 4FF48051 		mov	r1, #4096
  97 005c 5183     		strh	r1, [r2, #26]	@ movhi
  98              		.loc 1 59 0 discriminator 2
  99 005e 8278     		ldrb	r2, [r0, #2]	@ zero_extendqisi2
 100 0060 002A     		cmp	r2, #0
 101 0062 E0D1     		bne	.L16
 102              	.L6:
 103 0064 074A     		ldr	r2, .L17+4
 104 0066 4FF48041 		mov	r1, #16384
 105 006a 5183     		strh	r1, [r2, #26]	@ movhi
 106              		.loc 1 60 0 discriminator 2
 107 006c C278     		ldrb	r2, [r0, #3]	@ zero_extendqisi2
 108 006e 002A     		cmp	r2, #0
 109 0070 DFD0     		beq	.L8
 110              	.L13:
 111              		.loc 1 60 0 is_stmt 0 discriminator 1
 112 0072 044A     		ldr	r2, .L17+4
 113 0074 4FF40041 		mov	r1, #32768
 114 0078 1183     		strh	r1, [r2, #24]	@ movhi
ARM GAS  /var/folders/j2/t8glr22d56s93xphj_30s8g80000gn/T//cc8l81ic.s 			page 3


 115 007a DEE7     		b	.L1
 116              	.L14:
 117              		.loc 1 61 0 is_stmt 1
 118 007c FFF7FEFF 		bl	__stack_chk_fail
 119              	.LVL1:
 120              	.L18:
 121              		.align	2
 122              	.L17:
 123 0080 00000000 		.word	__stack_chk_guard
 124 0084 00100240 		.word	1073876992
 125              		.cfi_endproc
 126              	.LFE256:
 127              		.size	right_motor_update, .-right_motor_update
 128              		.section	.text.left_motor_update,"ax",%progbits
 129              		.align	1
 130              		.p2align 4,,15
 131              		.syntax unified
 132              		.thumb
 133              		.thumb_func
 134              		.fpu fpv4-sp-d16
 135              		.type	left_motor_update, %function
 136              	left_motor_update:
 137              	.LFB257:
 138              		.loc 1 70 0
 139              		.cfi_startproc
 140              		@ args = 0, pretend = 0, frame = 8
 141              		@ frame_needed = 0, uses_anonymous_args = 0
 142              	.LVL2:
 143 0000 00B5     		push	{lr}
 144              		.cfi_def_cfa_offset 4
 145              		.cfi_offset 14, -4
 146 0002 1F4B     		ldr	r3, .L34
 147              		.loc 1 72 0
 148 0004 0278     		ldrb	r2, [r0]	@ zero_extendqisi2
 149              		.loc 1 70 0
 150 0006 1968     		ldr	r1, [r3]
 151 0008 83B0     		sub	sp, sp, #12
 152              		.cfi_def_cfa_offset 16
 153              		.loc 1 70 0
 154 000a 0191     		str	r1, [sp, #4]
 155              		.loc 1 72 0
 156 000c E2B1     		cbz	r2, .L20
 157              		.loc 1 72 0 is_stmt 0 discriminator 1
 158 000e 1D4A     		ldr	r2, .L34+4
 159 0010 4FF40071 		mov	r1, #512
 160 0014 1183     		strh	r1, [r2, #24]	@ movhi
 161              		.loc 1 73 0 is_stmt 1 discriminator 1
 162 0016 4278     		ldrb	r2, [r0, #1]	@ zero_extendqisi2
 163 0018 EAB1     		cbz	r2, .L22
 164              	.L32:
 165 001a 1A4A     		ldr	r2, .L34+4
 166 001c 4FF48071 		mov	r1, #256
 167 0020 1183     		strh	r1, [r2, #24]	@ movhi
 168              		.loc 1 74 0 discriminator 1
 169 0022 8278     		ldrb	r2, [r0, #2]	@ zero_extendqisi2
 170 0024 F2B1     		cbz	r2, .L24
 171              	.L33:
ARM GAS  /var/folders/j2/t8glr22d56s93xphj_30s8g80000gn/T//cc8l81ic.s 			page 4


 172 0026 174A     		ldr	r2, .L34+4
 173 0028 4FF40061 		mov	r1, #2048
 174 002c 1183     		strh	r1, [r2, #24]	@ movhi
 175              		.loc 1 75 0 discriminator 1
 176 002e C278     		ldrb	r2, [r0, #3]	@ zero_extendqisi2
 177 0030 FAB9     		cbnz	r2, .L30
 178              	.L26:
 179              		.loc 1 75 0 is_stmt 0 discriminator 2
 180 0032 144A     		ldr	r2, .L34+4
 181 0034 4FF48061 		mov	r1, #1024
 182 0038 5183     		strh	r1, [r2, #26]	@ movhi
 183              	.L19:
 184              		.loc 1 76 0 is_stmt 1
 185 003a 019A     		ldr	r2, [sp, #4]
 186 003c 1B68     		ldr	r3, [r3]
 187 003e 9A42     		cmp	r2, r3
 188 0040 1CD1     		bne	.L31
 189 0042 03B0     		add	sp, sp, #12
 190              		.cfi_remember_state
 191              		.cfi_def_cfa_offset 4
 192              		@ sp needed
 193 0044 5DF804FB 		ldr	pc, [sp], #4
 194              	.L20:
 195              		.cfi_restore_state
 196              		.loc 1 72 0 discriminator 2
 197 0048 0E4A     		ldr	r2, .L34+4
 198 004a 4FF40071 		mov	r1, #512
 199 004e 5183     		strh	r1, [r2, #26]	@ movhi
 200              		.loc 1 73 0 discriminator 2
 201 0050 4278     		ldrb	r2, [r0, #1]	@ zero_extendqisi2
 202 0052 002A     		cmp	r2, #0
 203 0054 E1D1     		bne	.L32
 204              	.L22:
 205 0056 0B4A     		ldr	r2, .L34+4
 206 0058 4FF48071 		mov	r1, #256
 207 005c 5183     		strh	r1, [r2, #26]	@ movhi
 208              		.loc 1 74 0 discriminator 2
 209 005e 8278     		ldrb	r2, [r0, #2]	@ zero_extendqisi2
 210 0060 002A     		cmp	r2, #0
 211 0062 E0D1     		bne	.L33
 212              	.L24:
 213 0064 074A     		ldr	r2, .L34+4
 214 0066 4FF40061 		mov	r1, #2048
 215 006a 5183     		strh	r1, [r2, #26]	@ movhi
 216              		.loc 1 75 0 discriminator 2
 217 006c C278     		ldrb	r2, [r0, #3]	@ zero_extendqisi2
 218 006e 002A     		cmp	r2, #0
 219 0070 DFD0     		beq	.L26
 220              	.L30:
 221              		.loc 1 75 0 is_stmt 0 discriminator 1
 222 0072 044A     		ldr	r2, .L34+4
 223 0074 4FF48061 		mov	r1, #1024
 224 0078 1183     		strh	r1, [r2, #24]	@ movhi
 225 007a DEE7     		b	.L19
 226              	.L31:
 227              		.loc 1 76 0 is_stmt 1
 228 007c FFF7FEFF 		bl	__stack_chk_fail
ARM GAS  /var/folders/j2/t8glr22d56s93xphj_30s8g80000gn/T//cc8l81ic.s 			page 5


 229              	.LVL3:
 230              	.L35:
 231              		.align	2
 232              	.L34:
 233 0080 00000000 		.word	__stack_chk_guard
 234 0084 00100240 		.word	1073876992
 235              		.cfi_endproc
 236              	.LFE257:
 237              		.size	left_motor_update, .-left_motor_update
 238              		.section	.text.right_motor_pwm_ch1_cb,"ax",%progbits
 239              		.align	1
 240              		.p2align 4,,15
 241              		.syntax unified
 242              		.thumb
 243              		.thumb_func
 244              		.fpu fpv4-sp-d16
 245              		.type	right_motor_pwm_ch1_cb, %function
 246              	right_motor_pwm_ch1_cb:
 247              	.LFB260:
 248              		.loc 1 135 0
 249              		.cfi_startproc
 250              		@ args = 0, pretend = 0, frame = 8
 251              		@ frame_needed = 0, uses_anonymous_args = 0
 252              	.LVL4:
 253 0000 30B5     		push	{r4, r5, lr}
 254              		.cfi_def_cfa_offset 12
 255              		.cfi_offset 4, -12
 256              		.cfi_offset 5, -8
 257              		.cfi_offset 14, -4
 258 0002 0C4A     		ldr	r2, .L40
 259              		.loc 1 137 0
 260 0004 0C4B     		ldr	r3, .L40+4
 261              		.loc 1 135 0
 262 0006 1168     		ldr	r1, [r2]
 263 0008 83B0     		sub	sp, sp, #12
 264              		.cfi_def_cfa_offset 24
 265              		.loc 1 137 0
 266 000a 4FF40055 		mov	r5, #8192
 267              		.loc 1 135 0
 268 000e 0191     		str	r1, [sp, #4]
 269              		.loc 1 138 0
 270 0010 4FF48054 		mov	r4, #4096
 271              		.loc 1 140 0
 272 0014 4FF40041 		mov	r1, #32768
 273              		.loc 1 139 0
 274 0018 4FF48040 		mov	r0, #16384
 275              	.LVL5:
 276              		.loc 1 137 0
 277 001c 5D83     		strh	r5, [r3, #26]	@ movhi
 278              		.loc 1 138 0
 279 001e 5C83     		strh	r4, [r3, #26]	@ movhi
 280              		.loc 1 139 0
 281 0020 5883     		strh	r0, [r3, #26]	@ movhi
 282              		.loc 1 140 0
 283 0022 5983     		strh	r1, [r3, #26]	@ movhi
 284              		.loc 1 141 0
 285 0024 0199     		ldr	r1, [sp, #4]
ARM GAS  /var/folders/j2/t8glr22d56s93xphj_30s8g80000gn/T//cc8l81ic.s 			page 6


 286 0026 1368     		ldr	r3, [r2]
 287 0028 9942     		cmp	r1, r3
 288 002a 01D1     		bne	.L39
 289 002c 03B0     		add	sp, sp, #12
 290              		.cfi_remember_state
 291              		.cfi_def_cfa_offset 12
 292              		@ sp needed
 293 002e 30BD     		pop	{r4, r5, pc}
 294              	.L39:
 295              		.cfi_restore_state
 296 0030 FFF7FEFF 		bl	__stack_chk_fail
 297              	.LVL6:
 298              	.L41:
 299              		.align	2
 300              	.L40:
 301 0034 00000000 		.word	__stack_chk_guard
 302 0038 00100240 		.word	1073876992
 303              		.cfi_endproc
 304              	.LFE260:
 305              		.size	right_motor_pwm_ch1_cb, .-right_motor_pwm_ch1_cb
 306              		.section	.text.left_motor_pwm_ch1_cb,"ax",%progbits
 307              		.align	1
 308              		.p2align 4,,15
 309              		.syntax unified
 310              		.thumb
 311              		.thumb_func
 312              		.fpu fpv4-sp-d16
 313              		.type	left_motor_pwm_ch1_cb, %function
 314              	left_motor_pwm_ch1_cb:
 315              	.LFB261:
 316              		.loc 1 150 0
 317              		.cfi_startproc
 318              		@ args = 0, pretend = 0, frame = 8
 319              		@ frame_needed = 0, uses_anonymous_args = 0
 320              	.LVL7:
 321 0000 30B5     		push	{r4, r5, lr}
 322              		.cfi_def_cfa_offset 12
 323              		.cfi_offset 4, -12
 324              		.cfi_offset 5, -8
 325              		.cfi_offset 14, -4
 326 0002 0C4A     		ldr	r2, .L46
 327              		.loc 1 152 0
 328 0004 0C4B     		ldr	r3, .L46+4
 329              		.loc 1 150 0
 330 0006 1168     		ldr	r1, [r2]
 331 0008 83B0     		sub	sp, sp, #12
 332              		.cfi_def_cfa_offset 24
 333              		.loc 1 152 0
 334 000a 4FF40075 		mov	r5, #512
 335              		.loc 1 150 0
 336 000e 0191     		str	r1, [sp, #4]
 337              		.loc 1 153 0
 338 0010 4FF48074 		mov	r4, #256
 339              		.loc 1 155 0
 340 0014 4FF48061 		mov	r1, #1024
 341              		.loc 1 154 0
 342 0018 4FF40060 		mov	r0, #2048
ARM GAS  /var/folders/j2/t8glr22d56s93xphj_30s8g80000gn/T//cc8l81ic.s 			page 7


 343              	.LVL8:
 344              		.loc 1 152 0
 345 001c 5D83     		strh	r5, [r3, #26]	@ movhi
 346              		.loc 1 153 0
 347 001e 5C83     		strh	r4, [r3, #26]	@ movhi
 348              		.loc 1 154 0
 349 0020 5883     		strh	r0, [r3, #26]	@ movhi
 350              		.loc 1 155 0
 351 0022 5983     		strh	r1, [r3, #26]	@ movhi
 352              		.loc 1 156 0
 353 0024 0199     		ldr	r1, [sp, #4]
 354 0026 1368     		ldr	r3, [r2]
 355 0028 9942     		cmp	r1, r3
 356 002a 01D1     		bne	.L45
 357 002c 03B0     		add	sp, sp, #12
 358              		.cfi_remember_state
 359              		.cfi_def_cfa_offset 12
 360              		@ sp needed
 361 002e 30BD     		pop	{r4, r5, pc}
 362              	.L45:
 363              		.cfi_restore_state
 364 0030 FFF7FEFF 		bl	__stack_chk_fail
 365              	.LVL9:
 366              	.L47:
 367              		.align	2
 368              	.L46:
 369 0034 00000000 		.word	__stack_chk_guard
 370 0038 00100240 		.word	1073876992
 371              		.cfi_endproc
 372              	.LFE261:
 373              		.size	left_motor_pwm_ch1_cb, .-left_motor_pwm_ch1_cb
 374              		.section	.text.right_motor_enable_power_save,"ax",%progbits
 375              		.align	1
 376              		.p2align 4,,15
 377              		.global	right_motor_enable_power_save
 378              		.syntax unified
 379              		.thumb
 380              		.thumb_func
 381              		.fpu fpv4-sp-d16
 382              		.type	right_motor_enable_power_save, %function
 383              	right_motor_enable_power_save:
 384              	.LFB262:
 385              		.loc 1 161 0
 386              		.cfi_startproc
 387              		@ args = 0, pretend = 0, frame = 8
 388              		@ frame_needed = 0, uses_anonymous_args = 0
 389 0000 10B5     		push	{r4, lr}
 390              		.cfi_def_cfa_offset 8
 391              		.cfi_offset 4, -8
 392              		.cfi_offset 14, -4
 393 0002 0B4C     		ldr	r4, .L53
 394              		.loc 1 163 0
 395 0004 0B48     		ldr	r0, .L53+4
 396              		.loc 1 161 0
 397 0006 2368     		ldr	r3, [r4]
 398 0008 82B0     		sub	sp, sp, #8
 399              		.cfi_def_cfa_offset 16
ARM GAS  /var/folders/j2/t8glr22d56s93xphj_30s8g80000gn/T//cc8l81ic.s 			page 8


 400              		.loc 1 163 0
 401 000a 9922     		movs	r2, #153
 402 000c 0021     		movs	r1, #0
 403              		.loc 1 161 0
 404 000e 0193     		str	r3, [sp, #4]
 405              		.loc 1 163 0
 406 0010 FFF7FEFF 		bl	pwmEnableChannel
 407              	.LVL10:
 408              		.loc 1 165 0
 409 0014 019A     		ldr	r2, [sp, #4]
 410 0016 2368     		ldr	r3, [r4]
 411 0018 9A42     		cmp	r2, r3
 412 001a 06D1     		bne	.L52
 413 001c 0548     		ldr	r0, .L53+4
 414 001e 0021     		movs	r1, #0
 415              		.loc 1 166 0
 416 0020 02B0     		add	sp, sp, #8
 417              		.cfi_remember_state
 418              		.cfi_def_cfa_offset 8
 419              		@ sp needed
 420 0022 BDE81040 		pop	{r4, lr}
 421              		.cfi_restore 14
 422              		.cfi_restore 4
 423              		.cfi_def_cfa_offset 0
 424              		.loc 1 165 0
 425 0026 FFF7FEBF 		b	pwmEnableChannelNotification
 426              	.LVL11:
 427              	.L52:
 428              		.cfi_restore_state
 429 002a FFF7FEFF 		bl	__stack_chk_fail
 430              	.LVL12:
 431              	.L54:
 432 002e 00BF     		.align	2
 433              	.L53:
 434 0030 00000000 		.word	__stack_chk_guard
 435 0034 00000000 		.word	PWMD3
 436              		.cfi_endproc
 437              	.LFE262:
 438              		.size	right_motor_enable_power_save, .-right_motor_enable_power_save
 439              		.section	.text.left_motor_enable_power_save,"ax",%progbits
 440              		.align	1
 441              		.p2align 4,,15
 442              		.global	left_motor_enable_power_save
 443              		.syntax unified
 444              		.thumb
 445              		.thumb_func
 446              		.fpu fpv4-sp-d16
 447              		.type	left_motor_enable_power_save, %function
 448              	left_motor_enable_power_save:
 449              	.LFB263:
 450              		.loc 1 171 0
 451              		.cfi_startproc
 452              		@ args = 0, pretend = 0, frame = 8
 453              		@ frame_needed = 0, uses_anonymous_args = 0
 454 0000 10B5     		push	{r4, lr}
 455              		.cfi_def_cfa_offset 8
 456              		.cfi_offset 4, -8
ARM GAS  /var/folders/j2/t8glr22d56s93xphj_30s8g80000gn/T//cc8l81ic.s 			page 9


 457              		.cfi_offset 14, -4
 458 0002 0B4C     		ldr	r4, .L60
 459              		.loc 1 173 0
 460 0004 0B48     		ldr	r0, .L60+4
 461              		.loc 1 171 0
 462 0006 2368     		ldr	r3, [r4]
 463 0008 82B0     		sub	sp, sp, #8
 464              		.cfi_def_cfa_offset 16
 465              		.loc 1 173 0
 466 000a 9922     		movs	r2, #153
 467 000c 0021     		movs	r1, #0
 468              		.loc 1 171 0
 469 000e 0193     		str	r3, [sp, #4]
 470              		.loc 1 173 0
 471 0010 FFF7FEFF 		bl	pwmEnableChannel
 472              	.LVL13:
 473              		.loc 1 175 0
 474 0014 019A     		ldr	r2, [sp, #4]
 475 0016 2368     		ldr	r3, [r4]
 476 0018 9A42     		cmp	r2, r3
 477 001a 06D1     		bne	.L59
 478 001c 0548     		ldr	r0, .L60+4
 479 001e 0021     		movs	r1, #0
 480              		.loc 1 176 0
 481 0020 02B0     		add	sp, sp, #8
 482              		.cfi_remember_state
 483              		.cfi_def_cfa_offset 8
 484              		@ sp needed
 485 0022 BDE81040 		pop	{r4, lr}
 486              		.cfi_restore 14
 487              		.cfi_restore 4
 488              		.cfi_def_cfa_offset 0
 489              		.loc 1 175 0
 490 0026 FFF7FEBF 		b	pwmEnableChannelNotification
 491              	.LVL14:
 492              	.L59:
 493              		.cfi_restore_state
 494 002a FFF7FEFF 		bl	__stack_chk_fail
 495              	.LVL15:
 496              	.L61:
 497 002e 00BF     		.align	2
 498              	.L60:
 499 0030 00000000 		.word	__stack_chk_guard
 500 0034 00000000 		.word	PWMD4
 501              		.cfi_endproc
 502              	.LFE263:
 503              		.size	left_motor_enable_power_save, .-left_motor_enable_power_save
 504              		.section	.text.right_motor_disable_power_save,"ax",%progbits
 505              		.align	1
 506              		.p2align 4,,15
 507              		.global	right_motor_disable_power_save
 508              		.syntax unified
 509              		.thumb
 510              		.thumb_func
 511              		.fpu fpv4-sp-d16
 512              		.type	right_motor_disable_power_save, %function
 513              	right_motor_disable_power_save:
ARM GAS  /var/folders/j2/t8glr22d56s93xphj_30s8g80000gn/T//cc8l81ic.s 			page 10


 514              	.LFB264:
 515              		.loc 1 181 0
 516              		.cfi_startproc
 517              		@ args = 0, pretend = 0, frame = 8
 518              		@ frame_needed = 0, uses_anonymous_args = 0
 519 0000 00B5     		push	{lr}
 520              		.cfi_def_cfa_offset 4
 521              		.cfi_offset 14, -4
 522 0002 084B     		ldr	r3, .L67
 523 0004 83B0     		sub	sp, sp, #12
 524              		.cfi_def_cfa_offset 16
 525              		.loc 1 181 0
 526 0006 1A68     		ldr	r2, [r3]
 527 0008 0192     		str	r2, [sp, #4]
 528              		.loc 1 182 0
 529 000a 019A     		ldr	r2, [sp, #4]
 530 000c 1B68     		ldr	r3, [r3]
 531 000e 9A42     		cmp	r2, r3
 532 0010 06D1     		bne	.L66
 533 0012 0548     		ldr	r0, .L67+4
 534 0014 0021     		movs	r1, #0
 535              		.loc 1 183 0
 536 0016 03B0     		add	sp, sp, #12
 537              		.cfi_remember_state
 538              		.cfi_def_cfa_offset 4
 539              		@ sp needed
 540 0018 5DF804EB 		ldr	lr, [sp], #4
 541              		.cfi_restore 14
 542              		.cfi_def_cfa_offset 0
 543              		.loc 1 182 0
 544 001c FFF7FEBF 		b	pwmDisableChannel
 545              	.LVL16:
 546              	.L66:
 547              		.cfi_restore_state
 548 0020 FFF7FEFF 		bl	__stack_chk_fail
 549              	.LVL17:
 550              	.L68:
 551              		.align	2
 552              	.L67:
 553 0024 00000000 		.word	__stack_chk_guard
 554 0028 00000000 		.word	PWMD3
 555              		.cfi_endproc
 556              	.LFE264:
 557              		.size	right_motor_disable_power_save, .-right_motor_disable_power_save
 558              		.section	.text.left_motor_disable_power_save,"ax",%progbits
 559              		.align	1
 560              		.p2align 4,,15
 561              		.global	left_motor_disable_power_save
 562              		.syntax unified
 563              		.thumb
 564              		.thumb_func
 565              		.fpu fpv4-sp-d16
 566              		.type	left_motor_disable_power_save, %function
 567              	left_motor_disable_power_save:
 568              	.LFB265:
 569              		.loc 1 188 0
 570              		.cfi_startproc
ARM GAS  /var/folders/j2/t8glr22d56s93xphj_30s8g80000gn/T//cc8l81ic.s 			page 11


 571              		@ args = 0, pretend = 0, frame = 8
 572              		@ frame_needed = 0, uses_anonymous_args = 0
 573 0000 00B5     		push	{lr}
 574              		.cfi_def_cfa_offset 4
 575              		.cfi_offset 14, -4
 576 0002 084B     		ldr	r3, .L74
 577 0004 83B0     		sub	sp, sp, #12
 578              		.cfi_def_cfa_offset 16
 579              		.loc 1 188 0
 580 0006 1A68     		ldr	r2, [r3]
 581 0008 0192     		str	r2, [sp, #4]
 582              		.loc 1 189 0
 583 000a 019A     		ldr	r2, [sp, #4]
 584 000c 1B68     		ldr	r3, [r3]
 585 000e 9A42     		cmp	r2, r3
 586 0010 06D1     		bne	.L73
 587 0012 0548     		ldr	r0, .L74+4
 588 0014 0021     		movs	r1, #0
 589              		.loc 1 190 0
 590 0016 03B0     		add	sp, sp, #12
 591              		.cfi_remember_state
 592              		.cfi_def_cfa_offset 4
 593              		@ sp needed
 594 0018 5DF804EB 		ldr	lr, [sp], #4
 595              		.cfi_restore 14
 596              		.cfi_def_cfa_offset 0
 597              		.loc 1 189 0
 598 001c FFF7FEBF 		b	pwmDisableChannel
 599              	.LVL18:
 600              	.L73:
 601              		.cfi_restore_state
 602 0020 FFF7FEFF 		bl	__stack_chk_fail
 603              	.LVL19:
 604              	.L75:
 605              		.align	2
 606              	.L74:
 607 0024 00000000 		.word	__stack_chk_guard
 608 0028 00000000 		.word	PWMD4
 609              		.cfi_endproc
 610              	.LFE265:
 611              		.size	left_motor_disable_power_save, .-left_motor_disable_power_save
 612              		.section	.text.right_motor_timer_callback,"ax",%progbits
 613              		.align	1
 614              		.p2align 4,,15
 615              		.syntax unified
 616              		.thumb
 617              		.thumb_func
 618              		.fpu fpv4-sp-d16
 619              		.type	right_motor_timer_callback, %function
 620              	right_motor_timer_callback:
 621              	.LFB258:
 622              		.loc 1 85 0
 623              		.cfi_startproc
 624              		@ args = 0, pretend = 0, frame = 8
 625              		@ frame_needed = 0, uses_anonymous_args = 0
 626              	.LVL20:
 627 0000 70B5     		push	{r4, r5, r6, lr}
ARM GAS  /var/folders/j2/t8glr22d56s93xphj_30s8g80000gn/T//cc8l81ic.s 			page 12


 628              		.cfi_def_cfa_offset 16
 629              		.cfi_offset 4, -16
 630              		.cfi_offset 5, -12
 631              		.cfi_offset 6, -8
 632              		.cfi_offset 14, -4
 633              		.loc 1 88 0
 634 0002 1A4C     		ldr	r4, .L85
 635              		.loc 1 85 0
 636 0004 1A4E     		ldr	r6, .L85+4
 637              		.loc 1 88 0
 638 0006 2378     		ldrb	r3, [r4]	@ zero_extendqisi2
 639              		.loc 1 85 0
 640 0008 3268     		ldr	r2, [r6]
 641 000a 82B0     		sub	sp, sp, #8
 642              		.cfi_def_cfa_offset 24
 643              		.loc 1 88 0
 644 000c 022B     		cmp	r3, #2
 645              		.loc 1 85 0
 646 000e 0192     		str	r2, [sp, #4]
 647 0010 A268     		ldr	r2, [r4, #8]
 648              		.loc 1 88 0
 649 0012 11D1     		bne	.L77
 650              		.loc 1 89 0
 651 0014 6578     		ldrb	r5, [r4, #1]	@ zero_extendqisi2
 652              		.loc 1 90 0
 653 0016 1748     		ldr	r0, .L85+8
 654              	.LVL21:
 655              		.loc 1 89 0
 656 0018 0135     		adds	r5, r5, #1
 657 001a 05F00705 		and	r5, r5, #7
 658              	.LVL22:
 659              		.loc 1 90 0
 660 001e 00EB8500 		add	r0, r0, r5, lsl #2
 661 0022 9047     		blx	r2
 662              	.LVL23:
 663              		.loc 1 91 0
 664 0024 6368     		ldr	r3, [r4, #4]
 665              		.loc 1 92 0
 666 0026 6570     		strb	r5, [r4, #1]
 667              		.loc 1 91 0
 668 0028 013B     		subs	r3, r3, #1
 669 002a 6360     		str	r3, [r4, #4]
 670              	.LVL24:
 671              	.L76:
 672              		.loc 1 101 0
 673 002c 019A     		ldr	r2, [sp, #4]
 674 002e 3368     		ldr	r3, [r6]
 675 0030 9A42     		cmp	r2, r3
 676 0032 19D1     		bne	.L83
 677 0034 02B0     		add	sp, sp, #8
 678              		.cfi_remember_state
 679              		.cfi_def_cfa_offset 16
 680              		@ sp needed
 681 0036 70BD     		pop	{r4, r5, r6, pc}
 682              	.LVL25:
 683              	.L77:
 684              		.cfi_restore_state
ARM GAS  /var/folders/j2/t8glr22d56s93xphj_30s8g80000gn/T//cc8l81ic.s 			page 13


 685              		.loc 1 93 0
 686 0038 012B     		cmp	r3, #1
 687 003a 08D0     		beq	.L84
 688              		.loc 1 99 0
 689 003c 0199     		ldr	r1, [sp, #4]
 690 003e 3368     		ldr	r3, [r6]
 691 0040 9942     		cmp	r1, r3
 692 0042 11D1     		bne	.L83
 693 0044 0C48     		ldr	r0, .L85+12
 694              	.LVL26:
 695              		.loc 1 101 0
 696 0046 02B0     		add	sp, sp, #8
 697              		.cfi_remember_state
 698              		.cfi_def_cfa_offset 16
 699              		@ sp needed
 700 0048 BDE87040 		pop	{r4, r5, r6, lr}
 701              		.cfi_restore 14
 702              		.cfi_restore 6
 703              		.cfi_restore 5
 704              		.cfi_restore 4
 705              		.cfi_def_cfa_offset 0
 706              		.loc 1 99 0
 707 004c 1047     		bx	r2	@ indirect register sibling call
 708              	.LVL27:
 709              	.L84:
 710              		.cfi_restore_state
 711              	.LBB163:
 712              	.LBB164:
 713              		.loc 1 94 0
 714 004e 6578     		ldrb	r5, [r4, #1]	@ zero_extendqisi2
 715              		.loc 1 95 0
 716 0050 0848     		ldr	r0, .L85+8
 717              	.LVL28:
 718              		.loc 1 94 0
 719 0052 013D     		subs	r5, r5, #1
 720 0054 05F00705 		and	r5, r5, #7
 721              	.LVL29:
 722              		.loc 1 95 0
 723 0058 00EB8500 		add	r0, r0, r5, lsl #2
 724 005c 9047     		blx	r2
 725              	.LVL30:
 726              		.loc 1 96 0
 727 005e 6368     		ldr	r3, [r4, #4]
 728              		.loc 1 97 0
 729 0060 6570     		strb	r5, [r4, #1]
 730              		.loc 1 96 0
 731 0062 0133     		adds	r3, r3, #1
 732 0064 6360     		str	r3, [r4, #4]
 733 0066 E1E7     		b	.L76
 734              	.LVL31:
 735              	.L83:
 736              	.LBE164:
 737              	.LBE163:
 738              		.loc 1 101 0
 739 0068 FFF7FEFF 		bl	__stack_chk_fail
 740              	.LVL32:
 741              	.L86:
ARM GAS  /var/folders/j2/t8glr22d56s93xphj_30s8g80000gn/T//cc8l81ic.s 			page 14


 742              		.align	2
 743              	.L85:
 744 006c 00000000 		.word	.LANCHOR0
 745 0070 00000000 		.word	__stack_chk_guard
 746 0074 00000000 		.word	.LANCHOR1
 747 0078 00000000 		.word	.LANCHOR2
 748              		.cfi_endproc
 749              	.LFE258:
 750              		.size	right_motor_timer_callback, .-right_motor_timer_callback
 751              		.section	.text.left_motor_timer_callback,"ax",%progbits
 752              		.align	1
 753              		.p2align 4,,15
 754              		.syntax unified
 755              		.thumb
 756              		.thumb_func
 757              		.fpu fpv4-sp-d16
 758              		.type	left_motor_timer_callback, %function
 759              	left_motor_timer_callback:
 760              	.LFB259:
 761              		.loc 1 110 0
 762              		.cfi_startproc
 763              		@ args = 0, pretend = 0, frame = 8
 764              		@ frame_needed = 0, uses_anonymous_args = 0
 765              	.LVL33:
 766 0000 70B5     		push	{r4, r5, r6, lr}
 767              		.cfi_def_cfa_offset 16
 768              		.cfi_offset 4, -16
 769              		.cfi_offset 5, -12
 770              		.cfi_offset 6, -8
 771              		.cfi_offset 14, -4
 772              		.loc 1 113 0
 773 0002 1A4C     		ldr	r4, .L96
 774              		.loc 1 110 0
 775 0004 1A4E     		ldr	r6, .L96+4
 776              		.loc 1 113 0
 777 0006 2378     		ldrb	r3, [r4]	@ zero_extendqisi2
 778              		.loc 1 110 0
 779 0008 3268     		ldr	r2, [r6]
 780 000a 82B0     		sub	sp, sp, #8
 781              		.cfi_def_cfa_offset 24
 782              		.loc 1 113 0
 783 000c 012B     		cmp	r3, #1
 784              		.loc 1 110 0
 785 000e 0192     		str	r2, [sp, #4]
 786 0010 A268     		ldr	r2, [r4, #8]
 787              		.loc 1 113 0
 788 0012 11D1     		bne	.L88
 789              		.loc 1 114 0
 790 0014 6578     		ldrb	r5, [r4, #1]	@ zero_extendqisi2
 791              		.loc 1 115 0
 792 0016 1748     		ldr	r0, .L96+8
 793              	.LVL34:
 794              		.loc 1 114 0
 795 0018 0135     		adds	r5, r5, #1
 796 001a 05F00705 		and	r5, r5, #7
 797              	.LVL35:
 798              		.loc 1 115 0
ARM GAS  /var/folders/j2/t8glr22d56s93xphj_30s8g80000gn/T//cc8l81ic.s 			page 15


 799 001e 00EB8500 		add	r0, r0, r5, lsl #2
 800 0022 9047     		blx	r2
 801              	.LVL36:
 802              		.loc 1 116 0
 803 0024 6368     		ldr	r3, [r4, #4]
 804              		.loc 1 117 0
 805 0026 6570     		strb	r5, [r4, #1]
 806              		.loc 1 116 0
 807 0028 0133     		adds	r3, r3, #1
 808 002a 6360     		str	r3, [r4, #4]
 809              	.LVL37:
 810              	.L87:
 811              		.loc 1 126 0
 812 002c 019A     		ldr	r2, [sp, #4]
 813 002e 3368     		ldr	r3, [r6]
 814 0030 9A42     		cmp	r2, r3
 815 0032 19D1     		bne	.L94
 816 0034 02B0     		add	sp, sp, #8
 817              		.cfi_remember_state
 818              		.cfi_def_cfa_offset 16
 819              		@ sp needed
 820 0036 70BD     		pop	{r4, r5, r6, pc}
 821              	.LVL38:
 822              	.L88:
 823              		.cfi_restore_state
 824              		.loc 1 118 0
 825 0038 022B     		cmp	r3, #2
 826 003a 08D0     		beq	.L95
 827              		.loc 1 124 0
 828 003c 0199     		ldr	r1, [sp, #4]
 829 003e 3368     		ldr	r3, [r6]
 830 0040 9942     		cmp	r1, r3
 831 0042 11D1     		bne	.L94
 832 0044 0C48     		ldr	r0, .L96+12
 833              	.LVL39:
 834              		.loc 1 126 0
 835 0046 02B0     		add	sp, sp, #8
 836              		.cfi_remember_state
 837              		.cfi_def_cfa_offset 16
 838              		@ sp needed
 839 0048 BDE87040 		pop	{r4, r5, r6, lr}
 840              		.cfi_restore 14
 841              		.cfi_restore 6
 842              		.cfi_restore 5
 843              		.cfi_restore 4
 844              		.cfi_def_cfa_offset 0
 845              		.loc 1 124 0
 846 004c 1047     		bx	r2	@ indirect register sibling call
 847              	.LVL40:
 848              	.L95:
 849              		.cfi_restore_state
 850              	.LBB167:
 851              	.LBB168:
 852              		.loc 1 119 0
 853 004e 6578     		ldrb	r5, [r4, #1]	@ zero_extendqisi2
 854              		.loc 1 120 0
 855 0050 0848     		ldr	r0, .L96+8
ARM GAS  /var/folders/j2/t8glr22d56s93xphj_30s8g80000gn/T//cc8l81ic.s 			page 16


 856              	.LVL41:
 857              		.loc 1 119 0
 858 0052 013D     		subs	r5, r5, #1
 859 0054 05F00705 		and	r5, r5, #7
 860              	.LVL42:
 861              		.loc 1 120 0
 862 0058 00EB8500 		add	r0, r0, r5, lsl #2
 863 005c 9047     		blx	r2
 864              	.LVL43:
 865              		.loc 1 121 0
 866 005e 6368     		ldr	r3, [r4, #4]
 867              		.loc 1 122 0
 868 0060 6570     		strb	r5, [r4, #1]
 869              		.loc 1 121 0
 870 0062 013B     		subs	r3, r3, #1
 871 0064 6360     		str	r3, [r4, #4]
 872 0066 E1E7     		b	.L87
 873              	.LVL44:
 874              	.L94:
 875              	.LBE168:
 876              	.LBE167:
 877              		.loc 1 126 0
 878 0068 FFF7FEFF 		bl	__stack_chk_fail
 879              	.LVL45:
 880              	.L97:
 881              		.align	2
 882              	.L96:
 883 006c 00000000 		.word	.LANCHOR3
 884 0070 00000000 		.word	__stack_chk_guard
 885 0074 00000000 		.word	.LANCHOR1
 886 0078 00000000 		.word	.LANCHOR2
 887              		.cfi_endproc
 888              	.LFE259:
 889              		.size	left_motor_timer_callback, .-left_motor_timer_callback
 890              		.section	.text.Clignotant,"ax",%progbits
 891              		.align	1
 892              		.p2align 4,,15
 893              		.syntax unified
 894              		.thumb
 895              		.thumb_func
 896              		.fpu fpv4-sp-d16
 897              		.type	Clignotant, %function
 898              	Clignotant:
 899              	.LFB275:
 900              		.loc 1 378 0
 901              		.cfi_startproc
 902              		@ args = 0, pretend = 0, frame = 8
 903              		@ frame_needed = 0, uses_anonymous_args = 0
 904              	.LVL46:
 905 0000 2DE9F047 		push	{r4, r5, r6, r7, r8, r9, r10, lr}
 906              		.cfi_def_cfa_offset 32
 907              		.cfi_offset 4, -32
 908              		.cfi_offset 5, -28
 909              		.cfi_offset 6, -24
 910              		.cfi_offset 7, -20
 911              		.cfi_offset 8, -16
 912              		.cfi_offset 9, -12
ARM GAS  /var/folders/j2/t8glr22d56s93xphj_30s8g80000gn/T//cc8l81ic.s 			page 17


 913              		.cfi_offset 10, -8
 914              		.cfi_offset 14, -4
 915              	.LBB185:
 916              	.LBB186:
 917              		.file 2 "../../lib/e-puck2_main-processor/ChibiOS//os/rt/include/chregistry.h"
 918              		.loc 2 135 0
 919 0004 394D     		ldr	r5, .L107
 920              	.LBE186:
 921              	.LBE185:
 922              		.loc 1 378 0
 923 0006 3A4B     		ldr	r3, .L107+4
 924              	.LBB189:
 925              	.LBB187:
 926              		.loc 2 135 0
 927 0008 AA69     		ldr	r2, [r5, #24]
 928 000a 3A49     		ldr	r1, .L107+8
 929              	.LBE187:
 930              	.LBE189:
 931              		.loc 1 378 0
 932 000c 1B68     		ldr	r3, [r3]
 933 000e DFF8E890 		ldr	r9, .L107+12
 934              	.LBB190:
 935              	.LBB191:
 936              	.LBB192:
 937              	.LBB193:
 938              		.file 3 "../../lib/e-puck2_main-processor/ChibiOS//os/rt/include/chsys.h"
 939              		.loc 3 367 0
 940 0012 DFF8E8A0 		ldr	r10, .L107+16
 941              	.LBE193:
 942              	.LBE192:
 943              	.LBE191:
 944              	.LBE190:
 945              	.LBB219:
 946              	.LBB188:
 947              		.loc 2 135 0
 948 0016 9161     		str	r1, [r2, #24]
 949              	.LBE188:
 950              	.LBE219:
 951              		.loc 1 378 0
 952 0018 82B0     		sub	sp, sp, #8
 953              		.cfi_def_cfa_offset 40
 954              	.LBB220:
 955              	.LBB216:
 956              	.LBB202:
 957              	.LBB203:
 958              	.LBB204:
 959              	.LBB205:
 960              	.LBB206:
 961              		.file 4 "../../lib/e-puck2_main-processor/ChibiOS//os/ext/CMSIS/include/core_cmFunc.h"
 962              		.loc 4 546 0
 963 001a 4FF02008 		mov	r8, #32
 964              	.LBE206:
 965              	.LBE205:
 966              	.LBE204:
 967              	.LBE203:
 968              	.LBE202:
 969              	.LBE216:
ARM GAS  /var/folders/j2/t8glr22d56s93xphj_30s8g80000gn/T//cc8l81ic.s 			page 18


 970              	.LBE220:
 971              		.loc 1 378 0
 972 001e 0193     		str	r3, [sp, #4]
 973              	.LVL47:
 974              	.LBB221:
 975              	.LBB217:
 976              	.LBB211:
 977              	.LBB200:
 978              	.LBB194:
 979              	.LBB195:
 980              	.LBB196:
 981              		.loc 4 546 0
 982 0020 0027     		movs	r7, #0
 983 0022 18E0     		b	.L103
 984              	.LVL48:
 985              	.L102:
 986              	.LBE196:
 987              	.LBE195:
 988              	.LBE194:
 989              	.LBE200:
 990              	.LBE211:
 991              	.LBE217:
 992              	.LBE221:
 993              		.loc 1 408 0
 994 0024 FFF7FEFF 		bl	set_rgb_led
 995              	.LVL49:
 996              		.loc 1 409 0
 997 0028 0023     		movs	r3, #0
 998 002a 1A46     		mov	r2, r3
 999 002c 1946     		mov	r1, r3
 1000 002e 0120     		movs	r0, #1
 1001 0030 FFF7FEFF 		bl	set_rgb_led
 1002              	.LVL50:
 1003              		.loc 1 410 0
 1004 0034 0023     		movs	r3, #0
 1005 0036 1A46     		mov	r2, r3
 1006 0038 1946     		mov	r1, r3
 1007 003a 0220     		movs	r0, #2
 1008 003c FFF7FEFF 		bl	set_rgb_led
 1009              	.LVL51:
 1010              		.loc 1 411 0
 1011 0040 0023     		movs	r3, #0
 1012 0042 1A46     		mov	r2, r3
 1013 0044 1946     		mov	r1, r3
 1014 0046 0320     		movs	r0, #3
 1015 0048 FFF7FEFF 		bl	set_rgb_led
 1016              	.LVL52:
 1017              	.L101:
 1018              		.loc 1 416 0
 1019 004c 06F1FA01 		add	r1, r6, #250
 1020 0050 3046     		mov	r0, r6
 1021 0052 FFF7FEFF 		bl	chThdSleepUntilWindowed
 1022              	.LVL53:
 1023              	.L103:
 1024              	.LBB222:
 1025              	.LBB218:
 1026              	.LBB212:
ARM GAS  /var/folders/j2/t8glr22d56s93xphj_30s8g80000gn/T//cc8l81ic.s 			page 19


 1027              	.LBB210:
 1028              	.LBB209:
 1029              	.LBB208:
 1030              	.LBB207:
 1031              		.loc 4 546 0
 1032              		.syntax unified
 1033              	@ 546 "../../lib/e-puck2_main-processor/ChibiOS//os/ext/CMSIS/include/core_cmFunc.h" 1
 1034 0056 88F31188 		MSR basepri, r8
 1035              	@ 0 "" 2
 1036              	.LVL54:
 1037              		.thumb
 1038              		.syntax unified
 1039              	.LBE207:
 1040              	.LBE208:
 1041              	.LBE209:
 1042              		.loc 3 349 0
 1043 005a FFF7FEFF 		bl	_stats_start_measure_crit_thd
 1044              	.LVL55:
 1045              		.loc 3 350 0
 1046 005e FFF7FEFF 		bl	_dbg_check_lock
 1047              	.LVL56:
 1048              	.LBE210:
 1049              	.LBE212:
 1050              	.LBB213:
 1051              	.LBB214:
 1052              		.file 5 "../../lib/e-puck2_main-processor/ChibiOS//os/rt/include/chvt.h"
 1053              		.loc 5 231 0
 1054 0062 AE6A     		ldr	r6, [r5, #40]
 1055              	.LBE214:
 1056              	.LBE213:
 1057              	.LBB215:
 1058              	.LBB201:
 1059              		.loc 3 360 0
 1060 0064 FFF7FEFF 		bl	_dbg_check_unlock
 1061              	.LVL57:
 1062              		.loc 3 361 0
 1063 0068 FFF7FEFF 		bl	_stats_stop_measure_crit_thd
 1064              	.LVL58:
 1065              		.loc 3 367 0
 1066 006c 2B68     		ldr	r3, [r5]
 1067 006e AB42     		cmp	r3, r5
 1068 0070 07D0     		beq	.L99
 1069 0072 AA69     		ldr	r2, [r5, #24]
 1070 0074 9B68     		ldr	r3, [r3, #8]
 1071 0076 9268     		ldr	r2, [r2, #8]
 1072 0078 9A42     		cmp	r2, r3
 1073 007a 02D2     		bcs	.L99
 1074 007c 5046     		mov	r0, r10
 1075 007e FFF7FEFF 		bl	chSysHalt
 1076              	.LVL59:
 1077              	.L99:
 1078              	.LBB199:
 1079              	.LBB198:
 1080              	.LBB197:
 1081              		.loc 4 546 0
 1082              		.syntax unified
 1083              	@ 546 "../../lib/e-puck2_main-processor/ChibiOS//os/ext/CMSIS/include/core_cmFunc.h" 1
ARM GAS  /var/folders/j2/t8glr22d56s93xphj_30s8g80000gn/T//cc8l81ic.s 			page 20


 1084 0082 87F31188 		MSR basepri, r7
 1085              	@ 0 "" 2
 1086              	.LVL60:
 1087              		.thumb
 1088              		.syntax unified
 1089              	.LBE197:
 1090              	.LBE198:
 1091              	.LBE199:
 1092              	.LBE201:
 1093              	.LBE215:
 1094              	.LBE218:
 1095              	.LBE222:
 1096              		.loc 1 388 0
 1097 0086 D9F80040 		ldr	r4, [r9]
 1098              		.loc 1 408 0
 1099 008a 0023     		movs	r3, #0
 1100              		.loc 1 388 0
 1101 008c 012C     		cmp	r4, #1
 1102              		.loc 1 408 0
 1103 008e 1A46     		mov	r2, r3
 1104 0090 1946     		mov	r1, r3
 1105 0092 1846     		mov	r0, r3
 1106              		.loc 1 388 0
 1107 0094 16D0     		beq	.L106
 1108              		.loc 1 397 0
 1109 0096 022C     		cmp	r4, #2
 1110 0098 C4D1     		bne	.L102
 1111              		.loc 1 399 0
 1112 009a 2046     		mov	r0, r4
 1113 009c FF22     		movs	r2, #255
 1114 009e 0021     		movs	r1, #0
 1115 00a0 FFF7FEFF 		bl	toggle_rgb_led
 1116              	.LVL61:
 1117              		.loc 1 400 0
 1118 00a4 2046     		mov	r0, r4
 1119 00a6 A522     		movs	r2, #165
 1120 00a8 0121     		movs	r1, #1
 1121 00aa FFF7FEFF 		bl	toggle_rgb_led
 1122              	.LVL62:
 1123              		.loc 1 403 0
 1124 00ae FF22     		movs	r2, #255
 1125 00b0 0021     		movs	r1, #0
 1126 00b2 0320     		movs	r0, #3
 1127 00b4 FFF7FEFF 		bl	toggle_rgb_led
 1128              	.LVL63:
 1129              		.loc 1 404 0
 1130 00b8 A522     		movs	r2, #165
 1131 00ba 0121     		movs	r1, #1
 1132 00bc 0320     		movs	r0, #3
 1133 00be FFF7FEFF 		bl	toggle_rgb_led
 1134              	.LVL64:
 1135 00c2 C3E7     		b	.L101
 1136              	.L106:
 1137              		.loc 1 390 0
 1138 00c4 2046     		mov	r0, r4
 1139 00c6 FF22     		movs	r2, #255
 1140 00c8 FFF7FEFF 		bl	toggle_rgb_led
ARM GAS  /var/folders/j2/t8glr22d56s93xphj_30s8g80000gn/T//cc8l81ic.s 			page 21


 1141              	.LVL65:
 1142              		.loc 1 391 0
 1143 00cc 2146     		mov	r1, r4
 1144 00ce 2046     		mov	r0, r4
 1145 00d0 A522     		movs	r2, #165
 1146 00d2 FFF7FEFF 		bl	toggle_rgb_led
 1147              	.LVL66:
 1148              		.loc 1 394 0
 1149 00d6 0021     		movs	r1, #0
 1150 00d8 0846     		mov	r0, r1
 1151 00da FF22     		movs	r2, #255
 1152 00dc FFF7FEFF 		bl	toggle_rgb_led
 1153              	.LVL67:
 1154              		.loc 1 395 0
 1155 00e0 2146     		mov	r1, r4
 1156 00e2 A522     		movs	r2, #165
 1157 00e4 0020     		movs	r0, #0
 1158 00e6 FFF7FEFF 		bl	toggle_rgb_led
 1159              	.LVL68:
 1160 00ea AFE7     		b	.L101
 1161              	.L108:
 1162              		.align	2
 1163              	.L107:
 1164 00ec 00000000 		.word	ch
 1165 00f0 00000000 		.word	__stack_chk_guard
 1166 00f4 00000000 		.word	.LANCHOR4
 1167 00f8 00000000 		.word	.LANCHOR6
 1168 00fc 00000000 		.word	.LANCHOR5
 1169              		.cfi_endproc
 1170              	.LFE275:
 1171              		.size	Clignotant, .-Clignotant
 1172              		.section	.text.motor_set_speed,"ax",%progbits
 1173              		.align	1
 1174              		.p2align 4,,15
 1175              		.global	motor_set_speed
 1176              		.syntax unified
 1177              		.thumb
 1178              		.thumb_func
 1179              		.fpu fpv4-sp-d16
 1180              		.type	motor_set_speed, %function
 1181              	motor_set_speed:
 1182              	.LFB266:
 1183              		.loc 1 199 0
 1184              		.cfi_startproc
 1185              		@ args = 0, pretend = 0, frame = 16
 1186              		@ frame_needed = 0, uses_anonymous_args = 0
 1187              	.LVL69:
 1188 0000 30B5     		push	{r4, r5, lr}
 1189              		.cfi_def_cfa_offset 12
 1190              		.cfi_offset 4, -12
 1191              		.cfi_offset 5, -8
 1192              		.cfi_offset 14, -4
 1193 0002 1F4D     		ldr	r5, .L121
 1194 0004 85B0     		sub	sp, sp, #20
 1195              		.cfi_def_cfa_offset 32
 1196              		.loc 1 199 0
 1197 0006 2B68     		ldr	r3, [r5]
ARM GAS  /var/folders/j2/t8glr22d56s93xphj_30s8g80000gn/T//cc8l81ic.s 			page 22


 1198 0008 0393     		str	r3, [sp, #12]
 1199              		.loc 1 201 0
 1200 000a 40F24C43 		movw	r3, #1100
 1201 000e 9942     		cmp	r1, r3
 1202              		.loc 1 199 0
 1203 0010 0446     		mov	r4, r0
 1204              		.loc 1 201 0
 1205 0012 26DC     		bgt	.L110
 1206              		.loc 1 203 0
 1207 0014 A3F69803 		subw	r3, r3, #2200
 1208 0018 9942     		cmp	r1, r3
 1209 001a 11DB     		blt	.L118
 1210              		.loc 1 208 0
 1211 001c 4B00     		lsls	r3, r1, #1
 1212              	.LVL70:
 1213              		.loc 1 211 0
 1214 001e 002B     		cmp	r3, #0
 1215 0020 29D1     		bne	.L112
 1216              		.loc 1 212 0
 1217 0022 0370     		strb	r3, [r0]
 1218              	.LVL71:
 1219              		.loc 1 215 0
 1220 0024 0369     		ldr	r3, [r0, #16]
 1221              	.LVL72:
 1222 0026 9847     		blx	r3
 1223              	.LVL73:
 1224 0028 4FF47A71 		mov	r1, #1000
 1225              	.LVL74:
 1226              	.L113:
 1227              		.loc 1 233 0
 1228 002c 039A     		ldr	r2, [sp, #12]
 1229 002e 2B68     		ldr	r3, [r5]
 1230 0030 9A42     		cmp	r2, r3
 1231 0032 1ED1     		bne	.L120
 1232 0034 6069     		ldr	r0, [r4, #20]
 1233              		.loc 1 234 0
 1234 0036 05B0     		add	sp, sp, #20
 1235              		.cfi_remember_state
 1236              		.cfi_def_cfa_offset 12
 1237              		@ sp needed
 1238 0038 BDE83040 		pop	{r4, r5, lr}
 1239              		.cfi_restore 14
 1240              		.cfi_restore 5
 1241              		.cfi_restore 4
 1242              		.cfi_def_cfa_offset 0
 1243              	.LVL75:
 1244              		.loc 1 233 0
 1245 003c FFF7FEBF 		b	pwmChangePeriod
 1246              	.LVL76:
 1247              	.L118:
 1248              		.cfi_restore_state
 1249 0040 104B     		ldr	r3, .L121+4
 1250              	.LVL77:
 1251              	.L111:
 1252              		.loc 1 220 0
 1253 0042 0222     		movs	r2, #2
 1254              		.loc 1 221 0
ARM GAS  /var/folders/j2/t8glr22d56s93xphj_30s8g80000gn/T//cc8l81ic.s 			page 23


 1255 0044 5B42     		negs	r3, r3
 1256              	.LVL78:
 1257              		.loc 1 220 0
 1258 0046 2270     		strb	r2, [r4]
 1259              	.L114:
 1260              	.LVL79:
 1261              		.loc 1 225 0
 1262 0048 40F28922 		movw	r2, #649
 1263 004c 9342     		cmp	r3, r2
 1264              		.loc 1 223 0
 1265 004e 0E49     		ldr	r1, .L121+8
 1266 0050 91FBF3F1 		sdiv	r1, r1, r3
 1267 0054 89B2     		uxth	r1, r1
 1268              		.loc 1 225 0
 1269 0056 07DC     		bgt	.L115
 1270 0058 0191     		str	r1, [sp, #4]
 1271              		.loc 1 226 0
 1272 005a E368     		ldr	r3, [r4, #12]
 1273              	.LVL80:
 1274 005c 9847     		blx	r3
 1275              	.LVL81:
 1276 005e 0199     		ldr	r1, [sp, #4]
 1277 0060 E4E7     		b	.L113
 1278              	.LVL82:
 1279              	.L110:
 1280              		.loc 1 218 0
 1281 0062 0123     		movs	r3, #1
 1282 0064 0370     		strb	r3, [r0]
 1283              	.LVL83:
 1284 0066 2D21     		movs	r1, #45
 1285              	.LVL84:
 1286              	.L115:
 1287 0068 0191     		str	r1, [sp, #4]
 1288              		.loc 1 228 0
 1289 006a 2369     		ldr	r3, [r4, #16]
 1290 006c 9847     		blx	r3
 1291              	.LVL85:
 1292 006e 0199     		ldr	r1, [sp, #4]
 1293 0070 DCE7     		b	.L113
 1294              	.L120:
 1295              		.loc 1 233 0
 1296 0072 FFF7FEFF 		bl	__stack_chk_fail
 1297              	.LVL86:
 1298              	.L112:
 1299              		.loc 1 217 0
 1300 0076 E4DD     		ble	.L111
 1301              		.loc 1 218 0
 1302 0078 0122     		movs	r2, #1
 1303 007a 0270     		strb	r2, [r0]
 1304 007c E4E7     		b	.L114
 1305              	.L122:
 1306 007e 00BF     		.align	2
 1307              	.L121:
 1308 0080 00000000 		.word	__stack_chk_guard
 1309 0084 68F7FFFF 		.word	-2200
 1310 0088 A0860100 		.word	100000
 1311              		.cfi_endproc
ARM GAS  /var/folders/j2/t8glr22d56s93xphj_30s8g80000gn/T//cc8l81ic.s 			page 24


 1312              	.LFE266:
 1313              		.size	motor_set_speed, .-motor_set_speed
 1314              		.section	.text.Depassement,"ax",%progbits
 1315              		.align	1
 1316              		.p2align 4,,15
 1317              		.syntax unified
 1318              		.thumb
 1319              		.thumb_func
 1320              		.fpu fpv4-sp-d16
 1321              		.type	Depassement, %function
 1322              	Depassement:
 1323              	.LFB276:
 1324              		.loc 1 423 0
 1325              		.cfi_startproc
 1326              		@ args = 0, pretend = 0, frame = 8
 1327              		@ frame_needed = 0, uses_anonymous_args = 0
 1328              	.LVL87:
 1329 0000 2DE9F04F 		push	{r4, r5, r6, r7, r8, r9, r10, fp, lr}
 1330              		.cfi_def_cfa_offset 36
 1331              		.cfi_offset 4, -36
 1332              		.cfi_offset 5, -32
 1333              		.cfi_offset 6, -28
 1334              		.cfi_offset 7, -24
 1335              		.cfi_offset 8, -20
 1336              		.cfi_offset 9, -16
 1337              		.cfi_offset 10, -12
 1338              		.cfi_offset 11, -8
 1339              		.cfi_offset 14, -4
 1340              	.LBB303:
 1341              	.LBB304:
 1342              		.loc 2 135 0
 1343 0004 8A4C     		ldr	r4, .L136
 1344              	.LBE304:
 1345              	.LBE303:
 1346              		.loc 1 423 0
 1347 0006 8B4B     		ldr	r3, .L136+4
 1348              	.LBB307:
 1349              	.LBB305:
 1350              		.loc 2 135 0
 1351 0008 A269     		ldr	r2, [r4, #24]
 1352 000a 8B49     		ldr	r1, .L136+8
 1353              	.LBE305:
 1354              	.LBE307:
 1355              		.loc 1 423 0
 1356 000c 1B68     		ldr	r3, [r3]
 1357 000e DFF83892 		ldr	r9, .L136+24
 1358 0012 DFF838A2 		ldr	r10, .L136+28
 1359              	.LBB308:
 1360              	.LBB306:
 1361              		.loc 2 135 0
 1362 0016 9161     		str	r1, [r2, #24]
 1363              	.LBE306:
 1364              	.LBE308:
 1365              		.loc 1 423 0
 1366 0018 83B0     		sub	sp, sp, #12
 1367              		.cfi_def_cfa_offset 48
 1368              	.LBB309:
ARM GAS  /var/folders/j2/t8glr22d56s93xphj_30s8g80000gn/T//cc8l81ic.s 			page 25


 1369              	.LBB310:
 1370              		.loc 1 242 0
 1371 001a DFF83482 		ldr	r8, .L136+32
 1372              	.LBE310:
 1373              	.LBE309:
 1374              	.LBB313:
 1375              	.LBB314:
 1376              		.loc 1 246 0
 1377 001e 874F     		ldr	r7, .L136+12
 1378              	.LBE314:
 1379              	.LBE313:
 1380              		.loc 1 423 0
 1381 0020 0193     		str	r3, [sp, #4]
 1382              	.LVL88:
 1383 0022 09E0     		b	.L130
 1384              	.LVL89:
 1385              	.L135:
 1386              		.loc 1 435 0
 1387 0024 D9F800B0 		ldr	fp, [r9]
 1388 0028 BBF1010F 		cmp	fp, #1
 1389 002c 2CD0     		beq	.L134
 1390              	.L129:
 1391              		.loc 1 507 0
 1392 002e 06F10A01 		add	r1, r6, #10
 1393 0032 3046     		mov	r0, r6
 1394 0034 FFF7FEFF 		bl	chThdSleepUntilWindowed
 1395              	.LVL90:
 1396              	.L130:
 1397              	.LBB316:
 1398              	.LBB317:
 1399              	.LBB318:
 1400              	.LBB319:
 1401              	.LBB320:
 1402              	.LBB321:
 1403              	.LBB322:
 1404              		.loc 4 546 0
 1405 0038 2023     		movs	r3, #32
 1406              		.syntax unified
 1407              	@ 546 "../../lib/e-puck2_main-processor/ChibiOS//os/ext/CMSIS/include/core_cmFunc.h" 1
 1408 003a 83F31188 		MSR basepri, r3
 1409              	@ 0 "" 2
 1410              	.LVL91:
 1411              		.thumb
 1412              		.syntax unified
 1413              	.LBE322:
 1414              	.LBE321:
 1415              	.LBE320:
 1416              		.loc 3 349 0
 1417 003e FFF7FEFF 		bl	_stats_start_measure_crit_thd
 1418              	.LVL92:
 1419              		.loc 3 350 0
 1420 0042 FFF7FEFF 		bl	_dbg_check_lock
 1421              	.LVL93:
 1422              	.LBE319:
 1423              	.LBE318:
 1424              	.LBB323:
 1425              	.LBB324:
ARM GAS  /var/folders/j2/t8glr22d56s93xphj_30s8g80000gn/T//cc8l81ic.s 			page 26


 1426              		.loc 5 231 0
 1427 0046 A66A     		ldr	r6, [r4, #40]
 1428              	.LBE324:
 1429              	.LBE323:
 1430              	.LBB325:
 1431              	.LBB326:
 1432              		.loc 3 360 0
 1433 0048 FFF7FEFF 		bl	_dbg_check_unlock
 1434              	.LVL94:
 1435              		.loc 3 361 0
 1436 004c FFF7FEFF 		bl	_stats_stop_measure_crit_thd
 1437              	.LVL95:
 1438              		.loc 3 367 0
 1439 0050 2368     		ldr	r3, [r4]
 1440 0052 A342     		cmp	r3, r4
 1441 0054 07D0     		beq	.L124
 1442 0056 A269     		ldr	r2, [r4, #24]
 1443 0058 9B68     		ldr	r3, [r3, #8]
 1444 005a 9268     		ldr	r2, [r2, #8]
 1445 005c 9A42     		cmp	r2, r3
 1446 005e 02D2     		bcs	.L124
 1447 0060 7748     		ldr	r0, .L136+16
 1448 0062 FFF7FEFF 		bl	chSysHalt
 1449              	.LVL96:
 1450              	.L124:
 1451              	.LBB327:
 1452              	.LBB328:
 1453              	.LBB329:
 1454              		.loc 4 546 0
 1455 0066 0020     		movs	r0, #0
 1456              		.syntax unified
 1457              	@ 546 "../../lib/e-puck2_main-processor/ChibiOS//os/ext/CMSIS/include/core_cmFunc.h" 1
 1458 0068 80F31188 		MSR basepri, r0
 1459              	@ 0 "" 2
 1460              	.LVL97:
 1461              		.thumb
 1462              		.syntax unified
 1463              	.LBE329:
 1464              	.LBE328:
 1465              	.LBE327:
 1466              	.LBE326:
 1467              	.LBE325:
 1468              	.LBE317:
 1469              	.LBE316:
 1470              		.loc 1 435 0
 1471 006c FFF7FEFF 		bl	get_calibrated_prox
 1472              	.LVL98:
 1473 0070 C728     		cmp	r0, #199
 1474 0072 D7DC     		bgt	.L135
 1475              		.loc 1 435 0 is_stmt 0 discriminator 2
 1476 0074 0720     		movs	r0, #7
 1477 0076 FFF7FEFF 		bl	get_calibrated_prox
 1478              	.LVL99:
 1479 007a C728     		cmp	r0, #199
 1480 007c D7DD     		ble	.L129
 1481              		.loc 1 435 0
 1482 007e D9F800B0 		ldr	fp, [r9]
ARM GAS  /var/folders/j2/t8glr22d56s93xphj_30s8g80000gn/T//cc8l81ic.s 			page 27


 1483 0082 BBF1010F 		cmp	fp, #1
 1484 0086 D2D1     		bne	.L129
 1485              	.L134:
 1486              		.loc 1 437 0 is_stmt 1
 1487 0088 0025     		movs	r5, #0
 1488              	.LBB330:
 1489              	.LBB311:
 1490              		.loc 1 242 0
 1491 008a 2946     		mov	r1, r5
 1492 008c 4046     		mov	r0, r8
 1493              	.LBE311:
 1494              	.LBE330:
 1495              		.loc 1 437 0
 1496 008e C9F80050 		str	r5, [r9]
 1497              	.LVL100:
 1498              	.LBB331:
 1499              	.LBB312:
 1500              		.loc 1 242 0
 1501 0092 FFF7FEFF 		bl	motor_set_speed
 1502              	.LVL101:
 1503              	.LBE312:
 1504              	.LBE331:
 1505              	.LBB332:
 1506              	.LBB315:
 1507              		.loc 1 246 0
 1508 0096 2946     		mov	r1, r5
 1509 0098 3846     		mov	r0, r7
 1510 009a FFF7FEFF 		bl	motor_set_speed
 1511              	.LVL102:
 1512              	.LBE315:
 1513              	.LBE332:
 1514              		.loc 1 441 0
 1515 009e 0222     		movs	r2, #2
 1516              		.loc 1 442 0
 1517 00a0 4FF4FA70 		mov	r0, #500
 1518              		.loc 1 441 0
 1519 00a4 CAF80020 		str	r2, [r10]
 1520              		.loc 1 442 0
 1521 00a8 FFF7FEFF 		bl	chThdSleep
 1522              	.LVL103:
 1523              	.LBB333:
 1524              	.LBB334:
 1525              		.loc 1 242 0
 1526 00ac 2946     		mov	r1, r5
 1527 00ae 4046     		mov	r0, r8
 1528 00b0 FFF7FEFF 		bl	motor_set_speed
 1529              	.LVL104:
 1530              	.LBE334:
 1531              	.LBE333:
 1532              	.LBB335:
 1533              	.LBB336:
 1534              		.loc 1 246 0
 1535 00b4 2946     		mov	r1, r5
 1536 00b6 3846     		mov	r0, r7
 1537 00b8 FFF7FEFF 		bl	motor_set_speed
 1538              	.LVL105:
 1539              	.LBE336:
ARM GAS  /var/folders/j2/t8glr22d56s93xphj_30s8g80000gn/T//cc8l81ic.s 			page 28


 1540              	.LBE335:
 1541              		.loc 1 446 0
 1542 00bc 0A20     		movs	r0, #10
 1543 00be FFF7FEFF 		bl	chThdSleep
 1544              	.LVL106:
 1545              	.LBB337:
 1546              	.LBB338:
 1547              		.loc 1 242 0
 1548 00c2 6049     		ldr	r1, .L136+20
 1549 00c4 4046     		mov	r0, r8
 1550 00c6 FFF7FEFF 		bl	motor_set_speed
 1551              	.LVL107:
 1552              	.LBE338:
 1553              	.LBE337:
 1554              	.LBB339:
 1555              	.LBB340:
 1556              		.loc 1 246 0
 1557 00ca 4FF47A71 		mov	r1, #1000
 1558 00ce 3846     		mov	r0, r7
 1559 00d0 FFF7FEFF 		bl	motor_set_speed
 1560              	.LVL108:
 1561              	.LBE340:
 1562              	.LBE339:
 1563              		.loc 1 449 0
 1564 00d4 40F24510 		movw	r0, #325
 1565 00d8 FFF7FEFF 		bl	chThdSleep
 1566              	.LVL109:
 1567              	.LBB341:
 1568              	.LBB342:
 1569              		.loc 1 242 0
 1570 00dc 2946     		mov	r1, r5
 1571 00de 4046     		mov	r0, r8
 1572 00e0 FFF7FEFF 		bl	motor_set_speed
 1573              	.LVL110:
 1574              	.LBE342:
 1575              	.LBE341:
 1576              	.LBB343:
 1577              	.LBB344:
 1578              		.loc 1 246 0
 1579 00e4 2946     		mov	r1, r5
 1580 00e6 3846     		mov	r0, r7
 1581 00e8 FFF7FEFF 		bl	motor_set_speed
 1582              	.LVL111:
 1583              	.LBE344:
 1584              	.LBE343:
 1585              		.loc 1 453 0
 1586 00ec 0A20     		movs	r0, #10
 1587 00ee FFF7FEFF 		bl	chThdSleep
 1588              	.LVL112:
 1589              	.LBB345:
 1590              	.LBB346:
 1591              		.loc 1 242 0
 1592 00f2 4FF47A71 		mov	r1, #1000
 1593 00f6 4046     		mov	r0, r8
 1594 00f8 FFF7FEFF 		bl	motor_set_speed
 1595              	.LVL113:
 1596              	.LBE346:
ARM GAS  /var/folders/j2/t8glr22d56s93xphj_30s8g80000gn/T//cc8l81ic.s 			page 29


 1597              	.LBE345:
 1598              	.LBB347:
 1599              	.LBB348:
 1600              		.loc 1 246 0
 1601 00fc 4FF47A71 		mov	r1, #1000
 1602 0100 3846     		mov	r0, r7
 1603 0102 FFF7FEFF 		bl	motor_set_speed
 1604              	.LVL114:
 1605              	.LBE348:
 1606              	.LBE347:
 1607              		.loc 1 456 0
 1608 0106 40F2EE20 		movw	r0, #750
 1609 010a FFF7FEFF 		bl	chThdSleep
 1610              	.LVL115:
 1611              	.LBB349:
 1612              	.LBB350:
 1613              		.loc 1 242 0
 1614 010e 2946     		mov	r1, r5
 1615 0110 4046     		mov	r0, r8
 1616 0112 FFF7FEFF 		bl	motor_set_speed
 1617              	.LVL116:
 1618              	.LBE350:
 1619              	.LBE349:
 1620              	.LBB351:
 1621              	.LBB352:
 1622              		.loc 1 246 0
 1623 0116 2946     		mov	r1, r5
 1624 0118 3846     		mov	r0, r7
 1625 011a FFF7FEFF 		bl	motor_set_speed
 1626              	.LVL117:
 1627              	.LBE352:
 1628              	.LBE351:
 1629              		.loc 1 461 0
 1630 011e 0A20     		movs	r0, #10
 1631 0120 FFF7FEFF 		bl	chThdSleep
 1632              	.LVL118:
 1633              	.LBB353:
 1634              	.LBB354:
 1635              		.loc 1 242 0
 1636 0124 4FF47A71 		mov	r1, #1000
 1637 0128 4046     		mov	r0, r8
 1638 012a FFF7FEFF 		bl	motor_set_speed
 1639              	.LVL119:
 1640              	.LBE354:
 1641              	.LBE353:
 1642              	.LBB355:
 1643              	.LBB356:
 1644              		.loc 1 246 0
 1645 012e 4549     		ldr	r1, .L136+20
 1646 0130 3846     		mov	r0, r7
 1647 0132 FFF7FEFF 		bl	motor_set_speed
 1648              	.LVL120:
 1649              	.LBE356:
 1650              	.LBE355:
 1651              		.loc 1 464 0
 1652 0136 40F24510 		movw	r0, #325
 1653 013a FFF7FEFF 		bl	chThdSleep
ARM GAS  /var/folders/j2/t8glr22d56s93xphj_30s8g80000gn/T//cc8l81ic.s 			page 30


 1654              	.LVL121:
 1655              	.LBB357:
 1656              	.LBB358:
 1657              		.loc 1 242 0
 1658 013e 2946     		mov	r1, r5
 1659 0140 4046     		mov	r0, r8
 1660              	.LBE358:
 1661              	.LBE357:
 1662              		.loc 1 465 0
 1663 0142 CAF80050 		str	r5, [r10]
 1664              	.LVL122:
 1665              	.LBB360:
 1666              	.LBB359:
 1667              		.loc 1 242 0
 1668 0146 FFF7FEFF 		bl	motor_set_speed
 1669              	.LVL123:
 1670              	.LBE359:
 1671              	.LBE360:
 1672              	.LBB361:
 1673              	.LBB362:
 1674              		.loc 1 246 0
 1675 014a 2946     		mov	r1, r5
 1676 014c 3846     		mov	r0, r7
 1677 014e FFF7FEFF 		bl	motor_set_speed
 1678              	.LVL124:
 1679              	.LBE362:
 1680              	.LBE361:
 1681              		.loc 1 469 0
 1682 0152 0A20     		movs	r0, #10
 1683 0154 FFF7FEFF 		bl	chThdSleep
 1684              	.LVL125:
 1685              	.LBB363:
 1686              	.LBB364:
 1687              		.loc 1 242 0
 1688 0158 4FF47A71 		mov	r1, #1000
 1689 015c 4046     		mov	r0, r8
 1690 015e FFF7FEFF 		bl	motor_set_speed
 1691              	.LVL126:
 1692              	.LBE364:
 1693              	.LBE363:
 1694              	.LBB365:
 1695              	.LBB366:
 1696              		.loc 1 246 0
 1697 0162 4FF47A71 		mov	r1, #1000
 1698 0166 3846     		mov	r0, r7
 1699 0168 FFF7FEFF 		bl	motor_set_speed
 1700              	.LVL127:
 1701              	.LBE366:
 1702              	.LBE365:
 1703              		.loc 1 472 0
 1704 016c 40F2DC50 		movw	r0, #1500
 1705 0170 FFF7FEFF 		bl	chThdSleep
 1706              	.LVL128:
 1707              	.LBB367:
 1708              	.LBB368:
 1709              		.loc 1 242 0
 1710 0174 4FF47A71 		mov	r1, #1000
ARM GAS  /var/folders/j2/t8glr22d56s93xphj_30s8g80000gn/T//cc8l81ic.s 			page 31


 1711 0178 4046     		mov	r0, r8
 1712              	.LBE368:
 1713              	.LBE367:
 1714              		.loc 1 473 0
 1715 017a CAF800B0 		str	fp, [r10]
 1716              	.LVL129:
 1717              	.LBB370:
 1718              	.LBB369:
 1719              		.loc 1 242 0
 1720 017e FFF7FEFF 		bl	motor_set_speed
 1721              	.LVL130:
 1722              	.LBE369:
 1723              	.LBE370:
 1724              	.LBB371:
 1725              	.LBB372:
 1726              		.loc 1 246 0
 1727 0182 4FF47A71 		mov	r1, #1000
 1728 0186 3846     		mov	r0, r7
 1729 0188 FFF7FEFF 		bl	motor_set_speed
 1730              	.LVL131:
 1731              	.LBE372:
 1732              	.LBE371:
 1733              		.loc 1 476 0
 1734 018c 4FF47A70 		mov	r0, #1000
 1735 0190 FFF7FEFF 		bl	chThdSleep
 1736              	.LVL132:
 1737              	.LBB373:
 1738              	.LBB374:
 1739              		.loc 1 242 0
 1740 0194 2946     		mov	r1, r5
 1741 0196 4046     		mov	r0, r8
 1742 0198 FFF7FEFF 		bl	motor_set_speed
 1743              	.LVL133:
 1744              	.LBE374:
 1745              	.LBE373:
 1746              	.LBB375:
 1747              	.LBB376:
 1748              		.loc 1 246 0
 1749 019c 2946     		mov	r1, r5
 1750 019e 3846     		mov	r0, r7
 1751 01a0 FFF7FEFF 		bl	motor_set_speed
 1752              	.LVL134:
 1753              	.LBE376:
 1754              	.LBE375:
 1755              		.loc 1 481 0
 1756 01a4 0A20     		movs	r0, #10
 1757 01a6 FFF7FEFF 		bl	chThdSleep
 1758              	.LVL135:
 1759              	.LBB377:
 1760              	.LBB378:
 1761              		.loc 1 242 0
 1762 01aa 4FF47A71 		mov	r1, #1000
 1763 01ae 4046     		mov	r0, r8
 1764 01b0 FFF7FEFF 		bl	motor_set_speed
 1765              	.LVL136:
 1766              	.LBE378:
 1767              	.LBE377:
ARM GAS  /var/folders/j2/t8glr22d56s93xphj_30s8g80000gn/T//cc8l81ic.s 			page 32


 1768              	.LBB379:
 1769              	.LBB380:
 1770              		.loc 1 246 0
 1771 01b4 2349     		ldr	r1, .L136+20
 1772 01b6 3846     		mov	r0, r7
 1773 01b8 FFF7FEFF 		bl	motor_set_speed
 1774              	.LVL137:
 1775              	.LBE380:
 1776              	.LBE379:
 1777              		.loc 1 484 0
 1778 01bc 40F24510 		movw	r0, #325
 1779 01c0 FFF7FEFF 		bl	chThdSleep
 1780              	.LVL138:
 1781              	.LBB381:
 1782              	.LBB382:
 1783              		.loc 1 242 0
 1784 01c4 2946     		mov	r1, r5
 1785 01c6 4046     		mov	r0, r8
 1786 01c8 FFF7FEFF 		bl	motor_set_speed
 1787              	.LVL139:
 1788              	.LBE382:
 1789              	.LBE381:
 1790              	.LBB383:
 1791              	.LBB384:
 1792              		.loc 1 246 0
 1793 01cc 2946     		mov	r1, r5
 1794 01ce 3846     		mov	r0, r7
 1795 01d0 FFF7FEFF 		bl	motor_set_speed
 1796              	.LVL140:
 1797              	.LBE384:
 1798              	.LBE383:
 1799              		.loc 1 489 0
 1800 01d4 0A20     		movs	r0, #10
 1801 01d6 FFF7FEFF 		bl	chThdSleep
 1802              	.LVL141:
 1803              	.LBB385:
 1804              	.LBB386:
 1805              		.loc 1 242 0
 1806 01da 4FF47A71 		mov	r1, #1000
 1807 01de 4046     		mov	r0, r8
 1808 01e0 FFF7FEFF 		bl	motor_set_speed
 1809              	.LVL142:
 1810              	.LBE386:
 1811              	.LBE385:
 1812              	.LBB387:
 1813              	.LBB388:
 1814              		.loc 1 246 0
 1815 01e4 4FF47A71 		mov	r1, #1000
 1816 01e8 3846     		mov	r0, r7
 1817 01ea FFF7FEFF 		bl	motor_set_speed
 1818              	.LVL143:
 1819              	.LBE388:
 1820              	.LBE387:
 1821              		.loc 1 492 0
 1822 01ee 40F2EE20 		movw	r0, #750
 1823 01f2 FFF7FEFF 		bl	chThdSleep
 1824              	.LVL144:
ARM GAS  /var/folders/j2/t8glr22d56s93xphj_30s8g80000gn/T//cc8l81ic.s 			page 33


 1825              	.LBB389:
 1826              	.LBB390:
 1827              		.loc 1 242 0
 1828 01f6 2946     		mov	r1, r5
 1829 01f8 4046     		mov	r0, r8
 1830 01fa FFF7FEFF 		bl	motor_set_speed
 1831              	.LVL145:
 1832              	.LBE390:
 1833              	.LBE389:
 1834              	.LBB391:
 1835              	.LBB392:
 1836              		.loc 1 246 0
 1837 01fe 2946     		mov	r1, r5
 1838 0200 3846     		mov	r0, r7
 1839 0202 FFF7FEFF 		bl	motor_set_speed
 1840              	.LVL146:
 1841              	.LBE392:
 1842              	.LBE391:
 1843              		.loc 1 496 0
 1844 0206 0A20     		movs	r0, #10
 1845 0208 FFF7FEFF 		bl	chThdSleep
 1846              	.LVL147:
 1847              	.LBB393:
 1848              	.LBB394:
 1849              		.loc 1 242 0
 1850 020c 0D49     		ldr	r1, .L136+20
 1851 020e 4046     		mov	r0, r8
 1852 0210 FFF7FEFF 		bl	motor_set_speed
 1853              	.LVL148:
 1854              	.LBE394:
 1855              	.LBE393:
 1856              	.LBB395:
 1857              	.LBB396:
 1858              		.loc 1 246 0
 1859 0214 4FF47A71 		mov	r1, #1000
 1860 0218 3846     		mov	r0, r7
 1861 021a FFF7FEFF 		bl	motor_set_speed
 1862              	.LVL149:
 1863              	.LBE396:
 1864              	.LBE395:
 1865              		.loc 1 499 0
 1866 021e 40F24510 		movw	r0, #325
 1867 0222 FFF7FEFF 		bl	chThdSleep
 1868              	.LVL150:
 1869              		.loc 1 500 0
 1870 0226 CAF80050 		str	r5, [r10]
 1871              		.loc 1 502 0
 1872 022a C9F800B0 		str	fp, [r9]
 1873 022e FEE6     		b	.L129
 1874              	.L137:
 1875              		.align	2
 1876              	.L136:
 1877 0230 00000000 		.word	ch
 1878 0234 00000000 		.word	__stack_chk_guard
 1879 0238 00000000 		.word	.LANCHOR7
 1880 023c 00000000 		.word	.LANCHOR0
 1881 0240 00000000 		.word	.LANCHOR5
ARM GAS  /var/folders/j2/t8glr22d56s93xphj_30s8g80000gn/T//cc8l81ic.s 			page 34


 1882 0244 18FCFFFF 		.word	-1000
 1883 0248 00000000 		.word	.LANCHOR8
 1884 024c 00000000 		.word	.LANCHOR6
 1885 0250 00000000 		.word	.LANCHOR3
 1886              		.cfi_endproc
 1887              	.LFE276:
 1888              		.size	Depassement, .-Depassement
 1889              		.section	.text.Deplacement,"ax",%progbits
 1890              		.align	1
 1891              		.p2align 4,,15
 1892              		.syntax unified
 1893              		.thumb
 1894              		.thumb_func
 1895              		.fpu fpv4-sp-d16
 1896              		.type	Deplacement, %function
 1897              	Deplacement:
 1898              	.LFB277:
 1899              		.loc 1 513 0
 1900              		.cfi_startproc
 1901              		@ args = 0, pretend = 0, frame = 8
 1902              		@ frame_needed = 0, uses_anonymous_args = 0
 1903              	.LVL151:
 1904 0000 2DE9F043 		push	{r4, r5, r6, r7, r8, r9, lr}
 1905              		.cfi_def_cfa_offset 28
 1906              		.cfi_offset 4, -28
 1907              		.cfi_offset 5, -24
 1908              		.cfi_offset 6, -20
 1909              		.cfi_offset 7, -16
 1910              		.cfi_offset 8, -12
 1911              		.cfi_offset 9, -8
 1912              		.cfi_offset 14, -4
 1913              	.LBB417:
 1914              	.LBB418:
 1915              		.loc 2 135 0
 1916 0004 224C     		ldr	r4, .L150
 1917              	.LBE418:
 1918              	.LBE417:
 1919              		.loc 1 513 0
 1920 0006 234B     		ldr	r3, .L150+4
 1921              	.LBB421:
 1922              	.LBB419:
 1923              		.loc 2 135 0
 1924 0008 A269     		ldr	r2, [r4, #24]
 1925 000a 2349     		ldr	r1, .L150+8
 1926              	.LBE419:
 1927              	.LBE421:
 1928              		.loc 1 513 0
 1929 000c 1B68     		ldr	r3, [r3]
 1930 000e 234E     		ldr	r6, .L150+12
 1931              	.LBB422:
 1932              	.LBB423:
 1933              	.LBB424:
 1934              	.LBB425:
 1935              		.loc 3 367 0
 1936 0010 DFF89090 		ldr	r9, .L150+20
 1937              	.LBE425:
 1938              	.LBE424:
ARM GAS  /var/folders/j2/t8glr22d56s93xphj_30s8g80000gn/T//cc8l81ic.s 			page 35


 1939              	.LBE423:
 1940              	.LBE422:
 1941              	.LBB439:
 1942              	.LBB420:
 1943              		.loc 2 135 0
 1944 0014 9161     		str	r1, [r2, #24]
 1945              	.LBE420:
 1946              	.LBE439:
 1947              		.loc 1 513 0
 1948 0016 83B0     		sub	sp, sp, #12
 1949              		.cfi_def_cfa_offset 40
 1950              	.LBB440:
 1951              	.LBB441:
 1952              		.loc 1 242 0
 1953 0018 DFF88C80 		ldr	r8, .L150+24
 1954              	.LBE441:
 1955              	.LBE440:
 1956              	.LBB443:
 1957              	.LBB444:
 1958              		.loc 1 246 0
 1959 001c 204F     		ldr	r7, .L150+16
 1960              	.LBE444:
 1961              	.LBE443:
 1962              		.loc 1 513 0
 1963 001e 0193     		str	r3, [sp, #4]
 1964              	.LVL152:
 1965 0020 0FE0     		b	.L143
 1966              	.LVL153:
 1967              	.L149:
 1968              		.loc 1 524 0
 1969 0022 3360     		str	r3, [r6]
 1970              	.L141:
 1971              	.LVL154:
 1972              	.LBB446:
 1973              	.LBB442:
 1974              		.loc 1 242 0
 1975 0024 4FF47A71 		mov	r1, #1000
 1976 0028 4046     		mov	r0, r8
 1977 002a FFF7FEFF 		bl	motor_set_speed
 1978              	.LVL155:
 1979              	.LBE442:
 1980              	.LBE446:
 1981              	.LBB447:
 1982              	.LBB445:
 1983              		.loc 1 246 0
 1984 002e 4FF47A71 		mov	r1, #1000
 1985 0032 3846     		mov	r0, r7
 1986 0034 FFF7FEFF 		bl	motor_set_speed
 1987              	.LVL156:
 1988              	.L142:
 1989              	.LBE445:
 1990              	.LBE447:
 1991              		.loc 1 533 0
 1992 0038 05F10A01 		add	r1, r5, #10
 1993 003c 2846     		mov	r0, r5
 1994 003e FFF7FEFF 		bl	chThdSleepUntilWindowed
 1995              	.LVL157:
ARM GAS  /var/folders/j2/t8glr22d56s93xphj_30s8g80000gn/T//cc8l81ic.s 			page 36


 1996              	.L143:
 1997              	.LBB448:
 1998              	.LBB438:
 1999              	.LBB430:
 2000              	.LBB431:
 2001              	.LBB432:
 2002              	.LBB433:
 2003              	.LBB434:
 2004              		.loc 4 546 0
 2005 0042 2023     		movs	r3, #32
 2006              		.syntax unified
 2007              	@ 546 "../../lib/e-puck2_main-processor/ChibiOS//os/ext/CMSIS/include/core_cmFunc.h" 1
 2008 0044 83F31188 		MSR basepri, r3
 2009              	@ 0 "" 2
 2010              	.LVL158:
 2011              		.thumb
 2012              		.syntax unified
 2013              	.LBE434:
 2014              	.LBE433:
 2015              	.LBE432:
 2016              		.loc 3 349 0
 2017 0048 FFF7FEFF 		bl	_stats_start_measure_crit_thd
 2018              	.LVL159:
 2019              		.loc 3 350 0
 2020 004c FFF7FEFF 		bl	_dbg_check_lock
 2021              	.LVL160:
 2022              	.LBE431:
 2023              	.LBE430:
 2024              	.LBB435:
 2025              	.LBB436:
 2026              		.loc 5 231 0
 2027 0050 A56A     		ldr	r5, [r4, #40]
 2028              	.LBE436:
 2029              	.LBE435:
 2030              	.LBB437:
 2031              	.LBB429:
 2032              		.loc 3 360 0
 2033 0052 FFF7FEFF 		bl	_dbg_check_unlock
 2034              	.LVL161:
 2035              		.loc 3 361 0
 2036 0056 FFF7FEFF 		bl	_stats_stop_measure_crit_thd
 2037              	.LVL162:
 2038              		.loc 3 367 0
 2039 005a 2368     		ldr	r3, [r4]
 2040 005c A342     		cmp	r3, r4
 2041 005e 07D0     		beq	.L139
 2042 0060 A269     		ldr	r2, [r4, #24]
 2043 0062 9B68     		ldr	r3, [r3, #8]
 2044 0064 9268     		ldr	r2, [r2, #8]
 2045 0066 9A42     		cmp	r2, r3
 2046 0068 02D2     		bcs	.L139
 2047 006a 4846     		mov	r0, r9
 2048 006c FFF7FEFF 		bl	chSysHalt
 2049              	.LVL163:
 2050              	.L139:
 2051              	.LBB426:
 2052              	.LBB427:
ARM GAS  /var/folders/j2/t8glr22d56s93xphj_30s8g80000gn/T//cc8l81ic.s 			page 37


 2053              	.LBB428:
 2054              		.loc 4 546 0
 2055 0070 0023     		movs	r3, #0
 2056              		.syntax unified
 2057              	@ 546 "../../lib/e-puck2_main-processor/ChibiOS//os/ext/CMSIS/include/core_cmFunc.h" 1
 2058 0072 83F31188 		MSR basepri, r3
 2059              	@ 0 "" 2
 2060              	.LVL164:
 2061              		.thumb
 2062              		.syntax unified
 2063              	.LBE428:
 2064              	.LBE427:
 2065              	.LBE426:
 2066              	.LBE429:
 2067              	.LBE437:
 2068              	.LBE438:
 2069              	.LBE448:
 2070              		.loc 1 522 0
 2071 0076 0420     		movs	r0, #4
 2072 0078 FFF7FEFF 		bl	get_calibrated_prox
 2073              	.LVL165:
 2074 007c B0F5FA7F 		cmp	r0, #500
 2075              		.loc 1 524 0
 2076 0080 4FF00103 		mov	r3, #1
 2077              		.loc 1 522 0
 2078 0084 CDDA     		bge	.L149
 2079              		.loc 1 526 0
 2080 0086 3368     		ldr	r3, [r6]
 2081 0088 002B     		cmp	r3, #0
 2082 008a D5D0     		beq	.L142
 2083 008c CAE7     		b	.L141
 2084              	.L151:
 2085 008e 00BF     		.align	2
 2086              	.L150:
 2087 0090 00000000 		.word	ch
 2088 0094 00000000 		.word	__stack_chk_guard
 2089 0098 00000000 		.word	.LANCHOR9
 2090 009c 00000000 		.word	.LANCHOR8
 2091 00a0 00000000 		.word	.LANCHOR0
 2092 00a4 00000000 		.word	.LANCHOR5
 2093 00a8 00000000 		.word	.LANCHOR3
 2094              		.cfi_endproc
 2095              	.LFE277:
 2096              		.size	Deplacement, .-Deplacement
 2097              		.section	.text.Manoeuvre,"ax",%progbits
 2098              		.align	1
 2099              		.p2align 4,,15
 2100              		.syntax unified
 2101              		.thumb
 2102              		.thumb_func
 2103              		.fpu fpv4-sp-d16
 2104              		.type	Manoeuvre, %function
 2105              	Manoeuvre:
 2106              	.LFB274:
 2107              		.loc 1 325 0
 2108              		.cfi_startproc
 2109              		@ args = 0, pretend = 0, frame = 8
ARM GAS  /var/folders/j2/t8glr22d56s93xphj_30s8g80000gn/T//cc8l81ic.s 			page 38


 2110              		@ frame_needed = 0, uses_anonymous_args = 0
 2111              	.LVL166:
 2112 0000 2DE9F04F 		push	{r4, r5, r6, r7, r8, r9, r10, fp, lr}
 2113              		.cfi_def_cfa_offset 36
 2114              		.cfi_offset 4, -36
 2115              		.cfi_offset 5, -32
 2116              		.cfi_offset 6, -28
 2117              		.cfi_offset 7, -24
 2118              		.cfi_offset 8, -20
 2119              		.cfi_offset 9, -16
 2120              		.cfi_offset 10, -12
 2121              		.cfi_offset 11, -8
 2122              		.cfi_offset 14, -4
 2123              	.LBB493:
 2124              	.LBB494:
 2125              		.loc 2 135 0
 2126 0004 454C     		ldr	r4, .L160
 2127              	.LBE494:
 2128              	.LBE493:
 2129              		.loc 1 325 0
 2130 0006 464B     		ldr	r3, .L160+4
 2131              	.LBB497:
 2132              	.LBB495:
 2133              		.loc 2 135 0
 2134 0008 A269     		ldr	r2, [r4, #24]
 2135 000a DFF82C91 		ldr	r9, .L160+28
 2136 000e 4549     		ldr	r1, .L160+8
 2137              	.LBE495:
 2138              	.LBE497:
 2139              		.loc 1 325 0
 2140 0010 1B68     		ldr	r3, [r3]
 2141 0012 DFF82881 		ldr	r8, .L160+32
 2142              	.LBB498:
 2143              	.LBB496:
 2144              		.loc 2 135 0
 2145 0016 9161     		str	r1, [r2, #24]
 2146              	.LBE496:
 2147              	.LBE498:
 2148              		.loc 1 325 0
 2149 0018 83B0     		sub	sp, sp, #12
 2150              		.cfi_def_cfa_offset 48
 2151              	.LBB499:
 2152              	.LBB500:
 2153              		.loc 1 246 0
 2154 001a 434F     		ldr	r7, .L160+12
 2155              	.LBE500:
 2156              	.LBE499:
 2157              		.loc 1 325 0
 2158 001c 0193     		str	r3, [sp, #4]
 2159              	.LVL167:
 2160              	.LBB502:
 2161              	.LBB503:
 2162              		.loc 1 242 0
 2163 001e 4E46     		mov	r6, r9
 2164 0020 04E0     		b	.L156
 2165              	.LVL168:
 2166              	.L154:
ARM GAS  /var/folders/j2/t8glr22d56s93xphj_30s8g80000gn/T//cc8l81ic.s 			page 39


 2167              	.LBE503:
 2168              	.LBE502:
 2169              		.loc 1 372 0
 2170 0022 05F10A01 		add	r1, r5, #10
 2171 0026 2846     		mov	r0, r5
 2172 0028 FFF7FEFF 		bl	chThdSleepUntilWindowed
 2173              	.LVL169:
 2174              	.L156:
 2175              	.LBB506:
 2176              	.LBB507:
 2177              	.LBB508:
 2178              	.LBB509:
 2179              	.LBB510:
 2180              	.LBB511:
 2181              	.LBB512:
 2182              		.loc 4 546 0
 2183 002c 2023     		movs	r3, #32
 2184              		.syntax unified
 2185              	@ 546 "../../lib/e-puck2_main-processor/ChibiOS//os/ext/CMSIS/include/core_cmFunc.h" 1
 2186 002e 83F31188 		MSR basepri, r3
 2187              	@ 0 "" 2
 2188              	.LVL170:
 2189              		.thumb
 2190              		.syntax unified
 2191              	.LBE512:
 2192              	.LBE511:
 2193              	.LBE510:
 2194              		.loc 3 349 0
 2195 0032 FFF7FEFF 		bl	_stats_start_measure_crit_thd
 2196              	.LVL171:
 2197              		.loc 3 350 0
 2198 0036 FFF7FEFF 		bl	_dbg_check_lock
 2199              	.LVL172:
 2200              	.LBE509:
 2201              	.LBE508:
 2202              	.LBB513:
 2203              	.LBB514:
 2204              		.loc 5 231 0
 2205 003a A56A     		ldr	r5, [r4, #40]
 2206              	.LBE514:
 2207              	.LBE513:
 2208              	.LBB515:
 2209              	.LBB516:
 2210              		.loc 3 360 0
 2211 003c FFF7FEFF 		bl	_dbg_check_unlock
 2212              	.LVL173:
 2213              		.loc 3 361 0
 2214 0040 FFF7FEFF 		bl	_stats_stop_measure_crit_thd
 2215              	.LVL174:
 2216              		.loc 3 367 0
 2217 0044 2368     		ldr	r3, [r4]
 2218 0046 A342     		cmp	r3, r4
 2219 0048 07D0     		beq	.L153
 2220 004a A269     		ldr	r2, [r4, #24]
 2221 004c 9B68     		ldr	r3, [r3, #8]
 2222 004e 9268     		ldr	r2, [r2, #8]
 2223 0050 9A42     		cmp	r2, r3
ARM GAS  /var/folders/j2/t8glr22d56s93xphj_30s8g80000gn/T//cc8l81ic.s 			page 40


 2224 0052 02D2     		bcs	.L153
 2225 0054 3548     		ldr	r0, .L160+16
 2226 0056 FFF7FEFF 		bl	chSysHalt
 2227              	.LVL175:
 2228              	.L153:
 2229              	.LBB517:
 2230              	.LBB518:
 2231              	.LBB519:
 2232              		.loc 4 546 0
 2233 005a 4FF0000B 		mov	fp, #0
 2234              		.syntax unified
 2235              	@ 546 "../../lib/e-puck2_main-processor/ChibiOS//os/ext/CMSIS/include/core_cmFunc.h" 1
 2236 005e 8BF31188 		MSR basepri, fp
 2237              	@ 0 "" 2
 2238              	.LVL176:
 2239              		.thumb
 2240              		.syntax unified
 2241              	.LBE519:
 2242              	.LBE518:
 2243              	.LBE517:
 2244              	.LBE516:
 2245              	.LBE515:
 2246              	.LBE507:
 2247              	.LBE506:
 2248              		.loc 1 335 0
 2249 0062 0520     		movs	r0, #5
 2250 0064 FFF7FEFF 		bl	get_calibrated_prox
 2251              	.LVL177:
 2252 0068 C728     		cmp	r0, #199
 2253 006a DADD     		ble	.L154
 2254              		.loc 1 335 0 is_stmt 0 discriminator 1
 2255 006c D8F800A0 		ldr	r10, [r8]
 2256 0070 BAF1010F 		cmp	r10, #1
 2257 0074 D5D1     		bne	.L154
 2258              	.LBB520:
 2259              	.LBB504:
 2260              		.loc 1 242 0 is_stmt 1
 2261 0076 5946     		mov	r1, fp
 2262 0078 3046     		mov	r0, r6
 2263              	.LBE504:
 2264              	.LBE520:
 2265              		.loc 1 337 0
 2266 007a C8F800B0 		str	fp, [r8]
 2267              	.LVL178:
 2268              	.LBB521:
 2269              	.LBB505:
 2270              		.loc 1 242 0
 2271 007e FFF7FEFF 		bl	motor_set_speed
 2272              	.LVL179:
 2273              	.LBE505:
 2274              	.LBE521:
 2275              	.LBB522:
 2276              	.LBB501:
 2277              		.loc 1 246 0
 2278 0082 5946     		mov	r1, fp
 2279 0084 3846     		mov	r0, r7
 2280 0086 FFF7FEFF 		bl	motor_set_speed
ARM GAS  /var/folders/j2/t8glr22d56s93xphj_30s8g80000gn/T//cc8l81ic.s 			page 41


 2281              	.LVL180:
 2282              	.LBE501:
 2283              	.LBE522:
 2284              		.loc 1 341 0
 2285 008a 294B     		ldr	r3, .L160+20
 2286              		.loc 1 342 0
 2287 008c 4FF47A70 		mov	r0, #1000
 2288              		.loc 1 341 0
 2289 0090 C3F800A0 		str	r10, [r3]
 2290              		.loc 1 342 0
 2291 0094 FFF7FEFF 		bl	chThdSleep
 2292              	.LVL181:
 2293              	.LBB523:
 2294              	.LBB524:
 2295              		.loc 1 242 0
 2296 0098 2649     		ldr	r1, .L160+24
 2297 009a 3046     		mov	r0, r6
 2298              	.LBE524:
 2299              	.LBE523:
 2300              	.LBB526:
 2301              	.LBB527:
 2302              		.loc 1 246 0
 2303 009c 8A46     		mov	r10, r1
 2304              	.LBE527:
 2305              	.LBE526:
 2306              	.LBB529:
 2307              	.LBB525:
 2308              		.loc 1 242 0
 2309 009e FFF7FEFF 		bl	motor_set_speed
 2310              	.LVL182:
 2311              	.LBE525:
 2312              	.LBE529:
 2313              	.LBB530:
 2314              	.LBB531:
 2315              		.loc 1 246 0
 2316 00a2 5146     		mov	r1, r10
 2317 00a4 3846     		mov	r0, r7
 2318 00a6 FFF7FEFF 		bl	motor_set_speed
 2319              	.LVL183:
 2320              	.LBE531:
 2321              	.LBE530:
 2322              		.loc 1 347 0
 2323 00aa 4FF47A70 		mov	r0, #1000
 2324 00ae FFF7FEFF 		bl	chThdSleep
 2325              	.LVL184:
 2326              	.LBB532:
 2327              	.LBB533:
 2328              		.loc 1 242 0
 2329 00b2 5146     		mov	r1, r10
 2330 00b4 3046     		mov	r0, r6
 2331 00b6 FFF7FEFF 		bl	motor_set_speed
 2332              	.LVL185:
 2333              	.LBE533:
 2334              	.LBE532:
 2335              	.LBB534:
 2336              	.LBB535:
 2337              		.loc 1 246 0
ARM GAS  /var/folders/j2/t8glr22d56s93xphj_30s8g80000gn/T//cc8l81ic.s 			page 42


 2338 00ba 4FF47A71 		mov	r1, #1000
 2339 00be 3846     		mov	r0, r7
 2340 00c0 FFF7FEFF 		bl	motor_set_speed
 2341              	.LVL186:
 2342              	.LBE535:
 2343              	.LBE534:
 2344              		.loc 1 351 0
 2345 00c4 40F24510 		movw	r0, #325
 2346 00c8 FFF7FEFF 		bl	chThdSleep
 2347              	.LVL187:
 2348              	.LBB536:
 2349              	.LBB537:
 2350              		.loc 1 242 0
 2351 00cc 5146     		mov	r1, r10
 2352 00ce 3046     		mov	r0, r6
 2353 00d0 FFF7FEFF 		bl	motor_set_speed
 2354              	.LVL188:
 2355              	.LBE537:
 2356              	.LBE536:
 2357              	.LBB538:
 2358              	.LBB539:
 2359              		.loc 1 246 0
 2360 00d4 5146     		mov	r1, r10
 2361 00d6 3846     		mov	r0, r7
 2362 00d8 FFF7FEFF 		bl	motor_set_speed
 2363              	.LVL189:
 2364              	.LBE539:
 2365              	.LBE538:
 2366              		.loc 1 355 0
 2367 00dc 40F2EE20 		movw	r0, #750
 2368 00e0 FFF7FEFF 		bl	chThdSleep
 2369              	.LVL190:
 2370              		.loc 1 358 0
 2371 00e4 124B     		ldr	r3, .L160+20
 2372              	.LBB540:
 2373              	.LBB541:
 2374              		.loc 1 258 0
 2375 00e6 C9F804B0 		str	fp, [r9, #4]
 2376              	.LBE541:
 2377              	.LBE540:
 2378              		.loc 1 358 0
 2379 00ea C3F800B0 		str	fp, [r3]
 2380              	.LVL191:
 2381              	.L155:
 2382              	.LBB542:
 2383              	.LBB543:
 2384              		.loc 1 242 0
 2385 00ee 4FF47A71 		mov	r1, #1000
 2386 00f2 3046     		mov	r0, r6
 2387 00f4 FFF7FEFF 		bl	motor_set_speed
 2388              	.LVL192:
 2389              	.LBE543:
 2390              	.LBE542:
 2391              	.LBB544:
 2392              	.LBB528:
 2393              		.loc 1 246 0
 2394 00f8 5146     		mov	r1, r10
ARM GAS  /var/folders/j2/t8glr22d56s93xphj_30s8g80000gn/T//cc8l81ic.s 			page 43


 2395 00fa 3846     		mov	r0, r7
 2396 00fc FFF7FEFF 		bl	motor_set_speed
 2397              	.LVL193:
 2398              	.LBE528:
 2399              	.LBE544:
 2400              		.loc 1 361 0
 2401 0100 D9F80430 		ldr	r3, [r9, #4]
 2402 0104 B3F5237F 		cmp	r3, #652
 2403 0108 F1DB     		blt	.L155
 2404              	.LVL194:
 2405              	.LBB545:
 2406              	.LBB546:
 2407              		.loc 1 242 0
 2408 010a 3046     		mov	r0, r6
 2409 010c 0021     		movs	r1, #0
 2410 010e FFF7FEFF 		bl	motor_set_speed
 2411              	.LVL195:
 2412              	.LBE546:
 2413              	.LBE545:
 2414              	.LBB547:
 2415              	.LBB548:
 2416              		.loc 1 246 0
 2417 0112 0021     		movs	r1, #0
 2418 0114 3846     		mov	r0, r7
 2419 0116 FFF7FEFF 		bl	motor_set_speed
 2420              	.LVL196:
 2421 011a 82E7     		b	.L154
 2422              	.L161:
 2423              		.align	2
 2424              	.L160:
 2425 011c 00000000 		.word	ch
 2426 0120 00000000 		.word	__stack_chk_guard
 2427 0124 00000000 		.word	.LANCHOR10
 2428 0128 00000000 		.word	.LANCHOR0
 2429 012c 00000000 		.word	.LANCHOR5
 2430 0130 00000000 		.word	.LANCHOR6
 2431 0134 18FCFFFF 		.word	-1000
 2432 0138 00000000 		.word	.LANCHOR3
 2433 013c 00000000 		.word	.LANCHOR8
 2434              	.LBE548:
 2435              	.LBE547:
 2436              		.cfi_endproc
 2437              	.LFE274:
 2438              		.size	Manoeuvre, .-Manoeuvre
 2439              		.section	.text.left_motor_set_speed,"ax",%progbits
 2440              		.align	1
 2441              		.p2align 4,,15
 2442              		.global	left_motor_set_speed
 2443              		.syntax unified
 2444              		.thumb
 2445              		.thumb_func
 2446              		.fpu fpv4-sp-d16
 2447              		.type	left_motor_set_speed, %function
 2448              	left_motor_set_speed:
 2449              	.LFB267:
 2450              		.loc 1 241 0
 2451              		.cfi_startproc
ARM GAS  /var/folders/j2/t8glr22d56s93xphj_30s8g80000gn/T//cc8l81ic.s 			page 44


 2452              		@ args = 0, pretend = 0, frame = 8
 2453              		@ frame_needed = 0, uses_anonymous_args = 0
 2454              	.LVL197:
 2455 0000 00B5     		push	{lr}
 2456              		.cfi_def_cfa_offset 4
 2457              		.cfi_offset 14, -4
 2458 0002 084B     		ldr	r3, .L167
 2459 0004 83B0     		sub	sp, sp, #12
 2460              		.cfi_def_cfa_offset 16
 2461              		.loc 1 241 0
 2462 0006 1A68     		ldr	r2, [r3]
 2463 0008 0192     		str	r2, [sp, #4]
 2464              		.loc 1 242 0
 2465 000a 019A     		ldr	r2, [sp, #4]
 2466 000c 1B68     		ldr	r3, [r3]
 2467 000e 9A42     		cmp	r2, r3
 2468 0010 06D1     		bne	.L166
 2469 0012 0146     		mov	r1, r0
 2470 0014 0448     		ldr	r0, .L167+4
 2471              	.LVL198:
 2472              		.loc 1 243 0
 2473 0016 03B0     		add	sp, sp, #12
 2474              		.cfi_remember_state
 2475              		.cfi_def_cfa_offset 4
 2476              		@ sp needed
 2477 0018 5DF804EB 		ldr	lr, [sp], #4
 2478              		.cfi_restore 14
 2479              		.cfi_def_cfa_offset 0
 2480              		.loc 1 242 0
 2481 001c FFF7FEBF 		b	motor_set_speed
 2482              	.LVL199:
 2483              	.L166:
 2484              		.cfi_restore_state
 2485 0020 FFF7FEFF 		bl	__stack_chk_fail
 2486              	.LVL200:
 2487              	.L168:
 2488              		.align	2
 2489              	.L167:
 2490 0024 00000000 		.word	__stack_chk_guard
 2491 0028 00000000 		.word	.LANCHOR3
 2492              		.cfi_endproc
 2493              	.LFE267:
 2494              		.size	left_motor_set_speed, .-left_motor_set_speed
 2495              		.section	.text.right_motor_set_speed,"ax",%progbits
 2496              		.align	1
 2497              		.p2align 4,,15
 2498              		.global	right_motor_set_speed
 2499              		.syntax unified
 2500              		.thumb
 2501              		.thumb_func
 2502              		.fpu fpv4-sp-d16
 2503              		.type	right_motor_set_speed, %function
 2504              	right_motor_set_speed:
 2505              	.LFB268:
 2506              		.loc 1 245 0
 2507              		.cfi_startproc
 2508              		@ args = 0, pretend = 0, frame = 8
ARM GAS  /var/folders/j2/t8glr22d56s93xphj_30s8g80000gn/T//cc8l81ic.s 			page 45


 2509              		@ frame_needed = 0, uses_anonymous_args = 0
 2510              	.LVL201:
 2511 0000 00B5     		push	{lr}
 2512              		.cfi_def_cfa_offset 4
 2513              		.cfi_offset 14, -4
 2514 0002 084B     		ldr	r3, .L174
 2515 0004 83B0     		sub	sp, sp, #12
 2516              		.cfi_def_cfa_offset 16
 2517              		.loc 1 245 0
 2518 0006 1A68     		ldr	r2, [r3]
 2519 0008 0192     		str	r2, [sp, #4]
 2520              		.loc 1 246 0
 2521 000a 019A     		ldr	r2, [sp, #4]
 2522 000c 1B68     		ldr	r3, [r3]
 2523 000e 9A42     		cmp	r2, r3
 2524 0010 06D1     		bne	.L173
 2525 0012 0146     		mov	r1, r0
 2526 0014 0448     		ldr	r0, .L174+4
 2527              	.LVL202:
 2528              		.loc 1 247 0
 2529 0016 03B0     		add	sp, sp, #12
 2530              		.cfi_remember_state
 2531              		.cfi_def_cfa_offset 4
 2532              		@ sp needed
 2533 0018 5DF804EB 		ldr	lr, [sp], #4
 2534              		.cfi_restore 14
 2535              		.cfi_def_cfa_offset 0
 2536              		.loc 1 246 0
 2537 001c FFF7FEBF 		b	motor_set_speed
 2538              	.LVL203:
 2539              	.L173:
 2540              		.cfi_restore_state
 2541 0020 FFF7FEFF 		bl	__stack_chk_fail
 2542              	.LVL204:
 2543              	.L175:
 2544              		.align	2
 2545              	.L174:
 2546 0024 00000000 		.word	__stack_chk_guard
 2547 0028 00000000 		.word	.LANCHOR0
 2548              		.cfi_endproc
 2549              	.LFE268:
 2550              		.size	right_motor_set_speed, .-right_motor_set_speed
 2551              		.section	.text.left_motor_get_pos,"ax",%progbits
 2552              		.align	1
 2553              		.p2align 4,,15
 2554              		.global	left_motor_get_pos
 2555              		.syntax unified
 2556              		.thumb
 2557              		.thumb_func
 2558              		.fpu fpv4-sp-d16
 2559              		.type	left_motor_get_pos, %function
 2560              	left_motor_get_pos:
 2561              	.LFB269:
 2562              		.loc 1 249 0
 2563              		.cfi_startproc
 2564              		@ args = 0, pretend = 0, frame = 8
 2565              		@ frame_needed = 0, uses_anonymous_args = 0
ARM GAS  /var/folders/j2/t8glr22d56s93xphj_30s8g80000gn/T//cc8l81ic.s 			page 46


 2566 0000 00B5     		push	{lr}
 2567              		.cfi_def_cfa_offset 4
 2568              		.cfi_offset 14, -4
 2569 0002 094B     		ldr	r3, .L180
 2570              		.loc 1 250 0
 2571 0004 094A     		ldr	r2, .L180+4
 2572              		.loc 1 249 0
 2573 0006 1968     		ldr	r1, [r3]
 2574              		.loc 1 250 0
 2575 0008 5068     		ldr	r0, [r2, #4]
 2576              		.loc 1 249 0
 2577 000a 83B0     		sub	sp, sp, #12
 2578              		.cfi_def_cfa_offset 16
 2579              		.loc 1 250 0
 2580 000c 00EBD070 		add	r0, r0, r0, lsr #31
 2581              		.loc 1 249 0
 2582 0010 0191     		str	r1, [sp, #4]
 2583              		.loc 1 251 0
 2584 0012 019A     		ldr	r2, [sp, #4]
 2585 0014 1B68     		ldr	r3, [r3]
 2586 0016 9A42     		cmp	r2, r3
 2587 0018 03D1     		bne	.L179
 2588 001a 4010     		asrs	r0, r0, #1
 2589 001c 03B0     		add	sp, sp, #12
 2590              		.cfi_remember_state
 2591              		.cfi_def_cfa_offset 4
 2592              		@ sp needed
 2593 001e 5DF804FB 		ldr	pc, [sp], #4
 2594              	.L179:
 2595              		.cfi_restore_state
 2596 0022 FFF7FEFF 		bl	__stack_chk_fail
 2597              	.LVL205:
 2598              	.L181:
 2599 0026 00BF     		.align	2
 2600              	.L180:
 2601 0028 00000000 		.word	__stack_chk_guard
 2602 002c 00000000 		.word	.LANCHOR3
 2603              		.cfi_endproc
 2604              	.LFE269:
 2605              		.size	left_motor_get_pos, .-left_motor_get_pos
 2606              		.section	.text.right_motor_get_pos,"ax",%progbits
 2607              		.align	1
 2608              		.p2align 4,,15
 2609              		.global	right_motor_get_pos
 2610              		.syntax unified
 2611              		.thumb
 2612              		.thumb_func
 2613              		.fpu fpv4-sp-d16
 2614              		.type	right_motor_get_pos, %function
 2615              	right_motor_get_pos:
 2616              	.LFB270:
 2617              		.loc 1 253 0
 2618              		.cfi_startproc
 2619              		@ args = 0, pretend = 0, frame = 8
 2620              		@ frame_needed = 0, uses_anonymous_args = 0
 2621 0000 00B5     		push	{lr}
 2622              		.cfi_def_cfa_offset 4
ARM GAS  /var/folders/j2/t8glr22d56s93xphj_30s8g80000gn/T//cc8l81ic.s 			page 47


 2623              		.cfi_offset 14, -4
 2624 0002 094B     		ldr	r3, .L186
 2625              		.loc 1 254 0
 2626 0004 094A     		ldr	r2, .L186+4
 2627              		.loc 1 253 0
 2628 0006 1968     		ldr	r1, [r3]
 2629              		.loc 1 254 0
 2630 0008 5068     		ldr	r0, [r2, #4]
 2631              		.loc 1 253 0
 2632 000a 83B0     		sub	sp, sp, #12
 2633              		.cfi_def_cfa_offset 16
 2634              		.loc 1 254 0
 2635 000c 00EBD070 		add	r0, r0, r0, lsr #31
 2636              		.loc 1 253 0
 2637 0010 0191     		str	r1, [sp, #4]
 2638              		.loc 1 255 0
 2639 0012 019A     		ldr	r2, [sp, #4]
 2640 0014 1B68     		ldr	r3, [r3]
 2641 0016 9A42     		cmp	r2, r3
 2642 0018 03D1     		bne	.L185
 2643 001a 4010     		asrs	r0, r0, #1
 2644 001c 03B0     		add	sp, sp, #12
 2645              		.cfi_remember_state
 2646              		.cfi_def_cfa_offset 4
 2647              		@ sp needed
 2648 001e 5DF804FB 		ldr	pc, [sp], #4
 2649              	.L185:
 2650              		.cfi_restore_state
 2651 0022 FFF7FEFF 		bl	__stack_chk_fail
 2652              	.LVL206:
 2653              	.L187:
 2654 0026 00BF     		.align	2
 2655              	.L186:
 2656 0028 00000000 		.word	__stack_chk_guard
 2657 002c 00000000 		.word	.LANCHOR0
 2658              		.cfi_endproc
 2659              	.LFE270:
 2660              		.size	right_motor_get_pos, .-right_motor_get_pos
 2661              		.section	.text.left_motor_set_pos,"ax",%progbits
 2662              		.align	1
 2663              		.p2align 4,,15
 2664              		.global	left_motor_set_pos
 2665              		.syntax unified
 2666              		.thumb
 2667              		.thumb_func
 2668              		.fpu fpv4-sp-d16
 2669              		.type	left_motor_set_pos, %function
 2670              	left_motor_set_pos:
 2671              	.LFB271:
 2672              		.loc 1 257 0
 2673              		.cfi_startproc
 2674              		@ args = 0, pretend = 0, frame = 8
 2675              		@ frame_needed = 0, uses_anonymous_args = 0
 2676              	.LVL207:
 2677 0000 00B5     		push	{lr}
 2678              		.cfi_def_cfa_offset 4
 2679              		.cfi_offset 14, -4
ARM GAS  /var/folders/j2/t8glr22d56s93xphj_30s8g80000gn/T//cc8l81ic.s 			page 48


 2680 0002 084B     		ldr	r3, .L192
 2681              		.loc 1 258 0
 2682 0004 0849     		ldr	r1, .L192+4
 2683              		.loc 1 257 0
 2684 0006 1A68     		ldr	r2, [r3]
 2685 0008 83B0     		sub	sp, sp, #12
 2686              		.cfi_def_cfa_offset 16
 2687              		.loc 1 258 0
 2688 000a 4000     		lsls	r0, r0, #1
 2689              	.LVL208:
 2690              		.loc 1 257 0
 2691 000c 0192     		str	r2, [sp, #4]
 2692              		.loc 1 259 0
 2693 000e 019A     		ldr	r2, [sp, #4]
 2694 0010 1B68     		ldr	r3, [r3]
 2695              		.loc 1 258 0
 2696 0012 4860     		str	r0, [r1, #4]
 2697              		.loc 1 259 0
 2698 0014 9A42     		cmp	r2, r3
 2699 0016 02D1     		bne	.L191
 2700 0018 03B0     		add	sp, sp, #12
 2701              		.cfi_remember_state
 2702              		.cfi_def_cfa_offset 4
 2703              		@ sp needed
 2704 001a 5DF804FB 		ldr	pc, [sp], #4
 2705              	.L191:
 2706              		.cfi_restore_state
 2707 001e FFF7FEFF 		bl	__stack_chk_fail
 2708              	.LVL209:
 2709              	.L193:
 2710 0022 00BF     		.align	2
 2711              	.L192:
 2712 0024 00000000 		.word	__stack_chk_guard
 2713 0028 00000000 		.word	.LANCHOR3
 2714              		.cfi_endproc
 2715              	.LFE271:
 2716              		.size	left_motor_set_pos, .-left_motor_set_pos
 2717              		.section	.text.right_motor_set_pos,"ax",%progbits
 2718              		.align	1
 2719              		.p2align 4,,15
 2720              		.global	right_motor_set_pos
 2721              		.syntax unified
 2722              		.thumb
 2723              		.thumb_func
 2724              		.fpu fpv4-sp-d16
 2725              		.type	right_motor_set_pos, %function
 2726              	right_motor_set_pos:
 2727              	.LFB272:
 2728              		.loc 1 261 0
 2729              		.cfi_startproc
 2730              		@ args = 0, pretend = 0, frame = 8
 2731              		@ frame_needed = 0, uses_anonymous_args = 0
 2732              	.LVL210:
 2733 0000 00B5     		push	{lr}
 2734              		.cfi_def_cfa_offset 4
 2735              		.cfi_offset 14, -4
 2736 0002 084B     		ldr	r3, .L198
ARM GAS  /var/folders/j2/t8glr22d56s93xphj_30s8g80000gn/T//cc8l81ic.s 			page 49


 2737              		.loc 1 262 0
 2738 0004 0849     		ldr	r1, .L198+4
 2739              		.loc 1 261 0
 2740 0006 1A68     		ldr	r2, [r3]
 2741 0008 83B0     		sub	sp, sp, #12
 2742              		.cfi_def_cfa_offset 16
 2743              		.loc 1 262 0
 2744 000a 4000     		lsls	r0, r0, #1
 2745              	.LVL211:
 2746              		.loc 1 261 0
 2747 000c 0192     		str	r2, [sp, #4]
 2748              		.loc 1 263 0
 2749 000e 019A     		ldr	r2, [sp, #4]
 2750 0010 1B68     		ldr	r3, [r3]
 2751              		.loc 1 262 0
 2752 0012 4860     		str	r0, [r1, #4]
 2753              		.loc 1 263 0
 2754 0014 9A42     		cmp	r2, r3
 2755 0016 02D1     		bne	.L197
 2756 0018 03B0     		add	sp, sp, #12
 2757              		.cfi_remember_state
 2758              		.cfi_def_cfa_offset 4
 2759              		@ sp needed
 2760 001a 5DF804FB 		ldr	pc, [sp], #4
 2761              	.L197:
 2762              		.cfi_restore_state
 2763 001e FFF7FEFF 		bl	__stack_chk_fail
 2764              	.LVL212:
 2765              	.L199:
 2766 0022 00BF     		.align	2
 2767              	.L198:
 2768 0024 00000000 		.word	__stack_chk_guard
 2769 0028 00000000 		.word	.LANCHOR0
 2770              		.cfi_endproc
 2771              	.LFE272:
 2772              		.size	right_motor_set_pos, .-right_motor_set_pos
 2773              		.section	.text.motors_init,"ax",%progbits
 2774              		.align	1
 2775              		.p2align 4,,15
 2776              		.global	motors_init
 2777              		.syntax unified
 2778              		.thumb
 2779              		.thumb_func
 2780              		.fpu fpv4-sp-d16
 2781              		.type	motors_init, %function
 2782              	motors_init:
 2783              	.LFB273:
 2784              		.loc 1 266 0
 2785              		.cfi_startproc
 2786              		@ args = 0, pretend = 0, frame = 8
 2787              		@ frame_needed = 0, uses_anonymous_args = 0
 2788 0000 70B5     		push	{r4, r5, r6, lr}
 2789              		.cfi_def_cfa_offset 16
 2790              		.cfi_offset 4, -16
 2791              		.cfi_offset 5, -12
 2792              		.cfi_offset 6, -8
 2793              		.cfi_offset 14, -4
ARM GAS  /var/folders/j2/t8glr22d56s93xphj_30s8g80000gn/T//cc8l81ic.s 			page 50


 2794 0002 1D4E     		ldr	r6, .L205
 2795              		.loc 1 268 0
 2796 0004 1D4A     		ldr	r2, .L205+4
 2797              		.loc 1 276 0
 2798 0006 1E4B     		ldr	r3, .L205+8
 2799              		.loc 1 266 0
 2800 0008 3068     		ldr	r0, [r6]
 2801              		.loc 1 271 0
 2802 000a 1E49     		ldr	r1, .L205+12
 2803              		.loc 1 272 0
 2804 000c 1E4C     		ldr	r4, .L205+16
 2805              		.loc 1 271 0
 2806 000e 9160     		str	r1, [r2, #8]
 2807              		.loc 1 266 0
 2808 0010 82B0     		sub	sp, sp, #8
 2809              		.cfi_def_cfa_offset 24
 2810              		.loc 1 268 0
 2811 0012 0021     		movs	r1, #0
 2812              		.loc 1 272 0
 2813 0014 D460     		str	r4, [r2, #12]
 2814              		.loc 1 266 0
 2815 0016 0190     		str	r0, [sp, #4]
 2816              		.loc 1 274 0
 2817 0018 1C4C     		ldr	r4, .L205+20
 2818              		.loc 1 273 0
 2819 001a 1D48     		ldr	r0, .L205+24
 2820              		.loc 1 279 0
 2821 001c 1D4D     		ldr	r5, .L205+28
 2822 001e 9D60     		str	r5, [r3, #8]
 2823              		.loc 1 268 0
 2824 0020 1170     		strb	r1, [r2]
 2825              		.loc 1 269 0
 2826 0022 5170     		strb	r1, [r2, #1]
 2827              		.loc 1 270 0
 2828 0024 5160     		str	r1, [r2, #4]
 2829              		.loc 1 273 0
 2830 0026 1061     		str	r0, [r2, #16]
 2831              		.loc 1 274 0
 2832 0028 5461     		str	r4, [r2, #20]
 2833              		.loc 1 280 0
 2834 002a 1B48     		ldr	r0, .L205+32
 2835              		.loc 1 281 0
 2836 002c 1B4A     		ldr	r2, .L205+36
 2837              		.loc 1 282 0
 2838 002e 1C4D     		ldr	r5, .L205+40
 2839              		.loc 1 280 0
 2840 0030 D860     		str	r0, [r3, #12]
 2841              		.loc 1 285 0
 2842 0032 1C48     		ldr	r0, .L205+44
 2843              		.loc 1 276 0
 2844 0034 1970     		strb	r1, [r3]
 2845              		.loc 1 277 0
 2846 0036 5970     		strb	r1, [r3, #1]
 2847              		.loc 1 278 0
 2848 0038 5960     		str	r1, [r3, #4]
 2849              		.loc 1 282 0
 2850 003a C3E90425 		strd	r2, r5, [r3, #16]
ARM GAS  /var/folders/j2/t8glr22d56s93xphj_30s8g80000gn/T//cc8l81ic.s 			page 51


 2851              		.loc 1 285 0
 2852 003e FFF7FEFF 		bl	right_motor_update
 2853              	.LVL213:
 2854              		.loc 1 286 0
 2855 0042 1848     		ldr	r0, .L205+44
 2856 0044 FFF7FEFF 		bl	left_motor_update
 2857              	.LVL214:
 2858              		.loc 1 302 0
 2859 0048 1749     		ldr	r1, .L205+48
 2860 004a 2046     		mov	r0, r4
 2861 004c FFF7FEFF 		bl	pwmStart
 2862              	.LVL215:
 2863              		.loc 1 303 0
 2864 0050 2046     		mov	r0, r4
 2865 0052 FFF7FEFF 		bl	pwmEnablePeriodicNotification
 2866              	.LVL216:
 2867              		.loc 1 318 0
 2868 0056 2846     		mov	r0, r5
 2869 0058 1449     		ldr	r1, .L205+52
 2870 005a FFF7FEFF 		bl	pwmStart
 2871              	.LVL217:
 2872              		.loc 1 319 0
 2873 005e 019A     		ldr	r2, [sp, #4]
 2874 0060 3368     		ldr	r3, [r6]
 2875 0062 9A42     		cmp	r2, r3
 2876 0064 05D1     		bne	.L204
 2877 0066 2846     		mov	r0, r5
 2878              		.loc 1 321 0
 2879 0068 02B0     		add	sp, sp, #8
 2880              		.cfi_remember_state
 2881              		.cfi_def_cfa_offset 16
 2882              		@ sp needed
 2883 006a BDE87040 		pop	{r4, r5, r6, lr}
 2884              		.cfi_restore 14
 2885              		.cfi_restore 6
 2886              		.cfi_restore 5
 2887              		.cfi_restore 4
 2888              		.cfi_def_cfa_offset 0
 2889              		.loc 1 319 0
 2890 006e FFF7FEBF 		b	pwmEnablePeriodicNotification
 2891              	.LVL218:
 2892              	.L204:
 2893              		.cfi_restore_state
 2894 0072 FFF7FEFF 		bl	__stack_chk_fail
 2895              	.LVL219:
 2896              	.L206:
 2897 0076 00BF     		.align	2
 2898              	.L205:
 2899 0078 00000000 		.word	__stack_chk_guard
 2900 007c 00000000 		.word	.LANCHOR0
 2901 0080 00000000 		.word	.LANCHOR3
 2902 0084 00000000 		.word	right_motor_update
 2903 0088 00000000 		.word	right_motor_enable_power_save
 2904 008c 00000000 		.word	PWMD3
 2905 0090 00000000 		.word	right_motor_disable_power_save
 2906 0094 00000000 		.word	left_motor_update
 2907 0098 00000000 		.word	left_motor_enable_power_save
ARM GAS  /var/folders/j2/t8glr22d56s93xphj_30s8g80000gn/T//cc8l81ic.s 			page 52


 2908 009c 00000000 		.word	left_motor_disable_power_save
 2909 00a0 00000000 		.word	PWMD4
 2910 00a4 00000000 		.word	.LANCHOR2
 2911 00a8 00000000 		.word	.LANCHOR11
 2912 00ac 00000000 		.word	.LANCHOR12
 2913              		.cfi_endproc
 2914              	.LFE273:
 2915              		.size	motors_init, .-motors_init
 2916              		.section	.text.clignotant_start,"ax",%progbits
 2917              		.align	1
 2918              		.p2align 4,,15
 2919              		.global	clignotant_start
 2920              		.syntax unified
 2921              		.thumb
 2922              		.thumb_func
 2923              		.fpu fpv4-sp-d16
 2924              		.type	clignotant_start, %function
 2925              	clignotant_start:
 2926              	.LFB278:
 2927              		.loc 1 539 0
 2928              		.cfi_startproc
 2929              		@ args = 0, pretend = 0, frame = 8
 2930              		@ frame_needed = 0, uses_anonymous_args = 0
 2931 0000 10B5     		push	{r4, lr}
 2932              		.cfi_def_cfa_offset 8
 2933              		.cfi_offset 4, -8
 2934              		.cfi_offset 14, -4
 2935 0002 0A4C     		ldr	r4, .L211
 2936              		.loc 1 540 0
 2937 0004 0A4B     		ldr	r3, .L211+4
 2938              		.loc 1 539 0
 2939 0006 2268     		ldr	r2, [r4]
 2940              		.loc 1 540 0
 2941 0008 0A48     		ldr	r0, .L211+8
 2942              		.loc 1 539 0
 2943 000a 84B0     		sub	sp, sp, #16
 2944              		.cfi_def_cfa_offset 24
 2945              		.loc 1 540 0
 2946 000c 4FF4FC71 		mov	r1, #504
 2947              		.loc 1 539 0
 2948 0010 0392     		str	r2, [sp, #12]
 2949              		.loc 1 540 0
 2950 0012 0022     		movs	r2, #0
 2951 0014 0092     		str	r2, [sp]
 2952 0016 4022     		movs	r2, #64
 2953 0018 FFF7FEFF 		bl	chThdCreateStatic
 2954              	.LVL220:
 2955              		.loc 1 541 0
 2956 001c 039A     		ldr	r2, [sp, #12]
 2957 001e 2368     		ldr	r3, [r4]
 2958 0020 9A42     		cmp	r2, r3
 2959 0022 01D1     		bne	.L210
 2960 0024 04B0     		add	sp, sp, #16
 2961              		.cfi_remember_state
 2962              		.cfi_def_cfa_offset 8
 2963              		@ sp needed
 2964 0026 10BD     		pop	{r4, pc}
ARM GAS  /var/folders/j2/t8glr22d56s93xphj_30s8g80000gn/T//cc8l81ic.s 			page 53


 2965              	.L210:
 2966              		.cfi_restore_state
 2967 0028 FFF7FEFF 		bl	__stack_chk_fail
 2968              	.LVL221:
 2969              	.L212:
 2970              		.align	2
 2971              	.L211:
 2972 002c 00000000 		.word	__stack_chk_guard
 2973 0030 00000000 		.word	Clignotant
 2974 0034 00000000 		.word	.LANCHOR13
 2975              		.cfi_endproc
 2976              	.LFE278:
 2977              		.size	clignotant_start, .-clignotant_start
 2978              		.section	.text.depassement_start,"ax",%progbits
 2979              		.align	1
 2980              		.p2align 4,,15
 2981              		.global	depassement_start
 2982              		.syntax unified
 2983              		.thumb
 2984              		.thumb_func
 2985              		.fpu fpv4-sp-d16
 2986              		.type	depassement_start, %function
 2987              	depassement_start:
 2988              	.LFB279:
 2989              		.loc 1 544 0
 2990              		.cfi_startproc
 2991              		@ args = 0, pretend = 0, frame = 8
 2992              		@ frame_needed = 0, uses_anonymous_args = 0
 2993 0000 10B5     		push	{r4, lr}
 2994              		.cfi_def_cfa_offset 8
 2995              		.cfi_offset 4, -8
 2996              		.cfi_offset 14, -4
 2997 0002 0A4C     		ldr	r4, .L217
 2998              		.loc 1 545 0
 2999 0004 0A4B     		ldr	r3, .L217+4
 3000              		.loc 1 544 0
 3001 0006 2268     		ldr	r2, [r4]
 3002              		.loc 1 545 0
 3003 0008 0A48     		ldr	r0, .L217+8
 3004              		.loc 1 544 0
 3005 000a 84B0     		sub	sp, sp, #16
 3006              		.cfi_def_cfa_offset 24
 3007              		.loc 1 545 0
 3008 000c 4FF4FC71 		mov	r1, #504
 3009              		.loc 1 544 0
 3010 0010 0392     		str	r2, [sp, #12]
 3011              		.loc 1 545 0
 3012 0012 0022     		movs	r2, #0
 3013 0014 0092     		str	r2, [sp]
 3014 0016 7F22     		movs	r2, #127
 3015 0018 FFF7FEFF 		bl	chThdCreateStatic
 3016              	.LVL222:
 3017              		.loc 1 546 0
 3018 001c 039A     		ldr	r2, [sp, #12]
 3019 001e 2368     		ldr	r3, [r4]
 3020 0020 9A42     		cmp	r2, r3
 3021 0022 01D1     		bne	.L216
ARM GAS  /var/folders/j2/t8glr22d56s93xphj_30s8g80000gn/T//cc8l81ic.s 			page 54


 3022 0024 04B0     		add	sp, sp, #16
 3023              		.cfi_remember_state
 3024              		.cfi_def_cfa_offset 8
 3025              		@ sp needed
 3026 0026 10BD     		pop	{r4, pc}
 3027              	.L216:
 3028              		.cfi_restore_state
 3029 0028 FFF7FEFF 		bl	__stack_chk_fail
 3030              	.LVL223:
 3031              	.L218:
 3032              		.align	2
 3033              	.L217:
 3034 002c 00000000 		.word	__stack_chk_guard
 3035 0030 00000000 		.word	Depassement
 3036 0034 00000000 		.word	.LANCHOR14
 3037              		.cfi_endproc
 3038              	.LFE279:
 3039              		.size	depassement_start, .-depassement_start
 3040              		.section	.text.manoeuvre_start,"ax",%progbits
 3041              		.align	1
 3042              		.p2align 4,,15
 3043              		.global	manoeuvre_start
 3044              		.syntax unified
 3045              		.thumb
 3046              		.thumb_func
 3047              		.fpu fpv4-sp-d16
 3048              		.type	manoeuvre_start, %function
 3049              	manoeuvre_start:
 3050              	.LFB280:
 3051              		.loc 1 549 0
 3052              		.cfi_startproc
 3053              		@ args = 0, pretend = 0, frame = 8
 3054              		@ frame_needed = 0, uses_anonymous_args = 0
 3055 0000 10B5     		push	{r4, lr}
 3056              		.cfi_def_cfa_offset 8
 3057              		.cfi_offset 4, -8
 3058              		.cfi_offset 14, -4
 3059 0002 0A4C     		ldr	r4, .L223
 3060              		.loc 1 550 0
 3061 0004 0A4B     		ldr	r3, .L223+4
 3062              		.loc 1 549 0
 3063 0006 2268     		ldr	r2, [r4]
 3064              		.loc 1 550 0
 3065 0008 0A48     		ldr	r0, .L223+8
 3066              		.loc 1 549 0
 3067 000a 84B0     		sub	sp, sp, #16
 3068              		.cfi_def_cfa_offset 24
 3069              		.loc 1 550 0
 3070 000c 4FF4FC71 		mov	r1, #504
 3071              		.loc 1 549 0
 3072 0010 0392     		str	r2, [sp, #12]
 3073              		.loc 1 550 0
 3074 0012 0022     		movs	r2, #0
 3075 0014 0092     		str	r2, [sp]
 3076 0016 4122     		movs	r2, #65
 3077 0018 FFF7FEFF 		bl	chThdCreateStatic
 3078              	.LVL224:
ARM GAS  /var/folders/j2/t8glr22d56s93xphj_30s8g80000gn/T//cc8l81ic.s 			page 55


 3079              		.loc 1 551 0
 3080 001c 039A     		ldr	r2, [sp, #12]
 3081 001e 2368     		ldr	r3, [r4]
 3082 0020 9A42     		cmp	r2, r3
 3083 0022 01D1     		bne	.L222
 3084 0024 04B0     		add	sp, sp, #16
 3085              		.cfi_remember_state
 3086              		.cfi_def_cfa_offset 8
 3087              		@ sp needed
 3088 0026 10BD     		pop	{r4, pc}
 3089              	.L222:
 3090              		.cfi_restore_state
 3091 0028 FFF7FEFF 		bl	__stack_chk_fail
 3092              	.LVL225:
 3093              	.L224:
 3094              		.align	2
 3095              	.L223:
 3096 002c 00000000 		.word	__stack_chk_guard
 3097 0030 00000000 		.word	Manoeuvre
 3098 0034 00000000 		.word	.LANCHOR15
 3099              		.cfi_endproc
 3100              	.LFE280:
 3101              		.size	manoeuvre_start, .-manoeuvre_start
 3102              		.section	.text.deplacement_start,"ax",%progbits
 3103              		.align	1
 3104              		.p2align 4,,15
 3105              		.global	deplacement_start
 3106              		.syntax unified
 3107              		.thumb
 3108              		.thumb_func
 3109              		.fpu fpv4-sp-d16
 3110              		.type	deplacement_start, %function
 3111              	deplacement_start:
 3112              	.LFB281:
 3113              		.loc 1 554 0
 3114              		.cfi_startproc
 3115              		@ args = 0, pretend = 0, frame = 8
 3116              		@ frame_needed = 0, uses_anonymous_args = 0
 3117 0000 10B5     		push	{r4, lr}
 3118              		.cfi_def_cfa_offset 8
 3119              		.cfi_offset 4, -8
 3120              		.cfi_offset 14, -4
 3121 0002 0A4C     		ldr	r4, .L229
 3122              		.loc 1 555 0
 3123 0004 0A4B     		ldr	r3, .L229+4
 3124              		.loc 1 554 0
 3125 0006 2268     		ldr	r2, [r4]
 3126              		.loc 1 555 0
 3127 0008 0A48     		ldr	r0, .L229+8
 3128              		.loc 1 554 0
 3129 000a 84B0     		sub	sp, sp, #16
 3130              		.cfi_def_cfa_offset 24
 3131              		.loc 1 555 0
 3132 000c 4FF4FC71 		mov	r1, #504
 3133              		.loc 1 554 0
 3134 0010 0392     		str	r2, [sp, #12]
 3135              		.loc 1 555 0
ARM GAS  /var/folders/j2/t8glr22d56s93xphj_30s8g80000gn/T//cc8l81ic.s 			page 56


 3136 0012 0022     		movs	r2, #0
 3137 0014 0092     		str	r2, [sp]
 3138 0016 4022     		movs	r2, #64
 3139 0018 FFF7FEFF 		bl	chThdCreateStatic
 3140              	.LVL226:
 3141              		.loc 1 556 0
 3142 001c 039A     		ldr	r2, [sp, #12]
 3143 001e 2368     		ldr	r3, [r4]
 3144 0020 9A42     		cmp	r2, r3
 3145 0022 01D1     		bne	.L228
 3146 0024 04B0     		add	sp, sp, #16
 3147              		.cfi_remember_state
 3148              		.cfi_def_cfa_offset 8
 3149              		@ sp needed
 3150 0026 10BD     		pop	{r4, pc}
 3151              	.L228:
 3152              		.cfi_restore_state
 3153 0028 FFF7FEFF 		bl	__stack_chk_fail
 3154              	.LVL227:
 3155              	.L230:
 3156              		.align	2
 3157              	.L229:
 3158 002c 00000000 		.word	__stack_chk_guard
 3159 0030 00000000 		.word	Deplacement
 3160 0034 00000000 		.word	.LANCHOR16
 3161              		.cfi_endproc
 3162              	.LFE281:
 3163              		.size	deplacement_start, .-deplacement_start
 3164              		.global	left_motor
 3165              		.global	right_motor
 3166              		.section	.bss.cligno,"aw",%nobits
 3167              		.align	2
 3168              		.set	.LANCHOR6,. + 0
 3169              		.type	cligno, %object
 3170              		.size	cligno, 4
 3171              	cligno:
 3172 0000 00000000 		.space	4
 3173              		.section	.bss.left_motor,"aw",%nobits
 3174              		.align	2
 3175              		.set	.LANCHOR3,. + 0
 3176              		.type	left_motor, %object
 3177              		.size	left_motor, 24
 3178              	left_motor:
 3179 0000 00000000 		.space	24
 3179      00000000 
 3179      00000000 
 3179      00000000 
 3179      00000000 
 3180              		.section	.bss.right_motor,"aw",%nobits
 3181              		.align	2
 3182              		.set	.LANCHOR0,. + 0
 3183              		.type	right_motor, %object
 3184              		.size	right_motor, 24
 3185              	right_motor:
 3186 0000 00000000 		.space	24
 3186      00000000 
 3186      00000000 
ARM GAS  /var/folders/j2/t8glr22d56s93xphj_30s8g80000gn/T//cc8l81ic.s 			page 57


 3186      00000000 
 3186      00000000 
 3187              		.section	.bss.waClignotant,"aw",%nobits
 3188              		.align	3
 3189              		.set	.LANCHOR13,. + 0
 3190              		.type	waClignotant, %object
 3191              		.size	waClignotant, 504
 3192              	waClignotant:
 3193 0000 00000000 		.space	504
 3193      00000000 
 3193      00000000 
 3193      00000000 
 3193      00000000 
 3194              		.section	.bss.waDepassement,"aw",%nobits
 3195              		.align	3
 3196              		.set	.LANCHOR14,. + 0
 3197              		.type	waDepassement, %object
 3198              		.size	waDepassement, 504
 3199              	waDepassement:
 3200 0000 00000000 		.space	504
 3200      00000000 
 3200      00000000 
 3200      00000000 
 3200      00000000 
 3201              		.section	.bss.waDeplacement,"aw",%nobits
 3202              		.align	3
 3203              		.set	.LANCHOR16,. + 0
 3204              		.type	waDeplacement, %object
 3205              		.size	waDeplacement, 504
 3206              	waDeplacement:
 3207 0000 00000000 		.space	504
 3207      00000000 
 3207      00000000 
 3207      00000000 
 3207      00000000 
 3208              		.section	.bss.waManoeuvre,"aw",%nobits
 3209              		.align	3
 3210              		.set	.LANCHOR15,. + 0
 3211              		.type	waManoeuvre, %object
 3212              		.size	waManoeuvre, 504
 3213              	waManoeuvre:
 3214 0000 00000000 		.space	504
 3214      00000000 
 3214      00000000 
 3214      00000000 
 3214      00000000 
 3215              		.section	.data.mobile,"aw",%progbits
 3216              		.align	2
 3217              		.set	.LANCHOR8,. + 0
 3218              		.type	mobile, %object
 3219              		.size	mobile, 4
 3220              	mobile:
 3221 0000 01000000 		.word	1
 3222              		.section	.rodata.__FUNCTION__.10003,"a",%progbits
 3223              		.align	2
 3224              		.set	.LANCHOR10,. + 0
 3225              		.type	__FUNCTION__.10003, %object
ARM GAS  /var/folders/j2/t8glr22d56s93xphj_30s8g80000gn/T//cc8l81ic.s 			page 58


 3226              		.size	__FUNCTION__.10003, 10
 3227              	__FUNCTION__.10003:
 3228 0000 4D616E6F 		.ascii	"Manoeuvre\000"
 3228      65757672 
 3228      6500
 3229              		.section	.rodata.__FUNCTION__.10013,"a",%progbits
 3230              		.align	2
 3231              		.set	.LANCHOR4,. + 0
 3232              		.type	__FUNCTION__.10013, %object
 3233              		.size	__FUNCTION__.10013, 11
 3234              	__FUNCTION__.10013:
 3235 0000 436C6967 		.ascii	"Clignotant\000"
 3235      6E6F7461 
 3235      6E7400
 3236              		.section	.rodata.__FUNCTION__.10020,"a",%progbits
 3237              		.align	2
 3238              		.set	.LANCHOR7,. + 0
 3239              		.type	__FUNCTION__.10020, %object
 3240              		.size	__FUNCTION__.10020, 12
 3241              	__FUNCTION__.10020:
 3242 0000 44657061 		.ascii	"Depassement\000"
 3242      7373656D 
 3242      656E7400 
 3243              		.section	.rodata.__FUNCTION__.10027,"a",%progbits
 3244              		.align	2
 3245              		.set	.LANCHOR9,. + 0
 3246              		.type	__FUNCTION__.10027, %object
 3247              		.size	__FUNCTION__.10027, 12
 3248              	__FUNCTION__.10027:
 3249 0000 4465706C 		.ascii	"Deplacement\000"
 3249      6163656D 
 3249      656E7400 
 3250              		.section	.rodata.__func__.7153,"a",%progbits
 3251              		.align	2
 3252              		.set	.LANCHOR5,. + 0
 3253              		.type	__func__.7153, %object
 3254              		.size	__func__.7153, 12
 3255              	__func__.7153:
 3256 0000 63685379 		.ascii	"chSysUnlock\000"
 3256      73556E6C 
 3256      6F636B00 
 3257              		.section	.rodata.pwmcfg_left_motor.9998,"a",%progbits
 3258              		.align	2
 3259              		.set	.LANCHOR12,. + 0
 3260              		.type	pwmcfg_left_motor.9998, %object
 3261              		.size	pwmcfg_left_motor.9998, 52
 3262              	pwmcfg_left_motor.9998:
 3263 0000 A0860100 		.word	100000
 3264 0004 FFFF0000 		.word	65535
 3265 0008 00000000 		.word	left_motor_timer_callback
 3266 000c 01000000 		.word	1
 3267 0010 00000000 		.word	left_motor_pwm_ch1_cb
 3268 0014 00000000 		.word	0
 3269 0018 00000000 		.word	0
 3270 001c 00000000 		.word	0
 3271 0020 00000000 		.word	0
 3272 0024 00000000 		.word	0
ARM GAS  /var/folders/j2/t8glr22d56s93xphj_30s8g80000gn/T//cc8l81ic.s 			page 59


 3273 0028 00000000 		.word	0
 3274 002c 00000000 		.word	0
 3275 0030 00000000 		.space	4
 3276              		.section	.rodata.pwmcfg_right_motor.9997,"a",%progbits
 3277              		.align	2
 3278              		.set	.LANCHOR11,. + 0
 3279              		.type	pwmcfg_right_motor.9997, %object
 3280              		.size	pwmcfg_right_motor.9997, 52
 3281              	pwmcfg_right_motor.9997:
 3282 0000 A0860100 		.word	100000
 3283 0004 FFFF0000 		.word	65535
 3284 0008 00000000 		.word	right_motor_timer_callback
 3285 000c 01000000 		.word	1
 3286 0010 00000000 		.word	right_motor_pwm_ch1_cb
 3287 0014 00000000 		.word	0
 3288 0018 00000000 		.word	0
 3289 001c 00000000 		.word	0
 3290 0020 00000000 		.word	0
 3291 0024 00000000 		.word	0
 3292 0028 00000000 		.word	0
 3293 002c 00000000 		.word	0
 3294 0030 00000000 		.space	4
 3295              		.section	.rodata.step_halt,"a",%progbits
 3296              		.align	2
 3297              		.set	.LANCHOR2,. + 0
 3298              		.type	step_halt, %object
 3299              		.size	step_halt, 4
 3300              	step_halt:
 3301 0000 00000000 		.space	4
 3302              		.section	.rodata.step_table,"a",%progbits
 3303              		.align	2
 3304              		.set	.LANCHOR1,. + 0
 3305              		.type	step_table, %object
 3306              		.size	step_table, 32
 3307              	step_table:
 3308 0000 01       		.byte	1
 3309 0001 00       		.byte	0
 3310 0002 01       		.byte	1
 3311 0003 00       		.byte	0
 3312 0004 00       		.byte	0
 3313 0005 00       		.byte	0
 3314 0006 01       		.byte	1
 3315 0007 00       		.byte	0
 3316 0008 00       		.byte	0
 3317 0009 01       		.byte	1
 3318 000a 01       		.byte	1
 3319 000b 00       		.byte	0
 3320 000c 00       		.byte	0
 3321 000d 01       		.byte	1
 3322 000e 00       		.byte	0
 3323 000f 00       		.byte	0
 3324 0010 00       		.byte	0
 3325 0011 01       		.byte	1
 3326 0012 00       		.byte	0
 3327 0013 01       		.byte	1
 3328 0014 00       		.byte	0
 3329 0015 00       		.byte	0
ARM GAS  /var/folders/j2/t8glr22d56s93xphj_30s8g80000gn/T//cc8l81ic.s 			page 60


 3330 0016 00       		.byte	0
 3331 0017 01       		.byte	1
 3332 0018 01       		.byte	1
 3333 0019 00       		.byte	0
 3334 001a 00       		.byte	0
 3335 001b 01       		.byte	1
 3336 001c 01       		.byte	1
 3337 001d 00       		.byte	0
 3338 001e 00       		.byte	0
 3339 001f 00       		.byte	0
 3340              		.text
 3341              	.Letext0:
 3342              		.file 6 "/Applications/Eclipse_e-puck2.app/Contents/Eclipse_e-puck2/Tools/gcc-arm-none-eabi-7-2017
 3343              		.file 7 "/Applications/Eclipse_e-puck2.app/Contents/Eclipse_e-puck2/Tools/gcc-arm-none-eabi-7-2017
 3344              		.file 8 "/Applications/Eclipse_e-puck2.app/Contents/Eclipse_e-puck2/Tools/gcc-arm-none-eabi-7-2017
 3345              		.file 9 "../../lib/e-puck2_main-processor/ChibiOS//os/rt/ports/ARMCMx/compilers/GCC/chtypes.h"
 3346              		.file 10 "../../lib/e-puck2_main-processor/ChibiOS//os/rt/include/chsystypes.h"
 3347              		.file 11 "../../lib/e-puck2_main-processor/ChibiOS//os/rt/include/chschd.h"
 3348              		.file 12 "../../lib/e-puck2_main-processor/ChibiOS//os/ext/CMSIS/include/core_cm4.h"
 3349              		.file 13 "../../lib/e-puck2_main-processor/ChibiOS//os/ext/CMSIS/ST/system_stm32f4xx.h"
 3350              		.file 14 "../../lib/e-puck2_main-processor/ChibiOS//os/ext/CMSIS/ST/stm32f407xx.h"
 3351              		.file 15 "../../lib/e-puck2_main-processor/ChibiOS//os/rt/ports/ARMCMx/chcore.h"
 3352              		.file 16 "../../lib/e-puck2_main-processor/ChibiOS//os/rt/ports/ARMCMx/chcore_v7m.h"
 3353              		.file 17 "../../lib/e-puck2_main-processor/ChibiOS//os/rt/include/chdebug.h"
 3354              		.file 18 "../../lib/e-puck2_main-processor/ChibiOS//os/rt/include/chtm.h"
 3355              		.file 19 "../../lib/e-puck2_main-processor/ChibiOS//os/rt/include/chstats.h"
 3356              		.file 20 "../../lib/e-puck2_main-processor/ChibiOS//os/rt/include/chsem.h"
 3357              		.file 21 "../../lib/e-puck2_main-processor/ChibiOS//os/rt/include/chmtx.h"
 3358              		.file 22 "../../lib/e-puck2_main-processor/ChibiOS//os/rt/include/chevents.h"
 3359              		.file 23 "../../lib/e-puck2_main-processor/ChibiOS//os/rt/include/chqueues.h"
 3360              		.file 24 "../../lib/e-puck2_main-processor/ChibiOS//os/hal/ports/STM32/STM32F4xx/stm32_dma.h"
 3361              		.file 25 "../../lib/e-puck2_main-processor/ChibiOS//os/hal/include/hal_ioblock.h"
 3362              		.file 26 "../../lib/e-puck2_main-processor/ChibiOS//os/hal/ports/STM32/LLD/GPIOv2/pal_lld.h"
 3363              		.file 27 "../../lib/e-puck2_main-processor/ChibiOS//os/hal/include/adc.h"
 3364              		.file 28 "../../lib/e-puck2_main-processor/ChibiOS//os/hal/ports/STM32/STM32F4xx/adc_lld.h"
 3365              		.file 29 "../../lib/e-puck2_main-processor/ChibiOS//os/hal/include/can.h"
 3366              		.file 30 "../../lib/e-puck2_main-processor/ChibiOS//os/hal/ports/STM32/LLD/can_lld.h"
 3367              		.file 31 "../../lib/e-puck2_main-processor/ChibiOS//os/hal/include/dac.h"
 3368              		.file 32 "../../lib/e-puck2_main-processor/ChibiOS//os/hal/ports/STM32/LLD/DACv1/dac_lld.h"
 3369              		.file 33 "../../lib/e-puck2_main-processor/ChibiOS//os/hal/include/ext.h"
 3370              		.file 34 "../../lib/e-puck2_main-processor/ChibiOS//os/hal/ports/STM32/LLD/ext_lld.h"
 3371              		.file 35 "../../lib/e-puck2_main-processor/ChibiOS//os/hal/include/gpt.h"
 3372              		.file 36 "../../lib/e-puck2_main-processor/ChibiOS//os/hal/ports/STM32/LLD/TIMv1/gpt_lld.h"
 3373              		.file 37 "../../lib/e-puck2_main-processor/ChibiOS//os/hal/ports/STM32/LLD/TIMv1/stm32_tim.h"
 3374              		.file 38 "../../lib/e-puck2_main-processor/ChibiOS//os/hal/include/i2c.h"
 3375              		.file 39 "../../lib/e-puck2_main-processor/ChibiOS//os/hal/ports/STM32/LLD/I2Cv1/i2c_lld.h"
 3376              		.file 40 "../../lib/e-puck2_main-processor/ChibiOS//os/hal/include/i2s.h"
 3377              		.file 41 "../../lib/e-puck2_main-processor/ChibiOS//os/hal/ports/STM32/LLD/SPIv1/i2s_lld.h"
 3378              		.file 42 "../../lib/e-puck2_main-processor/ChibiOS//os/hal/include/pwm.h"
 3379              		.file 43 "../../lib/e-puck2_main-processor/ChibiOS//os/hal/ports/STM32/LLD/TIMv1/pwm_lld.h"
 3380              		.file 44 "../../lib/e-puck2_main-processor/ChibiOS//os/hal/include/serial.h"
 3381              		.file 45 "../../lib/e-puck2_main-processor/ChibiOS//os/hal/ports/STM32/LLD/USARTv1/serial_lld.h"
 3382              		.file 46 "../../lib/e-puck2_main-processor/ChibiOS//os/hal/include/sdc.h"
 3383              		.file 47 "../../lib/e-puck2_main-processor/ChibiOS//os/hal/ports/STM32/LLD/sdc_lld.h"
 3384              		.file 48 "../../lib/e-puck2_main-processor/ChibiOS//os/hal/include/spi.h"
 3385              		.file 49 "../../lib/e-puck2_main-processor/ChibiOS//os/hal/ports/STM32/LLD/SPIv1/spi_lld.h"
 3386              		.file 50 "../../lib/e-puck2_main-processor/ChibiOS//os/hal/include/usb.h"
ARM GAS  /var/folders/j2/t8glr22d56s93xphj_30s8g80000gn/T//cc8l81ic.s 			page 61


 3387              		.file 51 "../../lib/e-puck2_main-processor/ChibiOS//os/hal/ports/STM32/LLD/OTGv1/usb_lld.h"
 3388              		.file 52 "../../lib/e-puck2_main-processor/ChibiOS//os/hal/ports/STM32/LLD/OTGv1/stm32_otg.h"
 3389              		.file 53 "../../lib/e-puck2_main-processor/src/leds.h"
 3390              		.file 54 "../../lib/e-puck2_main-processor/ChibiOS//os/rt/include/chthreads.h"
 3391              		.file 55 "../../lib/e-puck2_main-processor/src/sensors/proximity.h"
 3392              		.section	.debug_info,"",%progbits
 3393              	.Ldebug_info0:
 3394 0000 F9510000 		.4byte	0x51f9
 3395 0004 0400     		.2byte	0x4
 3396 0006 00000000 		.4byte	.Ldebug_abbrev0
 3397 000a 04       		.byte	0x4
 3398 000b 01       		.uleb128 0x1
 3399 000c 860D0000 		.4byte	.LASF795
 3400 0010 0C       		.byte	0xc
 3401 0011 2F1C0000 		.4byte	.LASF796
 3402 0015 AA070000 		.4byte	.LASF797
 3403 0019 40020000 		.4byte	.Ldebug_ranges0+0x240
 3404 001d 00000000 		.4byte	0
 3405 0021 00000000 		.4byte	.Ldebug_line0
 3406 0025 02       		.uleb128 0x2
 3407 0026 04       		.byte	0x4
 3408 0027 05       		.byte	0x5
 3409 0028 696E7400 		.ascii	"int\000"
 3410 002c 03       		.uleb128 0x3
 3411 002d D20B0000 		.4byte	.LASF4
 3412 0031 06       		.byte	0x6
 3413 0032 D8       		.byte	0xd8
 3414 0033 37000000 		.4byte	0x37
 3415 0037 04       		.uleb128 0x4
 3416 0038 04       		.byte	0x4
 3417 0039 07       		.byte	0x7
 3418 003a 02210000 		.4byte	.LASF0
 3419 003e 04       		.uleb128 0x4
 3420 003f 08       		.byte	0x8
 3421 0040 05       		.byte	0x5
 3422 0041 AF1E0000 		.4byte	.LASF1
 3423 0045 04       		.uleb128 0x4
 3424 0046 08       		.byte	0x8
 3425 0047 04       		.byte	0x4
 3426 0048 7E160000 		.4byte	.LASF2
 3427 004c 04       		.uleb128 0x4
 3428 004d 01       		.byte	0x1
 3429 004e 06       		.byte	0x6
 3430 004f E4120000 		.4byte	.LASF3
 3431 0053 03       		.uleb128 0x3
 3432 0054 AD000000 		.4byte	.LASF5
 3433 0058 07       		.byte	0x7
 3434 0059 2B       		.byte	0x2b
 3435 005a 5E000000 		.4byte	0x5e
 3436 005e 04       		.uleb128 0x4
 3437 005f 01       		.byte	0x1
 3438 0060 08       		.byte	0x8
 3439 0061 64080000 		.4byte	.LASF6
 3440 0065 03       		.uleb128 0x3
 3441 0066 B6060000 		.4byte	.LASF7
 3442 006a 07       		.byte	0x7
 3443 006b 37       		.byte	0x37
ARM GAS  /var/folders/j2/t8glr22d56s93xphj_30s8g80000gn/T//cc8l81ic.s 			page 62


 3444 006c 70000000 		.4byte	0x70
 3445 0070 04       		.uleb128 0x4
 3446 0071 02       		.byte	0x2
 3447 0072 05       		.byte	0x5
 3448 0073 51210000 		.4byte	.LASF8
 3449 0077 03       		.uleb128 0x3
 3450 0078 C0060000 		.4byte	.LASF9
 3451 007c 07       		.byte	0x7
 3452 007d 39       		.byte	0x39
 3453 007e 82000000 		.4byte	0x82
 3454 0082 04       		.uleb128 0x4
 3455 0083 02       		.byte	0x2
 3456 0084 07       		.byte	0x7
 3457 0085 C9120000 		.4byte	.LASF10
 3458 0089 03       		.uleb128 0x3
 3459 008a 8A1A0000 		.4byte	.LASF11
 3460 008e 07       		.byte	0x7
 3461 008f 4D       		.byte	0x4d
 3462 0090 94000000 		.4byte	0x94
 3463 0094 04       		.uleb128 0x4
 3464 0095 04       		.byte	0x4
 3465 0096 05       		.byte	0x5
 3466 0097 54150000 		.4byte	.LASF12
 3467 009b 03       		.uleb128 0x3
 3468 009c 941A0000 		.4byte	.LASF13
 3469 00a0 07       		.byte	0x7
 3470 00a1 4F       		.byte	0x4f
 3471 00a2 A6000000 		.4byte	0xa6
 3472 00a6 04       		.uleb128 0x4
 3473 00a7 04       		.byte	0x4
 3474 00a8 07       		.byte	0x7
 3475 00a9 DE160000 		.4byte	.LASF14
 3476 00ad 03       		.uleb128 0x3
 3477 00ae 9C0F0000 		.4byte	.LASF15
 3478 00b2 07       		.byte	0x7
 3479 00b3 69       		.byte	0x69
 3480 00b4 B8000000 		.4byte	0xb8
 3481 00b8 04       		.uleb128 0x4
 3482 00b9 08       		.byte	0x8
 3483 00ba 07       		.byte	0x7
 3484 00bb 7A1C0000 		.4byte	.LASF16
 3485 00bf 03       		.uleb128 0x3
 3486 00c0 EF0B0000 		.4byte	.LASF17
 3487 00c4 08       		.byte	0x8
 3488 00c5 18       		.byte	0x18
 3489 00c6 53000000 		.4byte	0x53
 3490 00ca 05       		.uleb128 0x5
 3491 00cb BF000000 		.4byte	0xbf
 3492 00cf 03       		.uleb128 0x3
 3493 00d0 AC120000 		.4byte	.LASF18
 3494 00d4 08       		.byte	0x8
 3495 00d5 20       		.byte	0x20
 3496 00d6 65000000 		.4byte	0x65
 3497 00da 03       		.uleb128 0x3
 3498 00db 90010000 		.4byte	.LASF19
 3499 00df 08       		.byte	0x8
 3500 00e0 24       		.byte	0x24
ARM GAS  /var/folders/j2/t8glr22d56s93xphj_30s8g80000gn/T//cc8l81ic.s 			page 63


 3501 00e1 77000000 		.4byte	0x77
 3502 00e5 03       		.uleb128 0x3
 3503 00e6 EE020000 		.4byte	.LASF20
 3504 00ea 08       		.byte	0x8
 3505 00eb 2C       		.byte	0x2c
 3506 00ec 89000000 		.4byte	0x89
 3507 00f0 06       		.uleb128 0x6
 3508 00f1 E5000000 		.4byte	0xe5
 3509 00f5 03       		.uleb128 0x3
 3510 00f6 4F160000 		.4byte	.LASF21
 3511 00fa 08       		.byte	0x8
 3512 00fb 30       		.byte	0x30
 3513 00fc 9B000000 		.4byte	0x9b
 3514 0100 06       		.uleb128 0x6
 3515 0101 F5000000 		.4byte	0xf5
 3516 0105 05       		.uleb128 0x5
 3517 0106 00010000 		.4byte	0x100
 3518 010a 03       		.uleb128 0x3
 3519 010b 95090000 		.4byte	.LASF22
 3520 010f 08       		.byte	0x8
 3521 0110 3C       		.byte	0x3c
 3522 0111 AD000000 		.4byte	0xad
 3523 0115 03       		.uleb128 0x3
 3524 0116 550B0000 		.4byte	.LASF23
 3525 011a 09       		.byte	0x9
 3526 011b 45       		.byte	0x45
 3527 011c F5000000 		.4byte	0xf5
 3528 0120 03       		.uleb128 0x3
 3529 0121 C7040000 		.4byte	.LASF24
 3530 0125 09       		.byte	0x9
 3531 0126 46       		.byte	0x46
 3532 0127 0A010000 		.4byte	0x10a
 3533 012b 03       		.uleb128 0x3
 3534 012c D3100000 		.4byte	.LASF25
 3535 0130 09       		.byte	0x9
 3536 0131 48       		.byte	0x48
 3537 0132 BF000000 		.4byte	0xbf
 3538 0136 03       		.uleb128 0x3
 3539 0137 671D0000 		.4byte	.LASF26
 3540 013b 09       		.byte	0x9
 3541 013c 49       		.byte	0x49
 3542 013d BF000000 		.4byte	0xbf
 3543 0141 03       		.uleb128 0x3
 3544 0142 91100000 		.4byte	.LASF27
 3545 0146 09       		.byte	0x9
 3546 0147 4A       		.byte	0x4a
 3547 0148 BF000000 		.4byte	0xbf
 3548 014c 03       		.uleb128 0x3
 3549 014d 37120000 		.4byte	.LASF28
 3550 0151 09       		.byte	0x9
 3551 0152 4B       		.byte	0x4b
 3552 0153 BF000000 		.4byte	0xbf
 3553 0157 03       		.uleb128 0x3
 3554 0158 DE050000 		.4byte	.LASF29
 3555 015c 09       		.byte	0x9
 3556 015d 4C       		.byte	0x4c
 3557 015e F5000000 		.4byte	0xf5
ARM GAS  /var/folders/j2/t8glr22d56s93xphj_30s8g80000gn/T//cc8l81ic.s 			page 64


 3558 0162 03       		.uleb128 0x3
 3559 0163 4E000000 		.4byte	.LASF30
 3560 0167 09       		.byte	0x9
 3561 0168 4D       		.byte	0x4d
 3562 0169 E5000000 		.4byte	0xe5
 3563 016d 03       		.uleb128 0x3
 3564 016e 93160000 		.4byte	.LASF31
 3565 0172 09       		.byte	0x9
 3566 0173 4F       		.byte	0x4f
 3567 0174 F5000000 		.4byte	0xf5
 3568 0178 03       		.uleb128 0x3
 3569 0179 2E1F0000 		.4byte	.LASF32
 3570 017d 09       		.byte	0x9
 3571 017e 50       		.byte	0x50
 3572 017f F5000000 		.4byte	0xf5
 3573 0183 03       		.uleb128 0x3
 3574 0184 D8180000 		.4byte	.LASF33
 3575 0188 09       		.byte	0x9
 3576 0189 51       		.byte	0x51
 3577 018a E5000000 		.4byte	0xe5
 3578 018e 03       		.uleb128 0x3
 3579 018f 0F130000 		.4byte	.LASF34
 3580 0193 09       		.byte	0x9
 3581 0194 52       		.byte	0x52
 3582 0195 F5000000 		.4byte	0xf5
 3583 0199 03       		.uleb128 0x3
 3584 019a 02030000 		.4byte	.LASF35
 3585 019e 0A       		.byte	0xa
 3586 019f 33       		.byte	0x33
 3587 01a0 F5000000 		.4byte	0xf5
 3588 01a4 06       		.uleb128 0x6
 3589 01a5 99010000 		.4byte	0x199
 3590 01a9 03       		.uleb128 0x3
 3591 01aa A6020000 		.4byte	.LASF36
 3592 01ae 0A       		.byte	0xa
 3593 01af 3F       		.byte	0x3f
 3594 01b0 B4010000 		.4byte	0x1b4
 3595 01b4 07       		.uleb128 0x7
 3596 01b5 9C080000 		.4byte	.LASF60
 3597 01b9 68       		.byte	0x68
 3598 01ba 0B       		.byte	0xb
 3599 01bb C2       		.byte	0xc2
 3600 01bc D2020000 		.4byte	0x2d2
 3601 01c0 08       		.uleb128 0x8
 3602 01c1 3A100000 		.4byte	.LASF37
 3603 01c5 0B       		.byte	0xb
 3604 01c6 C3       		.byte	0xc3
 3605 01c7 DD020000 		.4byte	0x2dd
 3606 01cb 00       		.byte	0
 3607 01cc 08       		.uleb128 0x8
 3608 01cd 0F0C0000 		.4byte	.LASF38
 3609 01d1 0B       		.byte	0xb
 3610 01d2 C5       		.byte	0xc5
 3611 01d3 DD020000 		.4byte	0x2dd
 3612 01d7 04       		.byte	0x4
 3613 01d8 08       		.uleb128 0x8
 3614 01d9 850F0000 		.4byte	.LASF39
ARM GAS  /var/folders/j2/t8glr22d56s93xphj_30s8g80000gn/T//cc8l81ic.s 			page 65


 3615 01dd 0B       		.byte	0xb
 3616 01de C7       		.byte	0xc7
 3617 01df 57010000 		.4byte	0x157
 3618 01e3 08       		.byte	0x8
 3619 01e4 08       		.uleb128 0x8
 3620 01e5 36090000 		.4byte	.LASF40
 3621 01e9 0B       		.byte	0xb
 3622 01ea C8       		.byte	0xc8
 3623 01eb E70C0000 		.4byte	0xce7
 3624 01ef 0C       		.byte	0xc
 3625 01f0 08       		.uleb128 0x8
 3626 01f1 F4010000 		.4byte	.LASF41
 3627 01f5 0B       		.byte	0xb
 3628 01f6 CA       		.byte	0xca
 3629 01f7 DD020000 		.4byte	0x2dd
 3630 01fb 10       		.byte	0x10
 3631 01fc 08       		.uleb128 0x8
 3632 01fd B61F0000 		.4byte	.LASF42
 3633 0201 0B       		.byte	0xb
 3634 0202 CB       		.byte	0xcb
 3635 0203 DD020000 		.4byte	0x2dd
 3636 0207 14       		.byte	0x14
 3637 0208 08       		.uleb128 0x8
 3638 0209 D51D0000 		.4byte	.LASF43
 3639 020d 0B       		.byte	0xb
 3640 020e D2       		.byte	0xd2
 3641 020f 5D100000 		.4byte	0x105d
 3642 0213 18       		.byte	0x18
 3643 0214 08       		.uleb128 0x8
 3644 0215 CD180000 		.4byte	.LASF44
 3645 0219 0B       		.byte	0xb
 3646 021a D8       		.byte	0xd8
 3647 021b 74100000 		.4byte	0x1074
 3648 021f 1C       		.byte	0x1c
 3649 0220 08       		.uleb128 0x8
 3650 0221 EF210000 		.4byte	.LASF45
 3651 0225 0B       		.byte	0xb
 3652 0226 DD       		.byte	0xdd
 3653 0227 36010000 		.4byte	0x136
 3654 022b 20       		.byte	0x20
 3655 022c 08       		.uleb128 0x8
 3656 022d 221D0000 		.4byte	.LASF46
 3657 0231 0B       		.byte	0xb
 3658 0232 E1       		.byte	0xe1
 3659 0233 2B010000 		.4byte	0x12b
 3660 0237 21       		.byte	0x21
 3661 0238 08       		.uleb128 0x8
 3662 0239 21150000 		.4byte	.LASF47
 3663 023d 0B       		.byte	0xb
 3664 023e E6       		.byte	0xe6
 3665 023f 41010000 		.4byte	0x141
 3666 0243 22       		.byte	0x22
 3667 0244 08       		.uleb128 0x8
 3668 0245 F9120000 		.4byte	.LASF48
 3669 0249 0B       		.byte	0xb
 3670 024a EC       		.byte	0xec
 3671 024b 4C010000 		.4byte	0x14c
ARM GAS  /var/folders/j2/t8glr22d56s93xphj_30s8g80000gn/T//cc8l81ic.s 			page 66


 3672 024f 23       		.byte	0x23
 3673 0250 08       		.uleb128 0x8
 3674 0251 1A150000 		.4byte	.LASF49
 3675 0255 0B       		.byte	0xb
 3676 0256 F3       		.byte	0xf3
 3677 0257 A4010000 		.4byte	0x1a4
 3678 025b 24       		.byte	0x24
 3679 025c 09       		.uleb128 0x9
 3680 025d 705F7500 		.ascii	"p_u\000"
 3681 0261 0B       		.byte	0xb
 3682 0262 3101     		.2byte	0x131
 3683 0264 8C0F0000 		.4byte	0xf8c
 3684 0268 28       		.byte	0x28
 3685 0269 0A       		.uleb128 0xa
 3686 026a 22040000 		.4byte	.LASF50
 3687 026e 0B       		.byte	0xb
 3688 026f 3601     		.2byte	0x136
 3689 0271 E3020000 		.4byte	0x2e3
 3690 0275 2C       		.byte	0x2c
 3691 0276 0A       		.uleb128 0xa
 3692 0277 9A130000 		.4byte	.LASF51
 3693 027b 0B       		.byte	0xb
 3694 027c 3C01     		.2byte	0x13c
 3695 027e 07030000 		.4byte	0x307
 3696 0282 30       		.byte	0x30
 3697 0283 0A       		.uleb128 0xa
 3698 0284 E3060000 		.4byte	.LASF52
 3699 0288 0B       		.byte	0xb
 3700 0289 4001     		.2byte	0x140
 3701 028b 62010000 		.4byte	0x162
 3702 028f 38       		.byte	0x38
 3703 0290 0A       		.uleb128 0xa
 3704 0291 331B0000 		.4byte	.LASF53
 3705 0295 0B       		.byte	0xb
 3706 0296 4601     		.2byte	0x146
 3707 0298 6D010000 		.4byte	0x16d
 3708 029c 3C       		.byte	0x3c
 3709 029d 0A       		.uleb128 0xa
 3710 029e 521D0000 		.4byte	.LASF54
 3711 02a2 0B       		.byte	0xb
 3712 02a3 4D01     		.2byte	0x14d
 3713 02a5 57100000 		.4byte	0x1057
 3714 02a9 40       		.byte	0x40
 3715 02aa 0A       		.uleb128 0xa
 3716 02ab D5190000 		.4byte	.LASF55
 3717 02af 0B       		.byte	0xb
 3718 02b0 5101     		.2byte	0x151
 3719 02b2 57010000 		.4byte	0x157
 3720 02b6 44       		.byte	0x44
 3721 02b7 0A       		.uleb128 0xa
 3722 02b8 99100000 		.4byte	.LASF56
 3723 02bc 0B       		.byte	0xb
 3724 02bd 5801     		.2byte	0x158
 3725 02bf BA030000 		.4byte	0x3ba
 3726 02c3 48       		.byte	0x48
 3727 02c4 0A       		.uleb128 0xa
 3728 02c5 2A220000 		.4byte	.LASF57
ARM GAS  /var/folders/j2/t8glr22d56s93xphj_30s8g80000gn/T//cc8l81ic.s 			page 67


 3729 02c9 0B       		.byte	0xb
 3730 02ca 5E01     		.2byte	0x15e
 3731 02cc 3D0F0000 		.4byte	0xf3d
 3732 02d0 50       		.byte	0x50
 3733 02d1 00       		.byte	0
 3734 02d2 03       		.uleb128 0x3
 3735 02d3 2B200000 		.4byte	.LASF58
 3736 02d7 0A       		.byte	0xa
 3737 02d8 44       		.byte	0x44
 3738 02d9 DD020000 		.4byte	0x2dd
 3739 02dd 0B       		.uleb128 0xb
 3740 02de 04       		.byte	0x4
 3741 02df A9010000 		.4byte	0x1a9
 3742 02e3 03       		.uleb128 0x3
 3743 02e4 61040000 		.4byte	.LASF59
 3744 02e8 0A       		.byte	0xa
 3745 02e9 49       		.byte	0x49
 3746 02ea EE020000 		.4byte	0x2ee
 3747 02ee 07       		.uleb128 0x7
 3748 02ef 09220000 		.4byte	.LASF61
 3749 02f3 04       		.byte	0x4
 3750 02f4 0B       		.byte	0xb
 3751 02f5 B0       		.byte	0xb0
 3752 02f6 07030000 		.4byte	0x307
 3753 02fa 08       		.uleb128 0x8
 3754 02fb 3A100000 		.4byte	.LASF37
 3755 02ff 0B       		.byte	0xb
 3756 0300 B1       		.byte	0xb1
 3757 0301 DD020000 		.4byte	0x2dd
 3758 0305 00       		.byte	0
 3759 0306 00       		.byte	0
 3760 0307 03       		.uleb128 0x3
 3761 0308 F0140000 		.4byte	.LASF62
 3762 030c 0A       		.byte	0xa
 3763 030d 50       		.byte	0x50
 3764 030e 12030000 		.4byte	0x312
 3765 0312 07       		.uleb128 0x7
 3766 0313 E3010000 		.4byte	.LASF63
 3767 0317 08       		.byte	0x8
 3768 0318 0B       		.byte	0xb
 3769 0319 B7       		.byte	0xb7
 3770 031a 37030000 		.4byte	0x337
 3771 031e 08       		.uleb128 0x8
 3772 031f 3A100000 		.4byte	.LASF37
 3773 0323 0B       		.byte	0xb
 3774 0324 B8       		.byte	0xb8
 3775 0325 DD020000 		.4byte	0x2dd
 3776 0329 00       		.byte	0
 3777 032a 08       		.uleb128 0x8
 3778 032b 0F0C0000 		.4byte	.LASF38
 3779 032f 0B       		.byte	0xb
 3780 0330 B9       		.byte	0xb9
 3781 0331 DD020000 		.4byte	0x2dd
 3782 0335 04       		.byte	0x4
 3783 0336 00       		.byte	0
 3784 0337 03       		.uleb128 0x3
 3785 0338 8F080000 		.4byte	.LASF64
ARM GAS  /var/folders/j2/t8glr22d56s93xphj_30s8g80000gn/T//cc8l81ic.s 			page 68


 3786 033c 0A       		.byte	0xa
 3787 033d 57       		.byte	0x57
 3788 033e 42030000 		.4byte	0x342
 3789 0342 0C       		.uleb128 0xc
 3790 0343 761A0000 		.4byte	.LASF65
 3791 0347 1C       		.byte	0x1c
 3792 0348 0B       		.byte	0xb
 3793 0349 9001     		.2byte	0x190
 3794 034b 9E030000 		.4byte	0x39e
 3795 034f 0A       		.uleb128 0xa
 3796 0350 BD170000 		.4byte	.LASF66
 3797 0354 0B       		.byte	0xb
 3798 0355 9101     		.2byte	0x191
 3799 0357 07030000 		.4byte	0x307
 3800 035b 00       		.byte	0
 3801 035c 0A       		.uleb128 0xa
 3802 035d 281C0000 		.4byte	.LASF67
 3803 0361 0B       		.byte	0xb
 3804 0362 9201     		.2byte	0x192
 3805 0364 57010000 		.4byte	0x157
 3806 0368 08       		.byte	0x8
 3807 0369 0A       		.uleb128 0xa
 3808 036a 180B0000 		.4byte	.LASF68
 3809 036e 0B       		.byte	0xb
 3810 036f 9401     		.2byte	0x194
 3811 0371 E70C0000 		.4byte	0xce7
 3812 0375 0C       		.byte	0xc
 3813 0376 0A       		.uleb128 0xa
 3814 0377 CE110000 		.4byte	.LASF69
 3815 037b 0B       		.byte	0xb
 3816 037c 9701     		.2byte	0x197
 3817 037e DD020000 		.4byte	0x2dd
 3818 0382 10       		.byte	0x10
 3819 0383 0A       		.uleb128 0xa
 3820 0384 070C0000 		.4byte	.LASF70
 3821 0388 0B       		.byte	0xb
 3822 0389 9801     		.2byte	0x198
 3823 038b DD020000 		.4byte	0x2dd
 3824 038f 14       		.byte	0x14
 3825 0390 0A       		.uleb128 0xa
 3826 0391 5B090000 		.4byte	.LASF71
 3827 0395 0B       		.byte	0xb
 3828 0396 9B01     		.2byte	0x19b
 3829 0398 DD020000 		.4byte	0x2dd
 3830 039c 18       		.byte	0x18
 3831 039d 00       		.byte	0
 3832 039e 03       		.uleb128 0x3
 3833 039f 8C190000 		.4byte	.LASF72
 3834 03a3 0A       		.byte	0xa
 3835 03a4 5C       		.byte	0x5c
 3836 03a5 A9030000 		.4byte	0x3a9
 3837 03a9 0B       		.uleb128 0xb
 3838 03aa 04       		.byte	0x4
 3839 03ab AF030000 		.4byte	0x3af
 3840 03af 0D       		.uleb128 0xd
 3841 03b0 BA030000 		.4byte	0x3ba
 3842 03b4 0E       		.uleb128 0xe
ARM GAS  /var/folders/j2/t8glr22d56s93xphj_30s8g80000gn/T//cc8l81ic.s 			page 69


 3843 03b5 BA030000 		.4byte	0x3ba
 3844 03b9 00       		.byte	0
 3845 03ba 0F       		.uleb128 0xf
 3846 03bb 04       		.byte	0x4
 3847 03bc 03       		.uleb128 0x3
 3848 03bd FC0A0000 		.4byte	.LASF73
 3849 03c1 0A       		.byte	0xa
 3850 03c2 61       		.byte	0x61
 3851 03c3 C7030000 		.4byte	0x3c7
 3852 03c7 0C       		.uleb128 0xc
 3853 03c8 111D0000 		.4byte	.LASF74
 3854 03cc 14       		.byte	0x14
 3855 03cd 0B       		.byte	0xb
 3856 03ce 6B01     		.2byte	0x16b
 3857 03d0 16040000 		.4byte	0x416
 3858 03d4 0A       		.uleb128 0xa
 3859 03d5 1E0B0000 		.4byte	.LASF75
 3860 03d9 0B       		.byte	0xb
 3861 03da 6C01     		.2byte	0x16c
 3862 03dc 7A100000 		.4byte	0x107a
 3863 03e0 00       		.byte	0
 3864 03e1 0A       		.uleb128 0xa
 3865 03e2 3A080000 		.4byte	.LASF76
 3866 03e6 0B       		.byte	0xb
 3867 03e7 6D01     		.2byte	0x16d
 3868 03e9 7A100000 		.4byte	0x107a
 3869 03ed 04       		.byte	0x4
 3870 03ee 0A       		.uleb128 0xa
 3871 03ef 75120000 		.4byte	.LASF77
 3872 03f3 0B       		.byte	0xb
 3873 03f4 6E01     		.2byte	0x16e
 3874 03f6 99010000 		.4byte	0x199
 3875 03fa 08       		.byte	0x8
 3876 03fb 0A       		.uleb128 0xa
 3877 03fc FC1C0000 		.4byte	.LASF78
 3878 0400 0B       		.byte	0xb
 3879 0401 6F01     		.2byte	0x16f
 3880 0403 9E030000 		.4byte	0x39e
 3881 0407 0C       		.byte	0xc
 3882 0408 0A       		.uleb128 0xa
 3883 0409 3C090000 		.4byte	.LASF79
 3884 040d 0B       		.byte	0xb
 3885 040e 7101     		.2byte	0x171
 3886 0410 BA030000 		.4byte	0x3ba
 3887 0414 10       		.byte	0x10
 3888 0415 00       		.byte	0
 3889 0416 03       		.uleb128 0x3
 3890 0417 341E0000 		.4byte	.LASF80
 3891 041b 0A       		.byte	0xa
 3892 041c 66       		.byte	0x66
 3893 041d 21040000 		.4byte	0x421
 3894 0421 0C       		.uleb128 0xc
 3895 0422 D0020000 		.4byte	.LASF81
 3896 0426 10       		.byte	0x10
 3897 0427 0B       		.byte	0xb
 3898 0428 7B01     		.2byte	0x17b
 3899 042a 63040000 		.4byte	0x463
ARM GAS  /var/folders/j2/t8glr22d56s93xphj_30s8g80000gn/T//cc8l81ic.s 			page 70


 3900 042e 0A       		.uleb128 0xa
 3901 042f 1E0B0000 		.4byte	.LASF75
 3902 0433 0B       		.byte	0xb
 3903 0434 7C01     		.2byte	0x17c
 3904 0436 7A100000 		.4byte	0x107a
 3905 043a 00       		.byte	0
 3906 043b 0A       		.uleb128 0xa
 3907 043c 3A080000 		.4byte	.LASF76
 3908 0440 0B       		.byte	0xb
 3909 0441 7E01     		.2byte	0x17e
 3910 0443 7A100000 		.4byte	0x107a
 3911 0447 04       		.byte	0x4
 3912 0448 0A       		.uleb128 0xa
 3913 0449 75120000 		.4byte	.LASF77
 3914 044d 0B       		.byte	0xb
 3915 044e 8001     		.2byte	0x180
 3916 0450 99010000 		.4byte	0x199
 3917 0454 08       		.byte	0x8
 3918 0455 0A       		.uleb128 0xa
 3919 0456 1A010000 		.4byte	.LASF82
 3920 045a 0B       		.byte	0xb
 3921 045b 8201     		.2byte	0x182
 3922 045d A4010000 		.4byte	0x1a4
 3923 0461 0C       		.byte	0xc
 3924 0462 00       		.byte	0
 3925 0463 03       		.uleb128 0x3
 3926 0464 03090000 		.4byte	.LASF83
 3927 0468 0A       		.byte	0xa
 3928 0469 6B       		.byte	0x6b
 3929 046a 6E040000 		.4byte	0x46e
 3930 046e 10       		.uleb128 0x10
 3931 046f B61A0000 		.4byte	.LASF84
 3932 0473 1404     		.2byte	0x414
 3933 0475 0B       		.byte	0xb
 3934 0476 A201     		.2byte	0x1a2
 3935 0478 B1040000 		.4byte	0x4b1
 3936 047c 0A       		.uleb128 0xa
 3937 047d B0110000 		.4byte	.LASF85
 3938 0481 0B       		.byte	0xb
 3939 0482 AA01     		.2byte	0x1aa
 3940 0484 63100000 		.4byte	0x1063
 3941 0488 00       		.byte	0
 3942 0489 0A       		.uleb128 0xa
 3943 048a 71110000 		.4byte	.LASF86
 3944 048e 0B       		.byte	0xb
 3945 048f AF01     		.2byte	0x1af
 3946 0491 83010000 		.4byte	0x183
 3947 0495 04       		.byte	0x4
 3948 0496 0A       		.uleb128 0xa
 3949 0497 DA010000 		.4byte	.LASF87
 3950 049b 0B       		.byte	0xb
 3951 049c B301     		.2byte	0x1b3
 3952 049e 83010000 		.4byte	0x183
 3953 04a2 08       		.byte	0x8
 3954 04a3 0A       		.uleb128 0xa
 3955 04a4 77140000 		.4byte	.LASF88
 3956 04a8 0B       		.byte	0xb
ARM GAS  /var/folders/j2/t8glr22d56s93xphj_30s8g80000gn/T//cc8l81ic.s 			page 71


 3957 04a9 B901     		.2byte	0x1b9
 3958 04ab CF0E0000 		.4byte	0xecf
 3959 04af 0C       		.byte	0xc
 3960 04b0 00       		.byte	0
 3961 04b1 03       		.uleb128 0x3
 3962 04b2 A1000000 		.4byte	.LASF89
 3963 04b6 0A       		.byte	0xa
 3964 04b7 70       		.byte	0x70
 3965 04b8 BC040000 		.4byte	0x4bc
 3966 04bc 10       		.uleb128 0x10
 3967 04bd 67140000 		.4byte	.LASF90
 3968 04c1 7006     		.2byte	0x670
 3969 04c3 0B       		.byte	0xb
 3970 04c4 C201     		.2byte	0x1c2
 3971 04c6 29050000 		.4byte	0x529
 3972 04ca 0A       		.uleb128 0xa
 3973 04cb 5B040000 		.4byte	.LASF91
 3974 04cf 0B       		.byte	0xb
 3975 04d0 C601     		.2byte	0x1c6
 3976 04d2 37030000 		.4byte	0x337
 3977 04d6 00       		.byte	0
 3978 04d7 0A       		.uleb128 0xa
 3979 04d8 0C040000 		.4byte	.LASF92
 3980 04dc 0B       		.byte	0xb
 3981 04dd CA01     		.2byte	0x1ca
 3982 04df 16040000 		.4byte	0x416
 3983 04e3 1C       		.byte	0x1c
 3984 04e4 09       		.uleb128 0x9
 3985 04e5 64626700 		.ascii	"dbg\000"
 3986 04e9 0B       		.byte	0xb
 3987 04ea CE01     		.2byte	0x1ce
 3988 04ec 63040000 		.4byte	0x463
 3989 04f0 2C       		.byte	0x2c
 3990 04f1 11       		.uleb128 0x11
 3991 04f2 5D150000 		.4byte	.LASF93
 3992 04f6 0B       		.byte	0xb
 3993 04f7 D201     		.2byte	0x1d2
 3994 04f9 A9010000 		.4byte	0x1a9
 3995 04fd 4004     		.2byte	0x440
 3996 04ff 12       		.uleb128 0x12
 3997 0500 746D00   		.ascii	"tm\000"
 3998 0503 0B       		.byte	0xb
 3999 0504 D701     		.2byte	0x1d7
 4000 0506 EF0E0000 		.4byte	0xeef
 4001 050a A804     		.2byte	0x4a8
 4002 050c 11       		.uleb128 0x11
 4003 050d D90B0000 		.4byte	.LASF94
 4004 0511 0B       		.byte	0xb
 4005 0512 DD01     		.2byte	0x1dd
 4006 0514 810F0000 		.4byte	0xf81
 4007 0518 B004     		.2byte	0x4b0
 4008 051a 11       		.uleb128 0x11
 4009 051b D91C0000 		.4byte	.LASF95
 4010 051f 0B       		.byte	0xb
 4011 0520 E301     		.2byte	0x1e3
 4012 0522 80100000 		.4byte	0x1080
 4013 0526 E804     		.2byte	0x4e8
ARM GAS  /var/folders/j2/t8glr22d56s93xphj_30s8g80000gn/T//cc8l81ic.s 			page 72


 4014 0528 00       		.byte	0
 4015 0529 13       		.uleb128 0x13
 4016 052a F5000000 		.4byte	0xf5
 4017 052e 39050000 		.4byte	0x539
 4018 0532 14       		.uleb128 0x14
 4019 0533 37000000 		.4byte	0x37
 4020 0537 01       		.byte	0x1
 4021 0538 00       		.byte	0
 4022 0539 13       		.uleb128 0x13
 4023 053a F5000000 		.4byte	0xf5
 4024 053e 49050000 		.4byte	0x549
 4025 0542 14       		.uleb128 0x14
 4026 0543 37000000 		.4byte	0x37
 4027 0547 07       		.byte	0x7
 4028 0548 00       		.byte	0
 4029 0549 15       		.uleb128 0x15
 4030 054a 5D1C0000 		.4byte	.LASF96
 4031 054e 0C       		.byte	0xc
 4032 054f A706     		.2byte	0x6a7
 4033 0551 F0000000 		.4byte	0xf0
 4034 0555 16       		.uleb128 0x16
 4035 0556 C3130000 		.4byte	.LASF97
 4036 055a 0D       		.byte	0xd
 4037 055b 4C       		.byte	0x4c
 4038 055c F5000000 		.4byte	0xf5
 4039 0560 17       		.uleb128 0x17
 4040 0561 50       		.byte	0x50
 4041 0562 0E       		.byte	0xe
 4042 0563 C4       		.byte	0xc4
 4043 0564 57060000 		.4byte	0x657
 4044 0568 18       		.uleb128 0x18
 4045 0569 535200   		.ascii	"SR\000"
 4046 056c 0E       		.byte	0xe
 4047 056d C6       		.byte	0xc6
 4048 056e 00010000 		.4byte	0x100
 4049 0572 00       		.byte	0
 4050 0573 18       		.uleb128 0x18
 4051 0574 43523100 		.ascii	"CR1\000"
 4052 0578 0E       		.byte	0xe
 4053 0579 C7       		.byte	0xc7
 4054 057a 00010000 		.4byte	0x100
 4055 057e 04       		.byte	0x4
 4056 057f 18       		.uleb128 0x18
 4057 0580 43523200 		.ascii	"CR2\000"
 4058 0584 0E       		.byte	0xe
 4059 0585 C8       		.byte	0xc8
 4060 0586 00010000 		.4byte	0x100
 4061 058a 08       		.byte	0x8
 4062 058b 08       		.uleb128 0x8
 4063 058c 19020000 		.4byte	.LASF98
 4064 0590 0E       		.byte	0xe
 4065 0591 C9       		.byte	0xc9
 4066 0592 00010000 		.4byte	0x100
 4067 0596 0C       		.byte	0xc
 4068 0597 08       		.uleb128 0x8
 4069 0598 1F020000 		.4byte	.LASF99
 4070 059c 0E       		.byte	0xe
ARM GAS  /var/folders/j2/t8glr22d56s93xphj_30s8g80000gn/T//cc8l81ic.s 			page 73


 4071 059d CA       		.byte	0xca
 4072 059e 00010000 		.4byte	0x100
 4073 05a2 10       		.byte	0x10
 4074 05a3 08       		.uleb128 0x8
 4075 05a4 43090000 		.4byte	.LASF100
 4076 05a8 0E       		.byte	0xe
 4077 05a9 CB       		.byte	0xcb
 4078 05aa 00010000 		.4byte	0x100
 4079 05ae 14       		.byte	0x14
 4080 05af 08       		.uleb128 0x8
 4081 05b0 49090000 		.4byte	.LASF101
 4082 05b4 0E       		.byte	0xe
 4083 05b5 CC       		.byte	0xcc
 4084 05b6 00010000 		.4byte	0x100
 4085 05ba 18       		.byte	0x18
 4086 05bb 08       		.uleb128 0x8
 4087 05bc 4F090000 		.4byte	.LASF102
 4088 05c0 0E       		.byte	0xe
 4089 05c1 CD       		.byte	0xcd
 4090 05c2 00010000 		.4byte	0x100
 4091 05c6 1C       		.byte	0x1c
 4092 05c7 08       		.uleb128 0x8
 4093 05c8 55090000 		.4byte	.LASF103
 4094 05cc 0E       		.byte	0xe
 4095 05cd CE       		.byte	0xce
 4096 05ce 00010000 		.4byte	0x100
 4097 05d2 20       		.byte	0x20
 4098 05d3 18       		.uleb128 0x18
 4099 05d4 48545200 		.ascii	"HTR\000"
 4100 05d8 0E       		.byte	0xe
 4101 05d9 CF       		.byte	0xcf
 4102 05da 00010000 		.4byte	0x100
 4103 05de 24       		.byte	0x24
 4104 05df 18       		.uleb128 0x18
 4105 05e0 4C545200 		.ascii	"LTR\000"
 4106 05e4 0E       		.byte	0xe
 4107 05e5 D0       		.byte	0xd0
 4108 05e6 00010000 		.4byte	0x100
 4109 05ea 28       		.byte	0x28
 4110 05eb 08       		.uleb128 0x8
 4111 05ec F4100000 		.4byte	.LASF104
 4112 05f0 0E       		.byte	0xe
 4113 05f1 D1       		.byte	0xd1
 4114 05f2 00010000 		.4byte	0x100
 4115 05f6 2C       		.byte	0x2c
 4116 05f7 08       		.uleb128 0x8
 4117 05f8 F9100000 		.4byte	.LASF105
 4118 05fc 0E       		.byte	0xe
 4119 05fd D2       		.byte	0xd2
 4120 05fe 00010000 		.4byte	0x100
 4121 0602 30       		.byte	0x30
 4122 0603 08       		.uleb128 0x8
 4123 0604 FE100000 		.4byte	.LASF106
 4124 0608 0E       		.byte	0xe
 4125 0609 D3       		.byte	0xd3
 4126 060a 00010000 		.4byte	0x100
 4127 060e 34       		.byte	0x34
ARM GAS  /var/folders/j2/t8glr22d56s93xphj_30s8g80000gn/T//cc8l81ic.s 			page 74


 4128 060f 08       		.uleb128 0x8
 4129 0610 E50A0000 		.4byte	.LASF107
 4130 0614 0E       		.byte	0xe
 4131 0615 D4       		.byte	0xd4
 4132 0616 00010000 		.4byte	0x100
 4133 061a 38       		.byte	0x38
 4134 061b 08       		.uleb128 0x8
 4135 061c E91D0000 		.4byte	.LASF108
 4136 0620 0E       		.byte	0xe
 4137 0621 D5       		.byte	0xd5
 4138 0622 00010000 		.4byte	0x100
 4139 0626 3C       		.byte	0x3c
 4140 0627 08       		.uleb128 0x8
 4141 0628 EE1D0000 		.4byte	.LASF109
 4142 062c 0E       		.byte	0xe
 4143 062d D6       		.byte	0xd6
 4144 062e 00010000 		.4byte	0x100
 4145 0632 40       		.byte	0x40
 4146 0633 08       		.uleb128 0x8
 4147 0634 F31D0000 		.4byte	.LASF110
 4148 0638 0E       		.byte	0xe
 4149 0639 D7       		.byte	0xd7
 4150 063a 00010000 		.4byte	0x100
 4151 063e 44       		.byte	0x44
 4152 063f 08       		.uleb128 0x8
 4153 0640 F81D0000 		.4byte	.LASF111
 4154 0644 0E       		.byte	0xe
 4155 0645 D8       		.byte	0xd8
 4156 0646 00010000 		.4byte	0x100
 4157 064a 48       		.byte	0x48
 4158 064b 18       		.uleb128 0x18
 4159 064c 445200   		.ascii	"DR\000"
 4160 064f 0E       		.byte	0xe
 4161 0650 D9       		.byte	0xd9
 4162 0651 00010000 		.4byte	0x100
 4163 0655 4C       		.byte	0x4c
 4164 0656 00       		.byte	0
 4165 0657 03       		.uleb128 0x3
 4166 0658 BD120000 		.4byte	.LASF112
 4167 065c 0E       		.byte	0xe
 4168 065d DA       		.byte	0xda
 4169 065e 60050000 		.4byte	0x560
 4170 0662 17       		.uleb128 0x17
 4171 0663 10       		.byte	0x10
 4172 0664 0E       		.byte	0xe
 4173 0665 E9       		.byte	0xe9
 4174 0666 9B060000 		.4byte	0x69b
 4175 066a 18       		.uleb128 0x18
 4176 066b 54495200 		.ascii	"TIR\000"
 4177 066f 0E       		.byte	0xe
 4178 0670 EB       		.byte	0xeb
 4179 0671 00010000 		.4byte	0x100
 4180 0675 00       		.byte	0
 4181 0676 08       		.uleb128 0x8
 4182 0677 310F0000 		.4byte	.LASF113
 4183 067b 0E       		.byte	0xe
 4184 067c EC       		.byte	0xec
ARM GAS  /var/folders/j2/t8glr22d56s93xphj_30s8g80000gn/T//cc8l81ic.s 			page 75


 4185 067d 00010000 		.4byte	0x100
 4186 0681 04       		.byte	0x4
 4187 0682 08       		.uleb128 0x8
 4188 0683 3D150000 		.4byte	.LASF114
 4189 0687 0E       		.byte	0xe
 4190 0688 ED       		.byte	0xed
 4191 0689 00010000 		.4byte	0x100
 4192 068d 08       		.byte	0x8
 4193 068e 08       		.uleb128 0x8
 4194 068f 16130000 		.4byte	.LASF115
 4195 0693 0E       		.byte	0xe
 4196 0694 EE       		.byte	0xee
 4197 0695 00010000 		.4byte	0x100
 4198 0699 0C       		.byte	0xc
 4199 069a 00       		.byte	0
 4200 069b 03       		.uleb128 0x3
 4201 069c 45040000 		.4byte	.LASF116
 4202 06a0 0E       		.byte	0xe
 4203 06a1 EF       		.byte	0xef
 4204 06a2 62060000 		.4byte	0x662
 4205 06a6 17       		.uleb128 0x17
 4206 06a7 10       		.byte	0x10
 4207 06a8 0E       		.byte	0xe
 4208 06a9 F5       		.byte	0xf5
 4209 06aa DF060000 		.4byte	0x6df
 4210 06ae 18       		.uleb128 0x18
 4211 06af 52495200 		.ascii	"RIR\000"
 4212 06b3 0E       		.byte	0xe
 4213 06b4 F7       		.byte	0xf7
 4214 06b5 00010000 		.4byte	0x100
 4215 06b9 00       		.byte	0
 4216 06ba 08       		.uleb128 0x8
 4217 06bb 531A0000 		.4byte	.LASF117
 4218 06bf 0E       		.byte	0xe
 4219 06c0 F8       		.byte	0xf8
 4220 06c1 00010000 		.4byte	0x100
 4221 06c5 04       		.byte	0x4
 4222 06c6 08       		.uleb128 0x8
 4223 06c7 6F160000 		.4byte	.LASF118
 4224 06cb 0E       		.byte	0xe
 4225 06cc F9       		.byte	0xf9
 4226 06cd 00010000 		.4byte	0x100
 4227 06d1 08       		.byte	0x8
 4228 06d2 08       		.uleb128 0x8
 4229 06d3 36140000 		.4byte	.LASF119
 4230 06d7 0E       		.byte	0xe
 4231 06d8 FA       		.byte	0xfa
 4232 06d9 00010000 		.4byte	0x100
 4233 06dd 0C       		.byte	0xc
 4234 06de 00       		.byte	0
 4235 06df 03       		.uleb128 0x3
 4236 06e0 95190000 		.4byte	.LASF120
 4237 06e4 0E       		.byte	0xe
 4238 06e5 FB       		.byte	0xfb
 4239 06e6 A6060000 		.4byte	0x6a6
 4240 06ea 19       		.uleb128 0x19
 4241 06eb 08       		.byte	0x8
ARM GAS  /var/folders/j2/t8glr22d56s93xphj_30s8g80000gn/T//cc8l81ic.s 			page 76


 4242 06ec 0E       		.byte	0xe
 4243 06ed 0101     		.2byte	0x101
 4244 06ef 0E070000 		.4byte	0x70e
 4245 06f3 09       		.uleb128 0x9
 4246 06f4 46523100 		.ascii	"FR1\000"
 4247 06f8 0E       		.byte	0xe
 4248 06f9 0301     		.2byte	0x103
 4249 06fb 00010000 		.4byte	0x100
 4250 06ff 00       		.byte	0
 4251 0700 09       		.uleb128 0x9
 4252 0701 46523200 		.ascii	"FR2\000"
 4253 0705 0E       		.byte	0xe
 4254 0706 0401     		.2byte	0x104
 4255 0708 00010000 		.4byte	0x100
 4256 070c 04       		.byte	0x4
 4257 070d 00       		.byte	0
 4258 070e 1A       		.uleb128 0x1a
 4259 070f 360F0000 		.4byte	.LASF121
 4260 0713 0E       		.byte	0xe
 4261 0714 0501     		.2byte	0x105
 4262 0716 EA060000 		.4byte	0x6ea
 4263 071a 1B       		.uleb128 0x1b
 4264 071b 2003     		.2byte	0x320
 4265 071d 0E       		.byte	0xe
 4266 071e 0B01     		.2byte	0x10b
 4267 0720 50080000 		.4byte	0x850
 4268 0724 09       		.uleb128 0x9
 4269 0725 4D435200 		.ascii	"MCR\000"
 4270 0729 0E       		.byte	0xe
 4271 072a 0D01     		.2byte	0x10d
 4272 072c 00010000 		.4byte	0x100
 4273 0730 00       		.byte	0
 4274 0731 09       		.uleb128 0x9
 4275 0732 4D535200 		.ascii	"MSR\000"
 4276 0736 0E       		.byte	0xe
 4277 0737 0E01     		.2byte	0x10e
 4278 0739 00010000 		.4byte	0x100
 4279 073d 04       		.byte	0x4
 4280 073e 09       		.uleb128 0x9
 4281 073f 54535200 		.ascii	"TSR\000"
 4282 0743 0E       		.byte	0xe
 4283 0744 0F01     		.2byte	0x10f
 4284 0746 00010000 		.4byte	0x100
 4285 074a 08       		.byte	0x8
 4286 074b 0A       		.uleb128 0xa
 4287 074c AB0C0000 		.4byte	.LASF122
 4288 0750 0E       		.byte	0xe
 4289 0751 1001     		.2byte	0x110
 4290 0753 00010000 		.4byte	0x100
 4291 0757 0C       		.byte	0xc
 4292 0758 0A       		.uleb128 0xa
 4293 0759 3B0D0000 		.4byte	.LASF123
 4294 075d 0E       		.byte	0xe
 4295 075e 1101     		.2byte	0x111
 4296 0760 00010000 		.4byte	0x100
 4297 0764 10       		.byte	0x10
 4298 0765 09       		.uleb128 0x9
ARM GAS  /var/folders/j2/t8glr22d56s93xphj_30s8g80000gn/T//cc8l81ic.s 			page 77


 4299 0766 49455200 		.ascii	"IER\000"
 4300 076a 0E       		.byte	0xe
 4301 076b 1201     		.2byte	0x112
 4302 076d 00010000 		.4byte	0x100
 4303 0771 14       		.byte	0x14
 4304 0772 09       		.uleb128 0x9
 4305 0773 45535200 		.ascii	"ESR\000"
 4306 0777 0E       		.byte	0xe
 4307 0778 1301     		.2byte	0x113
 4308 077a 00010000 		.4byte	0x100
 4309 077e 18       		.byte	0x18
 4310 077f 09       		.uleb128 0x9
 4311 0780 42545200 		.ascii	"BTR\000"
 4312 0784 0E       		.byte	0xe
 4313 0785 1401     		.2byte	0x114
 4314 0787 00010000 		.4byte	0x100
 4315 078b 1C       		.byte	0x1c
 4316 078c 0A       		.uleb128 0xa
 4317 078d 641B0000 		.4byte	.LASF124
 4318 0791 0E       		.byte	0xe
 4319 0792 1501     		.2byte	0x115
 4320 0794 50080000 		.4byte	0x850
 4321 0798 20       		.byte	0x20
 4322 0799 11       		.uleb128 0x11
 4323 079a 0C100000 		.4byte	.LASF125
 4324 079e 0E       		.byte	0xe
 4325 079f 1601     		.2byte	0x116
 4326 07a1 60080000 		.4byte	0x860
 4327 07a5 8001     		.2byte	0x180
 4328 07a7 11       		.uleb128 0x11
 4329 07a8 511F0000 		.4byte	.LASF126
 4330 07ac 0E       		.byte	0xe
 4331 07ad 1701     		.2byte	0x117
 4332 07af 70080000 		.4byte	0x870
 4333 07b3 B001     		.2byte	0x1b0
 4334 07b5 11       		.uleb128 0x11
 4335 07b6 6E1B0000 		.4byte	.LASF127
 4336 07ba 0E       		.byte	0xe
 4337 07bb 1801     		.2byte	0x118
 4338 07bd 80080000 		.4byte	0x880
 4339 07c1 D001     		.2byte	0x1d0
 4340 07c3 12       		.uleb128 0x12
 4341 07c4 464D5200 		.ascii	"FMR\000"
 4342 07c8 0E       		.byte	0xe
 4343 07c9 1901     		.2byte	0x119
 4344 07cb 00010000 		.4byte	0x100
 4345 07cf 0002     		.2byte	0x200
 4346 07d1 11       		.uleb128 0x11
 4347 07d2 BE090000 		.4byte	.LASF128
 4348 07d6 0E       		.byte	0xe
 4349 07d7 1A01     		.2byte	0x11a
 4350 07d9 00010000 		.4byte	0x100
 4351 07dd 0402     		.2byte	0x204
 4352 07df 11       		.uleb128 0x11
 4353 07e0 781B0000 		.4byte	.LASF129
 4354 07e4 0E       		.byte	0xe
 4355 07e5 1B01     		.2byte	0x11b
ARM GAS  /var/folders/j2/t8glr22d56s93xphj_30s8g80000gn/T//cc8l81ic.s 			page 78


 4356 07e7 F5000000 		.4byte	0xf5
 4357 07eb 0802     		.2byte	0x208
 4358 07ed 11       		.uleb128 0x11
 4359 07ee 621D0000 		.4byte	.LASF130
 4360 07f2 0E       		.byte	0xe
 4361 07f3 1C01     		.2byte	0x11c
 4362 07f5 00010000 		.4byte	0x100
 4363 07f9 0C02     		.2byte	0x20c
 4364 07fb 11       		.uleb128 0x11
 4365 07fc 821B0000 		.4byte	.LASF131
 4366 0800 0E       		.byte	0xe
 4367 0801 1D01     		.2byte	0x11d
 4368 0803 F5000000 		.4byte	0xf5
 4369 0807 1002     		.2byte	0x210
 4370 0809 11       		.uleb128 0x11
 4371 080a C2160000 		.4byte	.LASF132
 4372 080e 0E       		.byte	0xe
 4373 080f 1E01     		.2byte	0x11e
 4374 0811 00010000 		.4byte	0x100
 4375 0815 1402     		.2byte	0x214
 4376 0817 11       		.uleb128 0x11
 4377 0818 8C1B0000 		.4byte	.LASF133
 4378 081c 0E       		.byte	0xe
 4379 081d 1F01     		.2byte	0x11f
 4380 081f F5000000 		.4byte	0xf5
 4381 0823 1802     		.2byte	0x218
 4382 0825 11       		.uleb128 0x11
 4383 0826 5A030000 		.4byte	.LASF134
 4384 082a 0E       		.byte	0xe
 4385 082b 2001     		.2byte	0x120
 4386 082d 00010000 		.4byte	0x100
 4387 0831 1C02     		.2byte	0x21c
 4388 0833 11       		.uleb128 0x11
 4389 0834 961B0000 		.4byte	.LASF135
 4390 0838 0E       		.byte	0xe
 4391 0839 2101     		.2byte	0x121
 4392 083b 39050000 		.4byte	0x539
 4393 083f 2002     		.2byte	0x220
 4394 0841 11       		.uleb128 0x11
 4395 0842 F8040000 		.4byte	.LASF136
 4396 0846 0E       		.byte	0xe
 4397 0847 2201     		.2byte	0x122
 4398 0849 90080000 		.4byte	0x890
 4399 084d 4002     		.2byte	0x240
 4400 084f 00       		.byte	0
 4401 0850 13       		.uleb128 0x13
 4402 0851 F5000000 		.4byte	0xf5
 4403 0855 60080000 		.4byte	0x860
 4404 0859 14       		.uleb128 0x14
 4405 085a 37000000 		.4byte	0x37
 4406 085e 57       		.byte	0x57
 4407 085f 00       		.byte	0
 4408 0860 13       		.uleb128 0x13
 4409 0861 9B060000 		.4byte	0x69b
 4410 0865 70080000 		.4byte	0x870
 4411 0869 14       		.uleb128 0x14
 4412 086a 37000000 		.4byte	0x37
ARM GAS  /var/folders/j2/t8glr22d56s93xphj_30s8g80000gn/T//cc8l81ic.s 			page 79


 4413 086e 02       		.byte	0x2
 4414 086f 00       		.byte	0
 4415 0870 13       		.uleb128 0x13
 4416 0871 DF060000 		.4byte	0x6df
 4417 0875 80080000 		.4byte	0x880
 4418 0879 14       		.uleb128 0x14
 4419 087a 37000000 		.4byte	0x37
 4420 087e 01       		.byte	0x1
 4421 087f 00       		.byte	0
 4422 0880 13       		.uleb128 0x13
 4423 0881 F5000000 		.4byte	0xf5
 4424 0885 90080000 		.4byte	0x890
 4425 0889 14       		.uleb128 0x14
 4426 088a 37000000 		.4byte	0x37
 4427 088e 0B       		.byte	0xb
 4428 088f 00       		.byte	0
 4429 0890 13       		.uleb128 0x13
 4430 0891 0E070000 		.4byte	0x70e
 4431 0895 A0080000 		.4byte	0x8a0
 4432 0899 14       		.uleb128 0x14
 4433 089a 37000000 		.4byte	0x37
 4434 089e 1B       		.byte	0x1b
 4435 089f 00       		.byte	0
 4436 08a0 1A       		.uleb128 0x1a
 4437 08a1 A80B0000 		.4byte	.LASF137
 4438 08a5 0E       		.byte	0xe
 4439 08a6 2301     		.2byte	0x123
 4440 08a8 1A070000 		.4byte	0x71a
 4441 08ac 19       		.uleb128 0x19
 4442 08ad 38       		.byte	0x38
 4443 08ae 0E       		.byte	0xe
 4444 08af 3601     		.2byte	0x136
 4445 08b1 6A090000 		.4byte	0x96a
 4446 08b5 09       		.uleb128 0x9
 4447 08b6 435200   		.ascii	"CR\000"
 4448 08b9 0E       		.byte	0xe
 4449 08ba 3801     		.2byte	0x138
 4450 08bc 00010000 		.4byte	0x100
 4451 08c0 00       		.byte	0
 4452 08c1 0A       		.uleb128 0xa
 4453 08c2 0E140000 		.4byte	.LASF138
 4454 08c6 0E       		.byte	0xe
 4455 08c7 3901     		.2byte	0x139
 4456 08c9 00010000 		.4byte	0x100
 4457 08cd 04       		.byte	0x4
 4458 08ce 0A       		.uleb128 0xa
 4459 08cf B21B0000 		.4byte	.LASF139
 4460 08d3 0E       		.byte	0xe
 4461 08d4 3A01     		.2byte	0x13a
 4462 08d6 00010000 		.4byte	0x100
 4463 08da 08       		.byte	0x8
 4464 08db 0A       		.uleb128 0xa
 4465 08dc 9A180000 		.4byte	.LASF140
 4466 08e0 0E       		.byte	0xe
 4467 08e1 3B01     		.2byte	0x13b
 4468 08e3 00010000 		.4byte	0x100
 4469 08e7 0C       		.byte	0xc
ARM GAS  /var/folders/j2/t8glr22d56s93xphj_30s8g80000gn/T//cc8l81ic.s 			page 80


 4470 08e8 0A       		.uleb128 0xa
 4471 08e9 12090000 		.4byte	.LASF141
 4472 08ed 0E       		.byte	0xe
 4473 08ee 3C01     		.2byte	0x13c
 4474 08f0 00010000 		.4byte	0x100
 4475 08f4 10       		.byte	0x10
 4476 08f5 0A       		.uleb128 0xa
 4477 08f6 BA1B0000 		.4byte	.LASF142
 4478 08fa 0E       		.byte	0xe
 4479 08fb 3D01     		.2byte	0x13d
 4480 08fd 00010000 		.4byte	0x100
 4481 0901 14       		.byte	0x14
 4482 0902 0A       		.uleb128 0xa
 4483 0903 A2180000 		.4byte	.LASF143
 4484 0907 0E       		.byte	0xe
 4485 0908 3E01     		.2byte	0x13e
 4486 090a 00010000 		.4byte	0x100
 4487 090e 18       		.byte	0x18
 4488 090f 0A       		.uleb128 0xa
 4489 0910 19090000 		.4byte	.LASF144
 4490 0914 0E       		.byte	0xe
 4491 0915 3F01     		.2byte	0x13f
 4492 0917 00010000 		.4byte	0x100
 4493 091b 1C       		.byte	0x1c
 4494 091c 0A       		.uleb128 0xa
 4495 091d 011C0000 		.4byte	.LASF145
 4496 0921 0E       		.byte	0xe
 4497 0922 4001     		.2byte	0x140
 4498 0924 00010000 		.4byte	0x100
 4499 0928 20       		.byte	0x20
 4500 0929 0A       		.uleb128 0xa
 4501 092a B7180000 		.4byte	.LASF146
 4502 092e 0E       		.byte	0xe
 4503 092f 4101     		.2byte	0x141
 4504 0931 00010000 		.4byte	0x100
 4505 0935 24       		.byte	0x24
 4506 0936 0A       		.uleb128 0xa
 4507 0937 681F0000 		.4byte	.LASF147
 4508 093b 0E       		.byte	0xe
 4509 093c 4201     		.2byte	0x142
 4510 093e 00010000 		.4byte	0x100
 4511 0942 28       		.byte	0x28
 4512 0943 0A       		.uleb128 0xa
 4513 0944 25010000 		.4byte	.LASF148
 4514 0948 0E       		.byte	0xe
 4515 0949 4301     		.2byte	0x143
 4516 094b 00010000 		.4byte	0x100
 4517 094f 2C       		.byte	0x2c
 4518 0950 0A       		.uleb128 0xa
 4519 0951 2A010000 		.4byte	.LASF149
 4520 0955 0E       		.byte	0xe
 4521 0956 4401     		.2byte	0x144
 4522 0958 00010000 		.4byte	0x100
 4523 095c 30       		.byte	0x30
 4524 095d 09       		.uleb128 0x9
 4525 095e 535200   		.ascii	"SR\000"
 4526 0961 0E       		.byte	0xe
ARM GAS  /var/folders/j2/t8glr22d56s93xphj_30s8g80000gn/T//cc8l81ic.s 			page 81


 4527 0962 4501     		.2byte	0x145
 4528 0964 00010000 		.4byte	0x100
 4529 0968 34       		.byte	0x34
 4530 0969 00       		.byte	0
 4531 096a 1A       		.uleb128 0x1a
 4532 096b AD190000 		.4byte	.LASF150
 4533 096f 0E       		.byte	0xe
 4534 0970 4601     		.2byte	0x146
 4535 0972 AC080000 		.4byte	0x8ac
 4536 0976 19       		.uleb128 0x19
 4537 0977 18       		.byte	0x18
 4538 0978 0E       		.byte	0xe
 4539 0979 6B01     		.2byte	0x16b
 4540 097b CD090000 		.4byte	0x9cd
 4541 097f 09       		.uleb128 0x9
 4542 0980 435200   		.ascii	"CR\000"
 4543 0983 0E       		.byte	0xe
 4544 0984 6D01     		.2byte	0x16d
 4545 0986 00010000 		.4byte	0x100
 4546 098a 00       		.byte	0
 4547 098b 0A       		.uleb128 0xa
 4548 098c C41C0000 		.4byte	.LASF151
 4549 0990 0E       		.byte	0xe
 4550 0991 6E01     		.2byte	0x16e
 4551 0993 00010000 		.4byte	0x100
 4552 0997 04       		.byte	0x4
 4553 0998 09       		.uleb128 0x9
 4554 0999 50415200 		.ascii	"PAR\000"
 4555 099d 0E       		.byte	0xe
 4556 099e 6F01     		.2byte	0x16f
 4557 09a0 00010000 		.4byte	0x100
 4558 09a4 08       		.byte	0x8
 4559 09a5 0A       		.uleb128 0xa
 4560 09a6 2C030000 		.4byte	.LASF152
 4561 09aa 0E       		.byte	0xe
 4562 09ab 7001     		.2byte	0x170
 4563 09ad 00010000 		.4byte	0x100
 4564 09b1 0C       		.byte	0xc
 4565 09b2 0A       		.uleb128 0xa
 4566 09b3 15070000 		.4byte	.LASF153
 4567 09b7 0E       		.byte	0xe
 4568 09b8 7101     		.2byte	0x171
 4569 09ba 00010000 		.4byte	0x100
 4570 09be 10       		.byte	0x10
 4571 09bf 09       		.uleb128 0x9
 4572 09c0 46435200 		.ascii	"FCR\000"
 4573 09c4 0E       		.byte	0xe
 4574 09c5 7201     		.2byte	0x172
 4575 09c7 00010000 		.4byte	0x100
 4576 09cb 14       		.byte	0x14
 4577 09cc 00       		.byte	0
 4578 09cd 1A       		.uleb128 0x1a
 4579 09ce 1F070000 		.4byte	.LASF154
 4580 09d2 0E       		.byte	0xe
 4581 09d3 7301     		.2byte	0x173
 4582 09d5 76090000 		.4byte	0x976
 4583 09d9 13       		.uleb128 0x13
ARM GAS  /var/folders/j2/t8glr22d56s93xphj_30s8g80000gn/T//cc8l81ic.s 			page 82


 4584 09da 00010000 		.4byte	0x100
 4585 09de E9090000 		.4byte	0x9e9
 4586 09e2 14       		.uleb128 0x14
 4587 09e3 37000000 		.4byte	0x37
 4588 09e7 01       		.byte	0x1
 4589 09e8 00       		.byte	0
 4590 09e9 06       		.uleb128 0x6
 4591 09ea D9090000 		.4byte	0x9d9
 4592 09ee 13       		.uleb128 0x13
 4593 09ef 00010000 		.4byte	0x100
 4594 09f3 FE090000 		.4byte	0x9fe
 4595 09f7 14       		.uleb128 0x14
 4596 09f8 37000000 		.4byte	0x37
 4597 09fc 03       		.byte	0x3
 4598 09fd 00       		.byte	0
 4599 09fe 06       		.uleb128 0x6
 4600 09ff EE090000 		.4byte	0x9ee
 4601 0a03 19       		.uleb128 0x19
 4602 0a04 28       		.byte	0x28
 4603 0a05 0E       		.byte	0xe
 4604 0a06 3F02     		.2byte	0x23f
 4605 0a08 8E0A0000 		.4byte	0xa8e
 4606 0a0c 09       		.uleb128 0x9
 4607 0a0d 43523100 		.ascii	"CR1\000"
 4608 0a11 0E       		.byte	0xe
 4609 0a12 4102     		.2byte	0x241
 4610 0a14 00010000 		.4byte	0x100
 4611 0a18 00       		.byte	0
 4612 0a19 09       		.uleb128 0x9
 4613 0a1a 43523200 		.ascii	"CR2\000"
 4614 0a1e 0E       		.byte	0xe
 4615 0a1f 4202     		.2byte	0x242
 4616 0a21 00010000 		.4byte	0x100
 4617 0a25 04       		.byte	0x4
 4618 0a26 0A       		.uleb128 0xa
 4619 0a27 20220000 		.4byte	.LASF155
 4620 0a2b 0E       		.byte	0xe
 4621 0a2c 4302     		.2byte	0x243
 4622 0a2e 00010000 		.4byte	0x100
 4623 0a32 08       		.byte	0x8
 4624 0a33 0A       		.uleb128 0xa
 4625 0a34 25220000 		.4byte	.LASF156
 4626 0a38 0E       		.byte	0xe
 4627 0a39 4402     		.2byte	0x244
 4628 0a3b 00010000 		.4byte	0x100
 4629 0a3f 0C       		.byte	0xc
 4630 0a40 09       		.uleb128 0x9
 4631 0a41 445200   		.ascii	"DR\000"
 4632 0a44 0E       		.byte	0xe
 4633 0a45 4502     		.2byte	0x245
 4634 0a47 00010000 		.4byte	0x100
 4635 0a4b 10       		.byte	0x10
 4636 0a4c 09       		.uleb128 0x9
 4637 0a4d 53523100 		.ascii	"SR1\000"
 4638 0a51 0E       		.byte	0xe
 4639 0a52 4602     		.2byte	0x246
 4640 0a54 00010000 		.4byte	0x100
ARM GAS  /var/folders/j2/t8glr22d56s93xphj_30s8g80000gn/T//cc8l81ic.s 			page 83


 4641 0a58 14       		.byte	0x14
 4642 0a59 09       		.uleb128 0x9
 4643 0a5a 53523200 		.ascii	"SR2\000"
 4644 0a5e 0E       		.byte	0xe
 4645 0a5f 4702     		.2byte	0x247
 4646 0a61 00010000 		.4byte	0x100
 4647 0a65 18       		.byte	0x18
 4648 0a66 09       		.uleb128 0x9
 4649 0a67 43435200 		.ascii	"CCR\000"
 4650 0a6b 0E       		.byte	0xe
 4651 0a6c 4802     		.2byte	0x248
 4652 0a6e 00010000 		.4byte	0x100
 4653 0a72 1C       		.byte	0x1c
 4654 0a73 0A       		.uleb128 0xa
 4655 0a74 13040000 		.4byte	.LASF157
 4656 0a78 0E       		.byte	0xe
 4657 0a79 4902     		.2byte	0x249
 4658 0a7b 00010000 		.4byte	0x100
 4659 0a7f 20       		.byte	0x20
 4660 0a80 0A       		.uleb128 0xa
 4661 0a81 EB200000 		.4byte	.LASF158
 4662 0a85 0E       		.byte	0xe
 4663 0a86 4A02     		.2byte	0x24a
 4664 0a88 00010000 		.4byte	0x100
 4665 0a8c 24       		.byte	0x24
 4666 0a8d 00       		.byte	0
 4667 0a8e 1A       		.uleb128 0x1a
 4668 0a8f 2A140000 		.4byte	.LASF159
 4669 0a93 0E       		.byte	0xe
 4670 0a94 4B02     		.2byte	0x24b
 4671 0a96 030A0000 		.4byte	0xa03
 4672 0a9a 19       		.uleb128 0x19
 4673 0a9b 84       		.byte	0x84
 4674 0a9c 0E       		.byte	0xe
 4675 0a9d BF02     		.2byte	0x2bf
 4676 0a9f A80B0000 		.4byte	0xba8
 4677 0aa3 0A       		.uleb128 0xa
 4678 0aa4 71140000 		.4byte	.LASF160
 4679 0aa8 0E       		.byte	0xe
 4680 0aa9 C102     		.2byte	0x2c1
 4681 0aab 00010000 		.4byte	0x100
 4682 0aaf 00       		.byte	0
 4683 0ab0 0A       		.uleb128 0xa
 4684 0ab1 C51D0000 		.4byte	.LASF161
 4685 0ab5 0E       		.byte	0xe
 4686 0ab6 C202     		.2byte	0x2c2
 4687 0ab8 00010000 		.4byte	0x100
 4688 0abc 04       		.byte	0x4
 4689 0abd 09       		.uleb128 0x9
 4690 0abe 41524700 		.ascii	"ARG\000"
 4691 0ac2 0E       		.byte	0xe
 4692 0ac3 C302     		.2byte	0x2c3
 4693 0ac5 00010000 		.4byte	0x100
 4694 0ac9 08       		.byte	0x8
 4695 0aca 09       		.uleb128 0x9
 4696 0acb 434D4400 		.ascii	"CMD\000"
 4697 0acf 0E       		.byte	0xe
ARM GAS  /var/folders/j2/t8glr22d56s93xphj_30s8g80000gn/T//cc8l81ic.s 			page 84


 4698 0ad0 C402     		.2byte	0x2c4
 4699 0ad2 00010000 		.4byte	0x100
 4700 0ad6 0C       		.byte	0xc
 4701 0ad7 0A       		.uleb128 0xa
 4702 0ad8 87170000 		.4byte	.LASF162
 4703 0adc 0E       		.byte	0xe
 4704 0add C502     		.2byte	0x2c5
 4705 0adf 05010000 		.4byte	0x105
 4706 0ae3 10       		.byte	0x10
 4707 0ae4 0A       		.uleb128 0xa
 4708 0ae5 35050000 		.4byte	.LASF163
 4709 0ae9 0E       		.byte	0xe
 4710 0aea C602     		.2byte	0x2c6
 4711 0aec 05010000 		.4byte	0x105
 4712 0af0 14       		.byte	0x14
 4713 0af1 0A       		.uleb128 0xa
 4714 0af2 3B050000 		.4byte	.LASF164
 4715 0af6 0E       		.byte	0xe
 4716 0af7 C702     		.2byte	0x2c7
 4717 0af9 05010000 		.4byte	0x105
 4718 0afd 18       		.byte	0x18
 4719 0afe 0A       		.uleb128 0xa
 4720 0aff 41050000 		.4byte	.LASF165
 4721 0b03 0E       		.byte	0xe
 4722 0b04 C802     		.2byte	0x2c8
 4723 0b06 05010000 		.4byte	0x105
 4724 0b0a 1C       		.byte	0x1c
 4725 0b0b 0A       		.uleb128 0xa
 4726 0b0c 47050000 		.4byte	.LASF166
 4727 0b10 0E       		.byte	0xe
 4728 0b11 C902     		.2byte	0x2c9
 4729 0b13 05010000 		.4byte	0x105
 4730 0b17 20       		.byte	0x20
 4731 0b18 0A       		.uleb128 0xa
 4732 0b19 C7110000 		.4byte	.LASF167
 4733 0b1d 0E       		.byte	0xe
 4734 0b1e CA02     		.2byte	0x2ca
 4735 0b20 00010000 		.4byte	0x100
 4736 0b24 24       		.byte	0x24
 4737 0b25 0A       		.uleb128 0xa
 4738 0b26 4B130000 		.4byte	.LASF168
 4739 0b2a 0E       		.byte	0xe
 4740 0b2b CB02     		.2byte	0x2cb
 4741 0b2d 00010000 		.4byte	0x100
 4742 0b31 28       		.byte	0x28
 4743 0b32 0A       		.uleb128 0xa
 4744 0b33 D7200000 		.4byte	.LASF169
 4745 0b37 0E       		.byte	0xe
 4746 0b38 CC02     		.2byte	0x2cc
 4747 0b3a 00010000 		.4byte	0x100
 4748 0b3e 2C       		.byte	0x2c
 4749 0b3f 0A       		.uleb128 0xa
 4750 0b40 19220000 		.4byte	.LASF170
 4751 0b44 0E       		.byte	0xe
 4752 0b45 CD02     		.2byte	0x2cd
 4753 0b47 05010000 		.4byte	0x105
 4754 0b4b 30       		.byte	0x30
ARM GAS  /var/folders/j2/t8glr22d56s93xphj_30s8g80000gn/T//cc8l81ic.s 			page 85


 4755 0b4c 09       		.uleb128 0x9
 4756 0b4d 53544100 		.ascii	"STA\000"
 4757 0b51 0E       		.byte	0xe
 4758 0b52 CE02     		.2byte	0x2ce
 4759 0b54 05010000 		.4byte	0x105
 4760 0b58 34       		.byte	0x34
 4761 0b59 09       		.uleb128 0x9
 4762 0b5a 49435200 		.ascii	"ICR\000"
 4763 0b5e 0E       		.byte	0xe
 4764 0b5f CF02     		.2byte	0x2cf
 4765 0b61 00010000 		.4byte	0x100
 4766 0b65 38       		.byte	0x38
 4767 0b66 0A       		.uleb128 0xa
 4768 0b67 66010000 		.4byte	.LASF171
 4769 0b6b 0E       		.byte	0xe
 4770 0b6c D002     		.2byte	0x2d0
 4771 0b6e 00010000 		.4byte	0x100
 4772 0b72 3C       		.byte	0x3c
 4773 0b73 0A       		.uleb128 0xa
 4774 0b74 641B0000 		.4byte	.LASF124
 4775 0b78 0E       		.byte	0xe
 4776 0b79 D102     		.2byte	0x2d1
 4777 0b7b 29050000 		.4byte	0x529
 4778 0b7f 40       		.byte	0x40
 4779 0b80 0A       		.uleb128 0xa
 4780 0b81 55120000 		.4byte	.LASF172
 4781 0b85 0E       		.byte	0xe
 4782 0b86 D202     		.2byte	0x2d2
 4783 0b88 05010000 		.4byte	0x105
 4784 0b8c 48       		.byte	0x48
 4785 0b8d 0A       		.uleb128 0xa
 4786 0b8e 6E1B0000 		.4byte	.LASF127
 4787 0b92 0E       		.byte	0xe
 4788 0b93 D302     		.2byte	0x2d3
 4789 0b95 A80B0000 		.4byte	0xba8
 4790 0b99 4C       		.byte	0x4c
 4791 0b9a 0A       		.uleb128 0xa
 4792 0b9b 72080000 		.4byte	.LASF173
 4793 0b9f 0E       		.byte	0xe
 4794 0ba0 D402     		.2byte	0x2d4
 4795 0ba2 00010000 		.4byte	0x100
 4796 0ba6 80       		.byte	0x80
 4797 0ba7 00       		.byte	0
 4798 0ba8 13       		.uleb128 0x13
 4799 0ba9 F5000000 		.4byte	0xf5
 4800 0bad B80B0000 		.4byte	0xbb8
 4801 0bb1 14       		.uleb128 0x14
 4802 0bb2 37000000 		.4byte	0x37
 4803 0bb6 0C       		.byte	0xc
 4804 0bb7 00       		.byte	0
 4805 0bb8 1A       		.uleb128 0x1a
 4806 0bb9 911C0000 		.4byte	.LASF174
 4807 0bbd 0E       		.byte	0xe
 4808 0bbe D502     		.2byte	0x2d5
 4809 0bc0 9A0A0000 		.4byte	0xa9a
 4810 0bc4 19       		.uleb128 0x19
 4811 0bc5 24       		.byte	0x24
ARM GAS  /var/folders/j2/t8glr22d56s93xphj_30s8g80000gn/T//cc8l81ic.s 			page 86


 4812 0bc6 0E       		.byte	0xe
 4813 0bc7 DB02     		.2byte	0x2db
 4814 0bc9 410C0000 		.4byte	0xc41
 4815 0bcd 09       		.uleb128 0x9
 4816 0bce 43523100 		.ascii	"CR1\000"
 4817 0bd2 0E       		.byte	0xe
 4818 0bd3 DD02     		.2byte	0x2dd
 4819 0bd5 00010000 		.4byte	0x100
 4820 0bd9 00       		.byte	0
 4821 0bda 09       		.uleb128 0x9
 4822 0bdb 43523200 		.ascii	"CR2\000"
 4823 0bdf 0E       		.byte	0xe
 4824 0be0 DE02     		.2byte	0x2de
 4825 0be2 00010000 		.4byte	0x100
 4826 0be6 04       		.byte	0x4
 4827 0be7 09       		.uleb128 0x9
 4828 0be8 535200   		.ascii	"SR\000"
 4829 0beb 0E       		.byte	0xe
 4830 0bec DF02     		.2byte	0x2df
 4831 0bee 00010000 		.4byte	0x100
 4832 0bf2 08       		.byte	0x8
 4833 0bf3 09       		.uleb128 0x9
 4834 0bf4 445200   		.ascii	"DR\000"
 4835 0bf7 0E       		.byte	0xe
 4836 0bf8 E002     		.2byte	0x2e0
 4837 0bfa 00010000 		.4byte	0x100
 4838 0bfe 0C       		.byte	0xc
 4839 0bff 0A       		.uleb128 0xa
 4840 0c00 A6060000 		.4byte	.LASF175
 4841 0c04 0E       		.byte	0xe
 4842 0c05 E102     		.2byte	0x2e1
 4843 0c07 00010000 		.4byte	0x100
 4844 0c0b 10       		.byte	0x10
 4845 0c0c 0A       		.uleb128 0xa
 4846 0c0d 360A0000 		.4byte	.LASF176
 4847 0c11 0E       		.byte	0xe
 4848 0c12 E202     		.2byte	0x2e2
 4849 0c14 00010000 		.4byte	0x100
 4850 0c18 14       		.byte	0x14
 4851 0c19 0A       		.uleb128 0xa
 4852 0c1a 65090000 		.4byte	.LASF177
 4853 0c1e 0E       		.byte	0xe
 4854 0c1f E302     		.2byte	0x2e3
 4855 0c21 00010000 		.4byte	0x100
 4856 0c25 18       		.byte	0x18
 4857 0c26 0A       		.uleb128 0xa
 4858 0c27 921E0000 		.4byte	.LASF178
 4859 0c2b 0E       		.byte	0xe
 4860 0c2c E402     		.2byte	0x2e4
 4861 0c2e 00010000 		.4byte	0x100
 4862 0c32 1C       		.byte	0x1c
 4863 0c33 0A       		.uleb128 0xa
 4864 0c34 71060000 		.4byte	.LASF179
 4865 0c38 0E       		.byte	0xe
 4866 0c39 E502     		.2byte	0x2e5
 4867 0c3b 00010000 		.4byte	0x100
 4868 0c3f 20       		.byte	0x20
ARM GAS  /var/folders/j2/t8glr22d56s93xphj_30s8g80000gn/T//cc8l81ic.s 			page 87


 4869 0c40 00       		.byte	0
 4870 0c41 1A       		.uleb128 0x1a
 4871 0c42 F01C0000 		.4byte	.LASF180
 4872 0c46 0E       		.byte	0xe
 4873 0c47 E602     		.2byte	0x2e6
 4874 0c49 C40B0000 		.4byte	0xbc4
 4875 0c4d 19       		.uleb128 0x19
 4876 0c4e 1C       		.byte	0x1c
 4877 0c4f 0E       		.byte	0xe
 4878 0c50 0903     		.2byte	0x309
 4879 0c52 B00C0000 		.4byte	0xcb0
 4880 0c56 09       		.uleb128 0x9
 4881 0c57 535200   		.ascii	"SR\000"
 4882 0c5a 0E       		.byte	0xe
 4883 0c5b 0B03     		.2byte	0x30b
 4884 0c5d 00010000 		.4byte	0x100
 4885 0c61 00       		.byte	0
 4886 0c62 09       		.uleb128 0x9
 4887 0c63 445200   		.ascii	"DR\000"
 4888 0c66 0E       		.byte	0xe
 4889 0c67 0C03     		.2byte	0x30c
 4890 0c69 00010000 		.4byte	0x100
 4891 0c6d 04       		.byte	0x4
 4892 0c6e 09       		.uleb128 0x9
 4893 0c6f 42525200 		.ascii	"BRR\000"
 4894 0c73 0E       		.byte	0xe
 4895 0c74 0D03     		.2byte	0x30d
 4896 0c76 00010000 		.4byte	0x100
 4897 0c7a 08       		.byte	0x8
 4898 0c7b 09       		.uleb128 0x9
 4899 0c7c 43523100 		.ascii	"CR1\000"
 4900 0c80 0E       		.byte	0xe
 4901 0c81 0E03     		.2byte	0x30e
 4902 0c83 00010000 		.4byte	0x100
 4903 0c87 0C       		.byte	0xc
 4904 0c88 09       		.uleb128 0x9
 4905 0c89 43523200 		.ascii	"CR2\000"
 4906 0c8d 0E       		.byte	0xe
 4907 0c8e 0F03     		.2byte	0x30f
 4908 0c90 00010000 		.4byte	0x100
 4909 0c94 10       		.byte	0x10
 4910 0c95 09       		.uleb128 0x9
 4911 0c96 43523300 		.ascii	"CR3\000"
 4912 0c9a 0E       		.byte	0xe
 4913 0c9b 1003     		.2byte	0x310
 4914 0c9d 00010000 		.4byte	0x100
 4915 0ca1 14       		.byte	0x14
 4916 0ca2 0A       		.uleb128 0xa
 4917 0ca3 AF200000 		.4byte	.LASF181
 4918 0ca7 0E       		.byte	0xe
 4919 0ca8 1103     		.2byte	0x311
 4920 0caa 00010000 		.4byte	0x100
 4921 0cae 18       		.byte	0x18
 4922 0caf 00       		.byte	0
 4923 0cb0 1A       		.uleb128 0x1a
 4924 0cb1 71210000 		.4byte	.LASF182
 4925 0cb5 0E       		.byte	0xe
ARM GAS  /var/folders/j2/t8glr22d56s93xphj_30s8g80000gn/T//cc8l81ic.s 			page 88


 4926 0cb6 1203     		.2byte	0x312
 4927 0cb8 4D0C0000 		.4byte	0xc4d
 4928 0cbc 13       		.uleb128 0x13
 4929 0cbd 00010000 		.4byte	0x100
 4930 0cc1 CC0C0000 		.4byte	0xccc
 4931 0cc5 14       		.uleb128 0x14
 4932 0cc6 37000000 		.4byte	0x37
 4933 0cca 0E       		.byte	0xe
 4934 0ccb 00       		.byte	0
 4935 0ccc 06       		.uleb128 0x6
 4936 0ccd BC0C0000 		.4byte	0xcbc
 4937 0cd1 03       		.uleb128 0x3
 4938 0cd2 8A160000 		.4byte	.LASF183
 4939 0cd6 0F       		.byte	0xf
 4940 0cd7 65       		.byte	0x65
 4941 0cd8 BA030000 		.4byte	0x3ba
 4942 0cdc 03       		.uleb128 0x3
 4943 0cdd 06080000 		.4byte	.LASF184
 4944 0ce1 0F       		.byte	0xf
 4945 0ce2 6D       		.byte	0x6d
 4946 0ce3 0A010000 		.4byte	0x10a
 4947 0ce7 07       		.uleb128 0x7
 4948 0ce8 18160000 		.4byte	.LASF185
 4949 0cec 04       		.byte	0x4
 4950 0ced 0F       		.byte	0xf
 4951 0cee 89       		.byte	0x89
 4952 0cef 000D0000 		.4byte	0xd00
 4953 0cf3 18       		.uleb128 0x18
 4954 0cf4 72313300 		.ascii	"r13\000"
 4955 0cf8 0F       		.byte	0xf
 4956 0cf9 8A       		.byte	0x8a
 4957 0cfa 410E0000 		.4byte	0xe41
 4958 0cfe 00       		.byte	0
 4959 0cff 00       		.byte	0
 4960 0d00 07       		.uleb128 0x7
 4961 0d01 09000000 		.4byte	.LASF186
 4962 0d05 64       		.byte	0x64
 4963 0d06 10       		.byte	0x10
 4964 0d07 F4       		.byte	0xf4
 4965 0d08 410E0000 		.4byte	0xe41
 4966 0d0c 18       		.uleb128 0x18
 4967 0d0d 73313600 		.ascii	"s16\000"
 4968 0d11 10       		.byte	0x10
 4969 0d12 F6       		.byte	0xf6
 4970 0d13 D10C0000 		.4byte	0xcd1
 4971 0d17 00       		.byte	0
 4972 0d18 18       		.uleb128 0x18
 4973 0d19 73313700 		.ascii	"s17\000"
 4974 0d1d 10       		.byte	0x10
 4975 0d1e F7       		.byte	0xf7
 4976 0d1f D10C0000 		.4byte	0xcd1
 4977 0d23 04       		.byte	0x4
 4978 0d24 18       		.uleb128 0x18
 4979 0d25 73313800 		.ascii	"s18\000"
 4980 0d29 10       		.byte	0x10
 4981 0d2a F8       		.byte	0xf8
 4982 0d2b D10C0000 		.4byte	0xcd1
ARM GAS  /var/folders/j2/t8glr22d56s93xphj_30s8g80000gn/T//cc8l81ic.s 			page 89


 4983 0d2f 08       		.byte	0x8
 4984 0d30 18       		.uleb128 0x18
 4985 0d31 73313900 		.ascii	"s19\000"
 4986 0d35 10       		.byte	0x10
 4987 0d36 F9       		.byte	0xf9
 4988 0d37 D10C0000 		.4byte	0xcd1
 4989 0d3b 0C       		.byte	0xc
 4990 0d3c 18       		.uleb128 0x18
 4991 0d3d 73323000 		.ascii	"s20\000"
 4992 0d41 10       		.byte	0x10
 4993 0d42 FA       		.byte	0xfa
 4994 0d43 D10C0000 		.4byte	0xcd1
 4995 0d47 10       		.byte	0x10
 4996 0d48 18       		.uleb128 0x18
 4997 0d49 73323100 		.ascii	"s21\000"
 4998 0d4d 10       		.byte	0x10
 4999 0d4e FB       		.byte	0xfb
 5000 0d4f D10C0000 		.4byte	0xcd1
 5001 0d53 14       		.byte	0x14
 5002 0d54 18       		.uleb128 0x18
 5003 0d55 73323200 		.ascii	"s22\000"
 5004 0d59 10       		.byte	0x10
 5005 0d5a FC       		.byte	0xfc
 5006 0d5b D10C0000 		.4byte	0xcd1
 5007 0d5f 18       		.byte	0x18
 5008 0d60 18       		.uleb128 0x18
 5009 0d61 73323300 		.ascii	"s23\000"
 5010 0d65 10       		.byte	0x10
 5011 0d66 FD       		.byte	0xfd
 5012 0d67 D10C0000 		.4byte	0xcd1
 5013 0d6b 1C       		.byte	0x1c
 5014 0d6c 18       		.uleb128 0x18
 5015 0d6d 73323400 		.ascii	"s24\000"
 5016 0d71 10       		.byte	0x10
 5017 0d72 FE       		.byte	0xfe
 5018 0d73 D10C0000 		.4byte	0xcd1
 5019 0d77 20       		.byte	0x20
 5020 0d78 18       		.uleb128 0x18
 5021 0d79 73323500 		.ascii	"s25\000"
 5022 0d7d 10       		.byte	0x10
 5023 0d7e FF       		.byte	0xff
 5024 0d7f D10C0000 		.4byte	0xcd1
 5025 0d83 24       		.byte	0x24
 5026 0d84 09       		.uleb128 0x9
 5027 0d85 73323600 		.ascii	"s26\000"
 5028 0d89 10       		.byte	0x10
 5029 0d8a 0001     		.2byte	0x100
 5030 0d8c D10C0000 		.4byte	0xcd1
 5031 0d90 28       		.byte	0x28
 5032 0d91 09       		.uleb128 0x9
 5033 0d92 73323700 		.ascii	"s27\000"
 5034 0d96 10       		.byte	0x10
 5035 0d97 0101     		.2byte	0x101
 5036 0d99 D10C0000 		.4byte	0xcd1
 5037 0d9d 2C       		.byte	0x2c
 5038 0d9e 09       		.uleb128 0x9
 5039 0d9f 73323800 		.ascii	"s28\000"
ARM GAS  /var/folders/j2/t8glr22d56s93xphj_30s8g80000gn/T//cc8l81ic.s 			page 90


 5040 0da3 10       		.byte	0x10
 5041 0da4 0201     		.2byte	0x102
 5042 0da6 D10C0000 		.4byte	0xcd1
 5043 0daa 30       		.byte	0x30
 5044 0dab 09       		.uleb128 0x9
 5045 0dac 73323900 		.ascii	"s29\000"
 5046 0db0 10       		.byte	0x10
 5047 0db1 0301     		.2byte	0x103
 5048 0db3 D10C0000 		.4byte	0xcd1
 5049 0db7 34       		.byte	0x34
 5050 0db8 09       		.uleb128 0x9
 5051 0db9 73333000 		.ascii	"s30\000"
 5052 0dbd 10       		.byte	0x10
 5053 0dbe 0401     		.2byte	0x104
 5054 0dc0 D10C0000 		.4byte	0xcd1
 5055 0dc4 38       		.byte	0x38
 5056 0dc5 09       		.uleb128 0x9
 5057 0dc6 73333100 		.ascii	"s31\000"
 5058 0dca 10       		.byte	0x10
 5059 0dcb 0501     		.2byte	0x105
 5060 0dcd D10C0000 		.4byte	0xcd1
 5061 0dd1 3C       		.byte	0x3c
 5062 0dd2 09       		.uleb128 0x9
 5063 0dd3 723400   		.ascii	"r4\000"
 5064 0dd6 10       		.byte	0x10
 5065 0dd7 0701     		.2byte	0x107
 5066 0dd9 D10C0000 		.4byte	0xcd1
 5067 0ddd 40       		.byte	0x40
 5068 0dde 09       		.uleb128 0x9
 5069 0ddf 723500   		.ascii	"r5\000"
 5070 0de2 10       		.byte	0x10
 5071 0de3 0801     		.2byte	0x108
 5072 0de5 D10C0000 		.4byte	0xcd1
 5073 0de9 44       		.byte	0x44
 5074 0dea 09       		.uleb128 0x9
 5075 0deb 723600   		.ascii	"r6\000"
 5076 0dee 10       		.byte	0x10
 5077 0def 0901     		.2byte	0x109
 5078 0df1 D10C0000 		.4byte	0xcd1
 5079 0df5 48       		.byte	0x48
 5080 0df6 09       		.uleb128 0x9
 5081 0df7 723700   		.ascii	"r7\000"
 5082 0dfa 10       		.byte	0x10
 5083 0dfb 0A01     		.2byte	0x10a
 5084 0dfd D10C0000 		.4byte	0xcd1
 5085 0e01 4C       		.byte	0x4c
 5086 0e02 09       		.uleb128 0x9
 5087 0e03 723800   		.ascii	"r8\000"
 5088 0e06 10       		.byte	0x10
 5089 0e07 0B01     		.2byte	0x10b
 5090 0e09 D10C0000 		.4byte	0xcd1
 5091 0e0d 50       		.byte	0x50
 5092 0e0e 09       		.uleb128 0x9
 5093 0e0f 723900   		.ascii	"r9\000"
 5094 0e12 10       		.byte	0x10
 5095 0e13 0C01     		.2byte	0x10c
 5096 0e15 D10C0000 		.4byte	0xcd1
ARM GAS  /var/folders/j2/t8glr22d56s93xphj_30s8g80000gn/T//cc8l81ic.s 			page 91


 5097 0e19 54       		.byte	0x54
 5098 0e1a 09       		.uleb128 0x9
 5099 0e1b 72313000 		.ascii	"r10\000"
 5100 0e1f 10       		.byte	0x10
 5101 0e20 0D01     		.2byte	0x10d
 5102 0e22 D10C0000 		.4byte	0xcd1
 5103 0e26 58       		.byte	0x58
 5104 0e27 09       		.uleb128 0x9
 5105 0e28 72313100 		.ascii	"r11\000"
 5106 0e2c 10       		.byte	0x10
 5107 0e2d 0E01     		.2byte	0x10e
 5108 0e2f D10C0000 		.4byte	0xcd1
 5109 0e33 5C       		.byte	0x5c
 5110 0e34 09       		.uleb128 0x9
 5111 0e35 6C7200   		.ascii	"lr\000"
 5112 0e38 10       		.byte	0x10
 5113 0e39 0F01     		.2byte	0x10f
 5114 0e3b D10C0000 		.4byte	0xcd1
 5115 0e3f 60       		.byte	0x60
 5116 0e40 00       		.byte	0
 5117 0e41 0B       		.uleb128 0xb
 5118 0e42 04       		.byte	0x4
 5119 0e43 000D0000 		.4byte	0xd00
 5120 0e47 17       		.uleb128 0x17
 5121 0e48 10       		.byte	0x10
 5122 0e49 11       		.byte	0x11
 5123 0e4a 51       		.byte	0x51
 5124 0e4b 800E0000 		.4byte	0xe80
 5125 0e4f 08       		.uleb128 0x8
 5126 0e50 D81B0000 		.4byte	.LASF187
 5127 0e54 11       		.byte	0x11
 5128 0e55 55       		.byte	0x55
 5129 0e56 99010000 		.4byte	0x199
 5130 0e5a 00       		.byte	0
 5131 0e5b 08       		.uleb128 0x8
 5132 0e5c 29170000 		.4byte	.LASF188
 5133 0e60 11       		.byte	0x11
 5134 0e61 59       		.byte	0x59
 5135 0e62 DD020000 		.4byte	0x2dd
 5136 0e66 04       		.byte	0x4
 5137 0e67 08       		.uleb128 0x8
 5138 0e68 DB0A0000 		.4byte	.LASF189
 5139 0e6c 11       		.byte	0x11
 5140 0e6d 5D       		.byte	0x5d
 5141 0e6e BA030000 		.4byte	0x3ba
 5142 0e72 08       		.byte	0x8
 5143 0e73 08       		.uleb128 0x8
 5144 0e74 E9080000 		.4byte	.LASF190
 5145 0e78 11       		.byte	0x11
 5146 0e79 61       		.byte	0x61
 5147 0e7a BF000000 		.4byte	0xbf
 5148 0e7e 0C       		.byte	0xc
 5149 0e7f 00       		.byte	0
 5150 0e80 03       		.uleb128 0x3
 5151 0e81 B40B0000 		.4byte	.LASF191
 5152 0e85 11       		.byte	0x11
 5153 0e86 62       		.byte	0x62
ARM GAS  /var/folders/j2/t8glr22d56s93xphj_30s8g80000gn/T//cc8l81ic.s 			page 92


 5154 0e87 470E0000 		.4byte	0xe47
 5155 0e8b 1C       		.uleb128 0x1c
 5156 0e8c 0804     		.2byte	0x408
 5157 0e8e 11       		.byte	0x11
 5158 0e8f 67       		.byte	0x67
 5159 0e90 B90E0000 		.4byte	0xeb9
 5160 0e94 08       		.uleb128 0x8
 5161 0e95 630C0000 		.4byte	.LASF192
 5162 0e99 11       		.byte	0x11
 5163 0e9a 6B       		.byte	0x6b
 5164 0e9b 37000000 		.4byte	0x37
 5165 0e9f 00       		.byte	0
 5166 0ea0 08       		.uleb128 0x8
 5167 0ea1 7E120000 		.4byte	.LASF193
 5168 0ea5 11       		.byte	0x11
 5169 0ea6 6F       		.byte	0x6f
 5170 0ea7 B90E0000 		.4byte	0xeb9
 5171 0eab 04       		.byte	0x4
 5172 0eac 08       		.uleb128 0x8
 5173 0ead 77080000 		.4byte	.LASF194
 5174 0eb1 11       		.byte	0x11
 5175 0eb2 73       		.byte	0x73
 5176 0eb3 BF0E0000 		.4byte	0xebf
 5177 0eb7 08       		.byte	0x8
 5178 0eb8 00       		.byte	0
 5179 0eb9 0B       		.uleb128 0xb
 5180 0eba 04       		.byte	0x4
 5181 0ebb 800E0000 		.4byte	0xe80
 5182 0ebf 13       		.uleb128 0x13
 5183 0ec0 800E0000 		.4byte	0xe80
 5184 0ec4 CF0E0000 		.4byte	0xecf
 5185 0ec8 14       		.uleb128 0x14
 5186 0ec9 37000000 		.4byte	0x37
 5187 0ecd 3F       		.byte	0x3f
 5188 0ece 00       		.byte	0
 5189 0ecf 03       		.uleb128 0x3
 5190 0ed0 15000000 		.4byte	.LASF195
 5191 0ed4 11       		.byte	0x11
 5192 0ed5 74       		.byte	0x74
 5193 0ed6 8B0E0000 		.4byte	0xe8b
 5194 0eda 17       		.uleb128 0x17
 5195 0edb 04       		.byte	0x4
 5196 0edc 12       		.byte	0x12
 5197 0edd 38       		.byte	0x38
 5198 0ede EF0E0000 		.4byte	0xeef
 5199 0ee2 08       		.uleb128 0x8
 5200 0ee3 9E1C0000 		.4byte	.LASF196
 5201 0ee7 12       		.byte	0x12
 5202 0ee8 3C       		.byte	0x3c
 5203 0ee9 15010000 		.4byte	0x115
 5204 0eed 00       		.byte	0
 5205 0eee 00       		.byte	0
 5206 0eef 03       		.uleb128 0x3
 5207 0ef0 95200000 		.4byte	.LASF197
 5208 0ef4 12       		.byte	0x12
 5209 0ef5 3D       		.byte	0x3d
 5210 0ef6 DA0E0000 		.4byte	0xeda
ARM GAS  /var/folders/j2/t8glr22d56s93xphj_30s8g80000gn/T//cc8l81ic.s 			page 93


 5211 0efa 17       		.uleb128 0x17
 5212 0efb 18       		.byte	0x18
 5213 0efc 12       		.byte	0x12
 5214 0efd 48       		.byte	0x48
 5215 0efe 3D0F0000 		.4byte	0xf3d
 5216 0f02 08       		.uleb128 0x8
 5217 0f03 82060000 		.4byte	.LASF198
 5218 0f07 12       		.byte	0x12
 5219 0f08 49       		.byte	0x49
 5220 0f09 15010000 		.4byte	0x115
 5221 0f0d 00       		.byte	0
 5222 0f0e 08       		.uleb128 0x8
 5223 0f0f 14010000 		.4byte	.LASF199
 5224 0f13 12       		.byte	0x12
 5225 0f14 4A       		.byte	0x4a
 5226 0f15 15010000 		.4byte	0x115
 5227 0f19 04       		.byte	0x4
 5228 0f1a 08       		.uleb128 0x8
 5229 0f1b 3B160000 		.4byte	.LASF200
 5230 0f1f 12       		.byte	0x12
 5231 0f20 4B       		.byte	0x4b
 5232 0f21 15010000 		.4byte	0x115
 5233 0f25 08       		.byte	0x8
 5234 0f26 18       		.uleb128 0x18
 5235 0f27 6E00     		.ascii	"n\000"
 5236 0f29 12       		.byte	0x12
 5237 0f2a 4C       		.byte	0x4c
 5238 0f2b 8E010000 		.4byte	0x18e
 5239 0f2f 0C       		.byte	0xc
 5240 0f30 08       		.uleb128 0x8
 5241 0f31 F4150000 		.4byte	.LASF201
 5242 0f35 12       		.byte	0x12
 5243 0f36 4D       		.byte	0x4d
 5244 0f37 20010000 		.4byte	0x120
 5245 0f3b 10       		.byte	0x10
 5246 0f3c 00       		.byte	0
 5247 0f3d 03       		.uleb128 0x3
 5248 0f3e E31E0000 		.4byte	.LASF202
 5249 0f42 12       		.byte	0x12
 5250 0f43 4E       		.byte	0x4e
 5251 0f44 FA0E0000 		.4byte	0xefa
 5252 0f48 17       		.uleb128 0x17
 5253 0f49 38       		.byte	0x38
 5254 0f4a 13       		.byte	0x13
 5255 0f4b 38       		.byte	0x38
 5256 0f4c 810F0000 		.4byte	0xf81
 5257 0f50 08       		.uleb128 0x8
 5258 0f51 E6050000 		.4byte	.LASF203
 5259 0f55 13       		.byte	0x13
 5260 0f56 39       		.byte	0x39
 5261 0f57 8E010000 		.4byte	0x18e
 5262 0f5b 00       		.byte	0
 5263 0f5c 08       		.uleb128 0x8
 5264 0f5d 9E090000 		.4byte	.LASF204
 5265 0f61 13       		.byte	0x13
 5266 0f62 3A       		.byte	0x3a
 5267 0f63 8E010000 		.4byte	0x18e
ARM GAS  /var/folders/j2/t8glr22d56s93xphj_30s8g80000gn/T//cc8l81ic.s 			page 94


 5268 0f67 04       		.byte	0x4
 5269 0f68 08       		.uleb128 0x8
 5270 0f69 751E0000 		.4byte	.LASF205
 5271 0f6d 13       		.byte	0x13
 5272 0f6e 3B       		.byte	0x3b
 5273 0f6f 3D0F0000 		.4byte	0xf3d
 5274 0f73 08       		.byte	0x8
 5275 0f74 08       		.uleb128 0x8
 5276 0f75 6D000000 		.4byte	.LASF206
 5277 0f79 13       		.byte	0x13
 5278 0f7a 3D       		.byte	0x3d
 5279 0f7b 3D0F0000 		.4byte	0xf3d
 5280 0f7f 20       		.byte	0x20
 5281 0f80 00       		.byte	0
 5282 0f81 03       		.uleb128 0x3
 5283 0f82 2C040000 		.4byte	.LASF207
 5284 0f86 13       		.byte	0x13
 5285 0f87 3F       		.byte	0x3f
 5286 0f88 480F0000 		.4byte	0xf48
 5287 0f8c 1D       		.uleb128 0x1d
 5288 0f8d 04       		.byte	0x4
 5289 0f8e 0B       		.byte	0xb
 5290 0f8f FA       		.byte	0xfa
 5291 0f90 E90F0000 		.4byte	0xfe9
 5292 0f94 1E       		.uleb128 0x1e
 5293 0f95 200F0000 		.4byte	.LASF208
 5294 0f99 0B       		.byte	0xb
 5295 0f9a 0101     		.2byte	0x101
 5296 0f9c 62010000 		.4byte	0x162
 5297 0fa0 1E       		.uleb128 0x1e
 5298 0fa1 0C070000 		.4byte	.LASF209
 5299 0fa5 0B       		.byte	0xb
 5300 0fa6 0801     		.2byte	0x108
 5301 0fa8 62010000 		.4byte	0x162
 5302 0fac 1E       		.uleb128 0x1e
 5303 0fad B9190000 		.4byte	.LASF210
 5304 0fb1 0B       		.byte	0xb
 5305 0fb2 0F01     		.2byte	0x10f
 5306 0fb4 BA030000 		.4byte	0x3ba
 5307 0fb8 1E       		.uleb128 0x1e
 5308 0fb9 0A160000 		.4byte	.LASF211
 5309 0fbd 0B       		.byte	0xb
 5310 0fbe 1601     		.2byte	0x116
 5311 0fc0 E90F0000 		.4byte	0xfe9
 5312 0fc4 1E       		.uleb128 0x1e
 5313 0fc5 B7000000 		.4byte	.LASF212
 5314 0fc9 0B       		.byte	0xb
 5315 0fca 1E01     		.2byte	0x11e
 5316 0fcc 14100000 		.4byte	0x1014
 5317 0fd0 1E       		.uleb128 0x1e
 5318 0fd1 F2190000 		.4byte	.LASF213
 5319 0fd5 0B       		.byte	0xb
 5320 0fd6 2701     		.2byte	0x127
 5321 0fd8 57100000 		.4byte	0x1057
 5322 0fdc 1E       		.uleb128 0x1e
 5323 0fdd 351D0000 		.4byte	.LASF214
 5324 0fe1 0B       		.byte	0xb
ARM GAS  /var/folders/j2/t8glr22d56s93xphj_30s8g80000gn/T//cc8l81ic.s 			page 95


 5325 0fe2 2F01     		.2byte	0x12f
 5326 0fe4 6D010000 		.4byte	0x16d
 5327 0fe8 00       		.byte	0
 5328 0fe9 0B       		.uleb128 0xb
 5329 0fea 04       		.byte	0x4
 5330 0feb D2020000 		.4byte	0x2d2
 5331 0fef 07       		.uleb128 0x7
 5332 0ff0 A3140000 		.4byte	.LASF215
 5333 0ff4 0C       		.byte	0xc
 5334 0ff5 14       		.byte	0x14
 5335 0ff6 34       		.byte	0x34
 5336 0ff7 14100000 		.4byte	0x1014
 5337 0ffb 08       		.uleb128 0x8
 5338 0ffc 6D1E0000 		.4byte	.LASF216
 5339 1000 14       		.byte	0x14
 5340 1001 35       		.byte	0x35
 5341 1002 07030000 		.4byte	0x307
 5342 1006 00       		.byte	0
 5343 1007 08       		.uleb128 0x8
 5344 1008 89080000 		.4byte	.LASF217
 5345 100c 14       		.byte	0x14
 5346 100d 37       		.byte	0x37
 5347 100e 83010000 		.4byte	0x183
 5348 1012 08       		.byte	0x8
 5349 1013 00       		.byte	0
 5350 1014 0B       		.uleb128 0xb
 5351 1015 04       		.byte	0x4
 5352 1016 EF0F0000 		.4byte	0xfef
 5353 101a 07       		.uleb128 0x7
 5354 101b 4B0A0000 		.4byte	.LASF218
 5355 101f 14       		.byte	0x14
 5356 1020 15       		.byte	0x15
 5357 1021 39       		.byte	0x39
 5358 1022 57100000 		.4byte	0x1057
 5359 1026 08       		.uleb128 0x8
 5360 1027 9B150000 		.4byte	.LASF219
 5361 102b 15       		.byte	0x15
 5362 102c 3A       		.byte	0x3a
 5363 102d 07030000 		.4byte	0x307
 5364 1031 00       		.byte	0
 5365 1032 08       		.uleb128 0x8
 5366 1033 BB130000 		.4byte	.LASF220
 5367 1037 15       		.byte	0x15
 5368 1038 3C       		.byte	0x3c
 5369 1039 DD020000 		.4byte	0x2dd
 5370 103d 08       		.byte	0x8
 5371 103e 08       		.uleb128 0x8
 5372 103f 4B010000 		.4byte	.LASF221
 5373 1043 15       		.byte	0x15
 5374 1044 3E       		.byte	0x3e
 5375 1045 B2110000 		.4byte	0x11b2
 5376 1049 0C       		.byte	0xc
 5377 104a 08       		.uleb128 0x8
 5378 104b 7F070000 		.4byte	.LASF222
 5379 104f 15       		.byte	0x15
 5380 1050 41       		.byte	0x41
 5381 1051 83010000 		.4byte	0x183
ARM GAS  /var/folders/j2/t8glr22d56s93xphj_30s8g80000gn/T//cc8l81ic.s 			page 96


 5382 1055 10       		.byte	0x10
 5383 1056 00       		.byte	0
 5384 1057 0B       		.uleb128 0xb
 5385 1058 04       		.byte	0x4
 5386 1059 1A100000 		.4byte	0x101a
 5387 105d 0B       		.uleb128 0xb
 5388 105e 04       		.byte	0x4
 5389 105f 6F100000 		.4byte	0x106f
 5390 1063 06       		.uleb128 0x6
 5391 1064 5D100000 		.4byte	0x105d
 5392 1068 04       		.uleb128 0x4
 5393 1069 01       		.byte	0x1
 5394 106a 08       		.byte	0x8
 5395 106b A7170000 		.4byte	.LASF223
 5396 106f 05       		.uleb128 0x5
 5397 1070 68100000 		.4byte	0x1068
 5398 1074 0B       		.uleb128 0xb
 5399 1075 04       		.byte	0x4
 5400 1076 DC0C0000 		.4byte	0xcdc
 5401 107a 0B       		.uleb128 0xb
 5402 107b 04       		.byte	0x4
 5403 107c BC030000 		.4byte	0x3bc
 5404 1080 13       		.uleb128 0x13
 5405 1081 DC0C0000 		.4byte	0xcdc
 5406 1085 90100000 		.4byte	0x1090
 5407 1089 14       		.uleb128 0x14
 5408 108a 37000000 		.4byte	0x37
 5409 108e 30       		.byte	0x30
 5410 108f 00       		.byte	0
 5411 1090 1F       		.uleb128 0x1f
 5412 1091 636800   		.ascii	"ch\000"
 5413 1094 0B       		.byte	0xb
 5414 1095 0902     		.2byte	0x209
 5415 1097 B1040000 		.4byte	0x4b1
 5416 109b 17       		.uleb128 0x17
 5417 109c 16       		.byte	0x16
 5418 109d 02       		.byte	0x2
 5419 109e 34       		.byte	0x34
 5420 109f 7C110000 		.4byte	0x117c
 5421 10a3 08       		.uleb128 0x8
 5422 10a4 9A1E0000 		.4byte	.LASF224
 5423 10a8 02       		.byte	0x2
 5424 10a9 35       		.byte	0x35
 5425 10aa 7C110000 		.4byte	0x117c
 5426 10ae 00       		.byte	0
 5427 10af 08       		.uleb128 0x8
 5428 10b0 B4200000 		.4byte	.LASF225
 5429 10b4 02       		.byte	0x2
 5430 10b5 36       		.byte	0x36
 5431 10b6 BF000000 		.4byte	0xbf
 5432 10ba 04       		.byte	0x4
 5433 10bb 08       		.uleb128 0x8
 5434 10bc 4E020000 		.4byte	.LASF226
 5435 10c0 02       		.byte	0x2
 5436 10c1 37       		.byte	0x37
 5437 10c2 BF000000 		.4byte	0xbf
 5438 10c6 05       		.byte	0x5
ARM GAS  /var/folders/j2/t8glr22d56s93xphj_30s8g80000gn/T//cc8l81ic.s 			page 97


 5439 10c7 08       		.uleb128 0x8
 5440 10c8 F7130000 		.4byte	.LASF227
 5441 10cc 02       		.byte	0x2
 5442 10cd 38       		.byte	0x38
 5443 10ce DA000000 		.4byte	0xda
 5444 10d2 06       		.byte	0x6
 5445 10d3 08       		.uleb128 0x8
 5446 10d4 27000000 		.4byte	.LASF228
 5447 10d8 02       		.byte	0x2
 5448 10d9 39       		.byte	0x39
 5449 10da BF000000 		.4byte	0xbf
 5450 10de 08       		.byte	0x8
 5451 10df 08       		.uleb128 0x8
 5452 10e0 41120000 		.4byte	.LASF229
 5453 10e4 02       		.byte	0x2
 5454 10e5 3A       		.byte	0x3a
 5455 10e6 BF000000 		.4byte	0xbf
 5456 10ea 09       		.byte	0x9
 5457 10eb 08       		.uleb128 0x8
 5458 10ec DD200000 		.4byte	.LASF230
 5459 10f0 02       		.byte	0x2
 5460 10f1 3B       		.byte	0x3b
 5461 10f2 BF000000 		.4byte	0xbf
 5462 10f6 0A       		.byte	0xa
 5463 10f7 08       		.uleb128 0x8
 5464 10f8 D71E0000 		.4byte	.LASF231
 5465 10fc 02       		.byte	0x2
 5466 10fd 3C       		.byte	0x3c
 5467 10fe BF000000 		.4byte	0xbf
 5468 1102 0B       		.byte	0xb
 5469 1103 08       		.uleb128 0x8
 5470 1104 70040000 		.4byte	.LASF232
 5471 1108 02       		.byte	0x2
 5472 1109 3D       		.byte	0x3d
 5473 110a BF000000 		.4byte	0xbf
 5474 110e 0C       		.byte	0xc
 5475 110f 08       		.uleb128 0x8
 5476 1110 A30A0000 		.4byte	.LASF233
 5477 1114 02       		.byte	0x2
 5478 1115 3E       		.byte	0x3e
 5479 1116 BF000000 		.4byte	0xbf
 5480 111a 0D       		.byte	0xd
 5481 111b 08       		.uleb128 0x8
 5482 111c BA040000 		.4byte	.LASF234
 5483 1120 02       		.byte	0x2
 5484 1121 3F       		.byte	0x3f
 5485 1122 BF000000 		.4byte	0xbf
 5486 1126 0E       		.byte	0xe
 5487 1127 08       		.uleb128 0x8
 5488 1128 160C0000 		.4byte	.LASF235
 5489 112c 02       		.byte	0x2
 5490 112d 40       		.byte	0x40
 5491 112e BF000000 		.4byte	0xbf
 5492 1132 0F       		.byte	0xf
 5493 1133 08       		.uleb128 0x8
 5494 1134 1C030000 		.4byte	.LASF236
 5495 1138 02       		.byte	0x2
ARM GAS  /var/folders/j2/t8glr22d56s93xphj_30s8g80000gn/T//cc8l81ic.s 			page 98


 5496 1139 41       		.byte	0x41
 5497 113a BF000000 		.4byte	0xbf
 5498 113e 10       		.byte	0x10
 5499 113f 08       		.uleb128 0x8
 5500 1140 8F070000 		.4byte	.LASF237
 5501 1144 02       		.byte	0x2
 5502 1145 43       		.byte	0x43
 5503 1146 BF000000 		.4byte	0xbf
 5504 114a 11       		.byte	0x11
 5505 114b 08       		.uleb128 0x8
 5506 114c 25020000 		.4byte	.LASF238
 5507 1150 02       		.byte	0x2
 5508 1151 44       		.byte	0x44
 5509 1152 BF000000 		.4byte	0xbf
 5510 1156 12       		.byte	0x12
 5511 1157 08       		.uleb128 0x8
 5512 1158 A5130000 		.4byte	.LASF239
 5513 115c 02       		.byte	0x2
 5514 115d 45       		.byte	0x45
 5515 115e BF000000 		.4byte	0xbf
 5516 1162 13       		.byte	0x13
 5517 1163 08       		.uleb128 0x8
 5518 1164 24190000 		.4byte	.LASF240
 5519 1168 02       		.byte	0x2
 5520 1169 46       		.byte	0x46
 5521 116a BF000000 		.4byte	0xbf
 5522 116e 14       		.byte	0x14
 5523 116f 08       		.uleb128 0x8
 5524 1170 95000000 		.4byte	.LASF241
 5525 1174 02       		.byte	0x2
 5526 1175 48       		.byte	0x48
 5527 1176 BF000000 		.4byte	0xbf
 5528 117a 15       		.byte	0x15
 5529 117b 00       		.byte	0
 5530 117c 13       		.uleb128 0x13
 5531 117d 68100000 		.4byte	0x1068
 5532 1181 8C110000 		.4byte	0x118c
 5533 1185 14       		.uleb128 0x14
 5534 1186 37000000 		.4byte	0x37
 5535 118a 03       		.byte	0x3
 5536 118b 00       		.byte	0
 5537 118c 03       		.uleb128 0x3
 5538 118d E8110000 		.4byte	.LASF242
 5539 1191 02       		.byte	0x2
 5540 1192 49       		.byte	0x49
 5541 1193 9B100000 		.4byte	0x109b
 5542 1197 05       		.uleb128 0x5
 5543 1198 8C110000 		.4byte	0x118c
 5544 119c 16       		.uleb128 0x16
 5545 119d A7090000 		.4byte	.LASF243
 5546 11a1 02       		.byte	0x2
 5547 11a2 6E       		.byte	0x6e
 5548 11a3 97110000 		.4byte	0x1197
 5549 11a7 03       		.uleb128 0x3
 5550 11a8 2B1B0000 		.4byte	.LASF244
 5551 11ac 15       		.byte	0x15
 5552 11ad 34       		.byte	0x34
ARM GAS  /var/folders/j2/t8glr22d56s93xphj_30s8g80000gn/T//cc8l81ic.s 			page 99


 5553 11ae 1A100000 		.4byte	0x101a
 5554 11b2 0B       		.uleb128 0xb
 5555 11b3 04       		.byte	0x4
 5556 11b4 A7110000 		.4byte	0x11a7
 5557 11b8 03       		.uleb128 0x3
 5558 11b9 F5090000 		.4byte	.LASF245
 5559 11bd 16       		.byte	0x16
 5560 11be 34       		.byte	0x34
 5561 11bf C3110000 		.4byte	0x11c3
 5562 11c3 07       		.uleb128 0x7
 5563 11c4 42210000 		.4byte	.LASF246
 5564 11c8 14       		.byte	0x14
 5565 11c9 16       		.byte	0x16
 5566 11ca 39       		.byte	0x39
 5567 11cb 0C120000 		.4byte	0x120c
 5568 11cf 08       		.uleb128 0x8
 5569 11d0 C1010000 		.4byte	.LASF247
 5570 11d4 16       		.byte	0x16
 5571 11d5 3A       		.byte	0x3a
 5572 11d6 0C120000 		.4byte	0x120c
 5573 11da 00       		.byte	0
 5574 11db 08       		.uleb128 0x8
 5575 11dc 091C0000 		.4byte	.LASF248
 5576 11e0 16       		.byte	0x16
 5577 11e1 3D       		.byte	0x3d
 5578 11e2 DD020000 		.4byte	0x2dd
 5579 11e6 04       		.byte	0x4
 5580 11e7 08       		.uleb128 0x8
 5581 11e8 AF020000 		.4byte	.LASF249
 5582 11ec 16       		.byte	0x16
 5583 11ed 3F       		.byte	0x3f
 5584 11ee 6D010000 		.4byte	0x16d
 5585 11f2 08       		.byte	0x8
 5586 11f3 08       		.uleb128 0x8
 5587 11f4 3C1D0000 		.4byte	.LASF250
 5588 11f8 16       		.byte	0x16
 5589 11f9 41       		.byte	0x41
 5590 11fa 78010000 		.4byte	0x178
 5591 11fe 0C       		.byte	0xc
 5592 11ff 08       		.uleb128 0x8
 5593 1200 4F0C0000 		.4byte	.LASF251
 5594 1204 16       		.byte	0x16
 5595 1205 43       		.byte	0x43
 5596 1206 78010000 		.4byte	0x178
 5597 120a 10       		.byte	0x10
 5598 120b 00       		.byte	0
 5599 120c 0B       		.uleb128 0xb
 5600 120d 04       		.byte	0x4
 5601 120e B8110000 		.4byte	0x11b8
 5602 1212 07       		.uleb128 0x7
 5603 1213 451D0000 		.4byte	.LASF252
 5604 1217 04       		.byte	0x4
 5605 1218 16       		.byte	0x16
 5606 1219 4A       		.byte	0x4a
 5607 121a 2B120000 		.4byte	0x122b
 5608 121e 08       		.uleb128 0x8
 5609 121f C91C0000 		.4byte	.LASF253
ARM GAS  /var/folders/j2/t8glr22d56s93xphj_30s8g80000gn/T//cc8l81ic.s 			page 100


 5610 1223 16       		.byte	0x16
 5611 1224 4B       		.byte	0x4b
 5612 1225 0C120000 		.4byte	0x120c
 5613 1229 00       		.byte	0
 5614 122a 00       		.byte	0
 5615 122b 03       		.uleb128 0x3
 5616 122c 5D120000 		.4byte	.LASF254
 5617 1230 16       		.byte	0x16
 5618 1231 4E       		.byte	0x4e
 5619 1232 12120000 		.4byte	0x1212
 5620 1236 03       		.uleb128 0x3
 5621 1237 870C0000 		.4byte	.LASF255
 5622 123b 17       		.byte	0x17
 5623 123c 3F       		.byte	0x3f
 5624 123d 41120000 		.4byte	0x1241
 5625 1241 07       		.uleb128 0x7
 5626 1242 8C0F0000 		.4byte	.LASF256
 5627 1246 24       		.byte	0x24
 5628 1247 17       		.byte	0x17
 5629 1248 4D       		.byte	0x4d
 5630 1249 AE120000 		.4byte	0x12ae
 5631 124d 08       		.uleb128 0x8
 5632 124e 3B040000 		.4byte	.LASF257
 5633 1252 17       		.byte	0x17
 5634 1253 4E       		.byte	0x4e
 5635 1254 07030000 		.4byte	0x307
 5636 1258 00       		.byte	0
 5637 1259 08       		.uleb128 0x8
 5638 125a D91A0000 		.4byte	.LASF258
 5639 125e 17       		.byte	0x17
 5640 125f 4F       		.byte	0x4f
 5641 1260 2C000000 		.4byte	0x2c
 5642 1264 08       		.byte	0x8
 5643 1265 08       		.uleb128 0x8
 5644 1266 31100000 		.4byte	.LASF259
 5645 126a 17       		.byte	0x17
 5646 126b 50       		.byte	0x50
 5647 126c D0120000 		.4byte	0x12d0
 5648 1270 0C       		.byte	0xc
 5649 1271 08       		.uleb128 0x8
 5650 1272 A0030000 		.4byte	.LASF260
 5651 1276 17       		.byte	0x17
 5652 1277 51       		.byte	0x51
 5653 1278 D0120000 		.4byte	0x12d0
 5654 127c 10       		.byte	0x10
 5655 127d 08       		.uleb128 0x8
 5656 127e 3B170000 		.4byte	.LASF261
 5657 1282 17       		.byte	0x17
 5658 1283 53       		.byte	0x53
 5659 1284 D0120000 		.4byte	0x12d0
 5660 1288 14       		.byte	0x14
 5661 1289 08       		.uleb128 0x8
 5662 128a 10160000 		.4byte	.LASF262
 5663 128e 17       		.byte	0x17
 5664 128f 54       		.byte	0x54
 5665 1290 D0120000 		.4byte	0x12d0
 5666 1294 18       		.byte	0x18
ARM GAS  /var/folders/j2/t8glr22d56s93xphj_30s8g80000gn/T//cc8l81ic.s 			page 101


 5667 1295 08       		.uleb128 0x8
 5668 1296 E9190000 		.4byte	.LASF263
 5669 129a 17       		.byte	0x17
 5670 129b 55       		.byte	0x55
 5671 129c AE120000 		.4byte	0x12ae
 5672 12a0 1C       		.byte	0x1c
 5673 12a1 08       		.uleb128 0x8
 5674 12a2 1A180000 		.4byte	.LASF264
 5675 12a6 17       		.byte	0x17
 5676 12a7 56       		.byte	0x56
 5677 12a8 BA030000 		.4byte	0x3ba
 5678 12ac 20       		.byte	0x20
 5679 12ad 00       		.byte	0
 5680 12ae 03       		.uleb128 0x3
 5681 12af 65030000 		.4byte	.LASF265
 5682 12b3 17       		.byte	0x17
 5683 12b4 42       		.byte	0x42
 5684 12b5 B9120000 		.4byte	0x12b9
 5685 12b9 0B       		.uleb128 0xb
 5686 12ba 04       		.byte	0x4
 5687 12bb BF120000 		.4byte	0x12bf
 5688 12bf 0D       		.uleb128 0xd
 5689 12c0 CA120000 		.4byte	0x12ca
 5690 12c4 0E       		.uleb128 0xe
 5691 12c5 CA120000 		.4byte	0x12ca
 5692 12c9 00       		.byte	0
 5693 12ca 0B       		.uleb128 0xb
 5694 12cb 04       		.byte	0x4
 5695 12cc 36120000 		.4byte	0x1236
 5696 12d0 0B       		.uleb128 0xb
 5697 12d1 04       		.byte	0x4
 5698 12d2 BF000000 		.4byte	0xbf
 5699 12d6 03       		.uleb128 0x3
 5700 12d7 7B040000 		.4byte	.LASF266
 5701 12db 17       		.byte	0x17
 5702 12dc 64       		.byte	0x64
 5703 12dd 36120000 		.4byte	0x1236
 5704 12e1 03       		.uleb128 0x3
 5705 12e2 7F210000 		.4byte	.LASF267
 5706 12e6 17       		.byte	0x17
 5707 12e7 71       		.byte	0x71
 5708 12e8 36120000 		.4byte	0x1236
 5709 12ec 20       		.uleb128 0x20
 5710 12ed 2C000000 		.4byte	0x2c
 5711 12f1 05130000 		.4byte	0x1305
 5712 12f5 0E       		.uleb128 0xe
 5713 12f6 BA030000 		.4byte	0x3ba
 5714 12fa 0E       		.uleb128 0xe
 5715 12fb 05130000 		.4byte	0x1305
 5716 12ff 0E       		.uleb128 0xe
 5717 1300 2C000000 		.4byte	0x2c
 5718 1304 00       		.byte	0
 5719 1305 0B       		.uleb128 0xb
 5720 1306 04       		.byte	0x4
 5721 1307 CA000000 		.4byte	0xca
 5722 130b 0B       		.uleb128 0xb
 5723 130c 04       		.byte	0x4
ARM GAS  /var/folders/j2/t8glr22d56s93xphj_30s8g80000gn/T//cc8l81ic.s 			page 102


 5724 130d EC120000 		.4byte	0x12ec
 5725 1311 20       		.uleb128 0x20
 5726 1312 2C000000 		.4byte	0x2c
 5727 1316 2A130000 		.4byte	0x132a
 5728 131a 0E       		.uleb128 0xe
 5729 131b BA030000 		.4byte	0x3ba
 5730 131f 0E       		.uleb128 0xe
 5731 1320 D0120000 		.4byte	0x12d0
 5732 1324 0E       		.uleb128 0xe
 5733 1325 2C000000 		.4byte	0x2c
 5734 1329 00       		.byte	0
 5735 132a 0B       		.uleb128 0xb
 5736 132b 04       		.byte	0x4
 5737 132c 11130000 		.4byte	0x1311
 5738 1330 20       		.uleb128 0x20
 5739 1331 62010000 		.4byte	0x162
 5740 1335 44130000 		.4byte	0x1344
 5741 1339 0E       		.uleb128 0xe
 5742 133a BA030000 		.4byte	0x3ba
 5743 133e 0E       		.uleb128 0xe
 5744 133f BF000000 		.4byte	0xbf
 5745 1343 00       		.byte	0
 5746 1344 0B       		.uleb128 0xb
 5747 1345 04       		.byte	0x4
 5748 1346 30130000 		.4byte	0x1330
 5749 134a 20       		.uleb128 0x20
 5750 134b 62010000 		.4byte	0x162
 5751 134f 59130000 		.4byte	0x1359
 5752 1353 0E       		.uleb128 0xe
 5753 1354 BA030000 		.4byte	0x3ba
 5754 1358 00       		.byte	0
 5755 1359 0B       		.uleb128 0xb
 5756 135a 04       		.byte	0x4
 5757 135b 4A130000 		.4byte	0x134a
 5758 135f 17       		.uleb128 0x17
 5759 1360 0C       		.byte	0xc
 5760 1361 18       		.byte	0x18
 5761 1362 DA       		.byte	0xda
 5762 1363 A4130000 		.4byte	0x13a4
 5763 1367 08       		.uleb128 0x8
 5764 1368 29210000 		.4byte	.LASF268
 5765 136c 18       		.byte	0x18
 5766 136d DB       		.byte	0xdb
 5767 136e A4130000 		.4byte	0x13a4
 5768 1372 00       		.byte	0
 5769 1373 08       		.uleb128 0x8
 5770 1374 030F0000 		.4byte	.LASF269
 5771 1378 18       		.byte	0x18
 5772 1379 DC       		.byte	0xdc
 5773 137a AA130000 		.4byte	0x13aa
 5774 137e 04       		.byte	0x4
 5775 137f 08       		.uleb128 0x8
 5776 1380 8D030000 		.4byte	.LASF270
 5777 1384 18       		.byte	0x18
 5778 1385 DD       		.byte	0xdd
 5779 1386 BF000000 		.4byte	0xbf
 5780 138a 08       		.byte	0x8
ARM GAS  /var/folders/j2/t8glr22d56s93xphj_30s8g80000gn/T//cc8l81ic.s 			page 103


 5781 138b 08       		.uleb128 0x8
 5782 138c 211B0000 		.4byte	.LASF271
 5783 1390 18       		.byte	0x18
 5784 1391 DF       		.byte	0xdf
 5785 1392 BF000000 		.4byte	0xbf
 5786 1396 09       		.byte	0x9
 5787 1397 08       		.uleb128 0x8
 5788 1398 E7020000 		.4byte	.LASF272
 5789 139c 18       		.byte	0x18
 5790 139d E0       		.byte	0xe0
 5791 139e BF000000 		.4byte	0xbf
 5792 13a2 0A       		.byte	0xa
 5793 13a3 00       		.byte	0
 5794 13a4 0B       		.uleb128 0xb
 5795 13a5 04       		.byte	0x4
 5796 13a6 CD090000 		.4byte	0x9cd
 5797 13aa 0B       		.uleb128 0xb
 5798 13ab 04       		.byte	0x4
 5799 13ac 00010000 		.4byte	0x100
 5800 13b0 03       		.uleb128 0x3
 5801 13b1 08110000 		.4byte	.LASF273
 5802 13b5 18       		.byte	0x18
 5803 13b6 E1       		.byte	0xe1
 5804 13b7 5F130000 		.4byte	0x135f
 5805 13bb 05       		.uleb128 0x5
 5806 13bc B0130000 		.4byte	0x13b0
 5807 13c0 13       		.uleb128 0x13
 5808 13c1 BB130000 		.4byte	0x13bb
 5809 13c5 D0130000 		.4byte	0x13d0
 5810 13c9 14       		.uleb128 0x14
 5811 13ca 37000000 		.4byte	0x37
 5812 13ce 0F       		.byte	0xf
 5813 13cf 00       		.byte	0
 5814 13d0 05       		.uleb128 0x5
 5815 13d1 C0130000 		.4byte	0x13c0
 5816 13d5 15       		.uleb128 0x15
 5817 13d6 87180000 		.4byte	.LASF274
 5818 13da 18       		.byte	0x18
 5819 13db BB01     		.2byte	0x1bb
 5820 13dd D0130000 		.4byte	0x13d0
 5821 13e1 20       		.uleb128 0x20
 5822 13e2 62010000 		.4byte	0x162
 5823 13e6 FA130000 		.4byte	0x13fa
 5824 13ea 0E       		.uleb128 0xe
 5825 13eb BA030000 		.4byte	0x3ba
 5826 13ef 0E       		.uleb128 0xe
 5827 13f0 BF000000 		.4byte	0xbf
 5828 13f4 0E       		.uleb128 0xe
 5829 13f5 99010000 		.4byte	0x199
 5830 13f9 00       		.byte	0
 5831 13fa 0B       		.uleb128 0xb
 5832 13fb 04       		.byte	0x4
 5833 13fc E1130000 		.4byte	0x13e1
 5834 1400 20       		.uleb128 0x20
 5835 1401 62010000 		.4byte	0x162
 5836 1405 14140000 		.4byte	0x1414
 5837 1409 0E       		.uleb128 0xe
ARM GAS  /var/folders/j2/t8glr22d56s93xphj_30s8g80000gn/T//cc8l81ic.s 			page 104


 5838 140a BA030000 		.4byte	0x3ba
 5839 140e 0E       		.uleb128 0xe
 5840 140f 99010000 		.4byte	0x199
 5841 1413 00       		.byte	0
 5842 1414 0B       		.uleb128 0xb
 5843 1415 04       		.byte	0x4
 5844 1416 00140000 		.4byte	0x1400
 5845 141a 20       		.uleb128 0x20
 5846 141b 2C000000 		.4byte	0x2c
 5847 141f 38140000 		.4byte	0x1438
 5848 1423 0E       		.uleb128 0xe
 5849 1424 BA030000 		.4byte	0x3ba
 5850 1428 0E       		.uleb128 0xe
 5851 1429 05130000 		.4byte	0x1305
 5852 142d 0E       		.uleb128 0xe
 5853 142e 2C000000 		.4byte	0x2c
 5854 1432 0E       		.uleb128 0xe
 5855 1433 99010000 		.4byte	0x199
 5856 1437 00       		.byte	0
 5857 1438 0B       		.uleb128 0xb
 5858 1439 04       		.byte	0x4
 5859 143a 1A140000 		.4byte	0x141a
 5860 143e 20       		.uleb128 0x20
 5861 143f 2C000000 		.4byte	0x2c
 5862 1443 5C140000 		.4byte	0x145c
 5863 1447 0E       		.uleb128 0xe
 5864 1448 BA030000 		.4byte	0x3ba
 5865 144c 0E       		.uleb128 0xe
 5866 144d D0120000 		.4byte	0x12d0
 5867 1451 0E       		.uleb128 0xe
 5868 1452 2C000000 		.4byte	0x2c
 5869 1456 0E       		.uleb128 0xe
 5870 1457 99010000 		.4byte	0x199
 5871 145b 00       		.byte	0
 5872 145c 0B       		.uleb128 0xb
 5873 145d 04       		.byte	0x4
 5874 145e 3E140000 		.4byte	0x143e
 5875 1462 21       		.uleb128 0x21
 5876 1463 07       		.byte	0x7
 5877 1464 01       		.byte	0x1
 5878 1465 5E000000 		.4byte	0x5e
 5879 1469 19       		.byte	0x19
 5880 146a 28       		.byte	0x28
 5881 146b A6140000 		.4byte	0x14a6
 5882 146f 22       		.uleb128 0x22
 5883 1470 E2000000 		.4byte	.LASF275
 5884 1474 00       		.byte	0
 5885 1475 22       		.uleb128 0x22
 5886 1476 0C0D0000 		.4byte	.LASF276
 5887 147a 01       		.byte	0x1
 5888 147b 22       		.uleb128 0x22
 5889 147c EA090000 		.4byte	.LASF277
 5890 1480 02       		.byte	0x2
 5891 1481 22       		.uleb128 0x22
 5892 1482 5F190000 		.4byte	.LASF278
 5893 1486 03       		.byte	0x3
 5894 1487 22       		.uleb128 0x22
ARM GAS  /var/folders/j2/t8glr22d56s93xphj_30s8g80000gn/T//cc8l81ic.s 			page 105


 5895 1488 FE1F0000 		.4byte	.LASF279
 5896 148c 04       		.byte	0x4
 5897 148d 22       		.uleb128 0x22
 5898 148e AC060000 		.4byte	.LASF280
 5899 1492 05       		.byte	0x5
 5900 1493 22       		.uleb128 0x22
 5901 1494 F91A0000 		.4byte	.LASF281
 5902 1498 06       		.byte	0x6
 5903 1499 22       		.uleb128 0x22
 5904 149a 63160000 		.4byte	.LASF282
 5905 149e 07       		.byte	0x7
 5906 149f 22       		.uleb128 0x22
 5907 14a0 BE1F0000 		.4byte	.LASF283
 5908 14a4 08       		.byte	0x8
 5909 14a5 00       		.byte	0
 5910 14a6 03       		.uleb128 0x3
 5911 14a7 00150000 		.4byte	.LASF284
 5912 14ab 19       		.byte	0x19
 5913 14ac 32       		.byte	0x32
 5914 14ad 62140000 		.4byte	0x1462
 5915 14b1 17       		.uleb128 0x17
 5916 14b2 08       		.byte	0x8
 5917 14b3 19       		.byte	0x19
 5918 14b4 37       		.byte	0x37
 5919 14b5 D2140000 		.4byte	0x14d2
 5920 14b9 08       		.uleb128 0x8
 5921 14ba 59060000 		.4byte	.LASF285
 5922 14be 19       		.byte	0x19
 5923 14bf 38       		.byte	0x38
 5924 14c0 F5000000 		.4byte	0xf5
 5925 14c4 00       		.byte	0
 5926 14c5 08       		.uleb128 0x8
 5927 14c6 581A0000 		.4byte	.LASF286
 5928 14ca 19       		.byte	0x19
 5929 14cb 39       		.byte	0x39
 5930 14cc F5000000 		.4byte	0xf5
 5931 14d0 04       		.byte	0x4
 5932 14d1 00       		.byte	0
 5933 14d2 03       		.uleb128 0x3
 5934 14d3 6A1C0000 		.4byte	.LASF287
 5935 14d7 19       		.byte	0x19
 5936 14d8 3A       		.byte	0x3a
 5937 14d9 B1140000 		.4byte	0x14b1
 5938 14dd 20       		.uleb128 0x20
 5939 14de EC140000 		.4byte	0x14ec
 5940 14e2 EC140000 		.4byte	0x14ec
 5941 14e6 0E       		.uleb128 0xe
 5942 14e7 BA030000 		.4byte	0x3ba
 5943 14eb 00       		.byte	0
 5944 14ec 04       		.uleb128 0x4
 5945 14ed 01       		.byte	0x1
 5946 14ee 02       		.byte	0x2
 5947 14ef BE000000 		.4byte	.LASF288
 5948 14f3 0B       		.uleb128 0xb
 5949 14f4 04       		.byte	0x4
 5950 14f5 DD140000 		.4byte	0x14dd
 5951 14f9 20       		.uleb128 0x20
ARM GAS  /var/folders/j2/t8glr22d56s93xphj_30s8g80000gn/T//cc8l81ic.s 			page 106


 5952 14fa EC140000 		.4byte	0x14ec
 5953 14fe 17150000 		.4byte	0x1517
 5954 1502 0E       		.uleb128 0xe
 5955 1503 BA030000 		.4byte	0x3ba
 5956 1507 0E       		.uleb128 0xe
 5957 1508 F5000000 		.4byte	0xf5
 5958 150c 0E       		.uleb128 0xe
 5959 150d D0120000 		.4byte	0x12d0
 5960 1511 0E       		.uleb128 0xe
 5961 1512 F5000000 		.4byte	0xf5
 5962 1516 00       		.byte	0
 5963 1517 0B       		.uleb128 0xb
 5964 1518 04       		.byte	0x4
 5965 1519 F9140000 		.4byte	0x14f9
 5966 151d 20       		.uleb128 0x20
 5967 151e EC140000 		.4byte	0x14ec
 5968 1522 3B150000 		.4byte	0x153b
 5969 1526 0E       		.uleb128 0xe
 5970 1527 BA030000 		.4byte	0x3ba
 5971 152b 0E       		.uleb128 0xe
 5972 152c F5000000 		.4byte	0xf5
 5973 1530 0E       		.uleb128 0xe
 5974 1531 05130000 		.4byte	0x1305
 5975 1535 0E       		.uleb128 0xe
 5976 1536 F5000000 		.4byte	0xf5
 5977 153a 00       		.byte	0
 5978 153b 0B       		.uleb128 0xb
 5979 153c 04       		.byte	0x4
 5980 153d 1D150000 		.4byte	0x151d
 5981 1541 20       		.uleb128 0x20
 5982 1542 EC140000 		.4byte	0x14ec
 5983 1546 55150000 		.4byte	0x1555
 5984 154a 0E       		.uleb128 0xe
 5985 154b BA030000 		.4byte	0x3ba
 5986 154f 0E       		.uleb128 0xe
 5987 1550 55150000 		.4byte	0x1555
 5988 1554 00       		.byte	0
 5989 1555 0B       		.uleb128 0xb
 5990 1556 04       		.byte	0x4
 5991 1557 D2140000 		.4byte	0x14d2
 5992 155b 0B       		.uleb128 0xb
 5993 155c 04       		.byte	0x4
 5994 155d 41150000 		.4byte	0x1541
 5995 1561 13       		.uleb128 0x13
 5996 1562 F5000000 		.4byte	0xf5
 5997 1566 71150000 		.4byte	0x1571
 5998 156a 14       		.uleb128 0x14
 5999 156b 37000000 		.4byte	0x37
 6000 156f 03       		.byte	0x3
 6001 1570 00       		.byte	0
 6002 1571 17       		.uleb128 0x17
 6003 1572 04       		.byte	0x4
 6004 1573 1A       		.byte	0x1a
 6005 1574 B3       		.byte	0xb3
 6006 1575 92150000 		.4byte	0x1592
 6007 1579 18       		.uleb128 0x18
 6008 157a 73657400 		.ascii	"set\000"
ARM GAS  /var/folders/j2/t8glr22d56s93xphj_30s8g80000gn/T//cc8l81ic.s 			page 107


 6009 157e 1A       		.byte	0x1a
 6010 157f B4       		.byte	0xb4
 6011 1580 DA000000 		.4byte	0xda
 6012 1584 00       		.byte	0
 6013 1585 08       		.uleb128 0x8
 6014 1586 9D0B0000 		.4byte	.LASF289
 6015 158a 1A       		.byte	0x1a
 6016 158b B5       		.byte	0xb5
 6017 158c DA000000 		.4byte	0xda
 6018 1590 02       		.byte	0x2
 6019 1591 00       		.byte	0
 6020 1592 1D       		.uleb128 0x1d
 6021 1593 04       		.byte	0x4
 6022 1594 1A       		.byte	0x1a
 6023 1595 B1       		.byte	0xb1
 6024 1596 AD150000 		.4byte	0x15ad
 6025 159a 23       		.uleb128 0x23
 6026 159b 5700     		.ascii	"W\000"
 6027 159d 1A       		.byte	0x1a
 6028 159e B2       		.byte	0xb2
 6029 159f F5000000 		.4byte	0xf5
 6030 15a3 23       		.uleb128 0x23
 6031 15a4 4800     		.ascii	"H\000"
 6032 15a6 1A       		.byte	0x1a
 6033 15a7 B6       		.byte	0xb6
 6034 15a8 71150000 		.4byte	0x1571
 6035 15ac 00       		.byte	0
 6036 15ad 06       		.uleb128 0x6
 6037 15ae 92150000 		.4byte	0x1592
 6038 15b2 17       		.uleb128 0x17
 6039 15b3 2C       		.byte	0x2c
 6040 15b4 1A       		.byte	0x1a
 6041 15b5 A9       		.byte	0xa9
 6042 15b6 3F160000 		.4byte	0x163f
 6043 15ba 08       		.uleb128 0x8
 6044 15bb 3E1B0000 		.4byte	.LASF290
 6045 15bf 1A       		.byte	0x1a
 6046 15c0 AB       		.byte	0xab
 6047 15c1 00010000 		.4byte	0x100
 6048 15c5 00       		.byte	0
 6049 15c6 08       		.uleb128 0x8
 6050 15c7 70020000 		.4byte	.LASF291
 6051 15cb 1A       		.byte	0x1a
 6052 15cc AC       		.byte	0xac
 6053 15cd 00010000 		.4byte	0x100
 6054 15d1 04       		.byte	0x4
 6055 15d2 08       		.uleb128 0x8
 6056 15d3 DF0C0000 		.4byte	.LASF292
 6057 15d7 1A       		.byte	0x1a
 6058 15d8 AD       		.byte	0xad
 6059 15d9 00010000 		.4byte	0x100
 6060 15dd 08       		.byte	0x8
 6061 15de 08       		.uleb128 0x8
 6062 15df 841A0000 		.4byte	.LASF293
 6063 15e3 1A       		.byte	0x1a
 6064 15e4 AE       		.byte	0xae
 6065 15e5 00010000 		.4byte	0x100
ARM GAS  /var/folders/j2/t8glr22d56s93xphj_30s8g80000gn/T//cc8l81ic.s 			page 108


 6066 15e9 0C       		.byte	0xc
 6067 15ea 18       		.uleb128 0x18
 6068 15eb 49445200 		.ascii	"IDR\000"
 6069 15ef 1A       		.byte	0x1a
 6070 15f0 AF       		.byte	0xaf
 6071 15f1 00010000 		.4byte	0x100
 6072 15f5 10       		.byte	0x10
 6073 15f6 18       		.uleb128 0x18
 6074 15f7 4F445200 		.ascii	"ODR\000"
 6075 15fb 1A       		.byte	0x1a
 6076 15fc B0       		.byte	0xb0
 6077 15fd 00010000 		.4byte	0x100
 6078 1601 14       		.byte	0x14
 6079 1602 08       		.uleb128 0x8
 6080 1603 03110000 		.4byte	.LASF294
 6081 1607 1A       		.byte	0x1a
 6082 1608 B7       		.byte	0xb7
 6083 1609 AD150000 		.4byte	0x15ad
 6084 160d 18       		.byte	0x18
 6085 160e 08       		.uleb128 0x8
 6086 160f 40160000 		.4byte	.LASF295
 6087 1613 1A       		.byte	0x1a
 6088 1614 B8       		.byte	0xb8
 6089 1615 00010000 		.4byte	0x100
 6090 1619 1C       		.byte	0x1c
 6091 161a 08       		.uleb128 0x8
 6092 161b 1F190000 		.4byte	.LASF296
 6093 161f 1A       		.byte	0x1a
 6094 1620 B9       		.byte	0xb9
 6095 1621 00010000 		.4byte	0x100
 6096 1625 20       		.byte	0x20
 6097 1626 08       		.uleb128 0x8
 6098 1627 1A190000 		.4byte	.LASF297
 6099 162b 1A       		.byte	0x1a
 6100 162c BA       		.byte	0xba
 6101 162d 00010000 		.4byte	0x100
 6102 1631 24       		.byte	0x24
 6103 1632 18       		.uleb128 0x18
 6104 1633 42525200 		.ascii	"BRR\000"
 6105 1637 1A       		.byte	0x1a
 6106 1638 BB       		.byte	0xbb
 6107 1639 00010000 		.4byte	0x100
 6108 163d 28       		.byte	0x28
 6109 163e 00       		.byte	0
 6110 163f 03       		.uleb128 0x3
 6111 1640 130F0000 		.4byte	.LASF298
 6112 1644 1A       		.byte	0x1a
 6113 1645 BC       		.byte	0xbc
 6114 1646 B2150000 		.4byte	0x15b2
 6115 164a 17       		.uleb128 0x17
 6116 164b 1C       		.byte	0x1c
 6117 164c 1A       		.byte	0x1a
 6118 164d C1       		.byte	0xc1
 6119 164e A7160000 		.4byte	0x16a7
 6120 1652 08       		.uleb128 0x8
 6121 1653 671E0000 		.4byte	.LASF299
 6122 1657 1A       		.byte	0x1a
ARM GAS  /var/folders/j2/t8glr22d56s93xphj_30s8g80000gn/T//cc8l81ic.s 			page 109


 6123 1658 C3       		.byte	0xc3
 6124 1659 F5000000 		.4byte	0xf5
 6125 165d 00       		.byte	0
 6126 165e 08       		.uleb128 0x8
 6127 165f 5E020000 		.4byte	.LASF300
 6128 1663 1A       		.byte	0x1a
 6129 1664 C5       		.byte	0xc5
 6130 1665 F5000000 		.4byte	0xf5
 6131 1669 04       		.byte	0x4
 6132 166a 08       		.uleb128 0x8
 6133 166b B1010000 		.4byte	.LASF301
 6134 166f 1A       		.byte	0x1a
 6135 1670 C7       		.byte	0xc7
 6136 1671 F5000000 		.4byte	0xf5
 6137 1675 08       		.byte	0x8
 6138 1676 08       		.uleb128 0x8
 6139 1677 8A1D0000 		.4byte	.LASF302
 6140 167b 1A       		.byte	0x1a
 6141 167c C9       		.byte	0xc9
 6142 167d F5000000 		.4byte	0xf5
 6143 1681 0C       		.byte	0xc
 6144 1682 18       		.uleb128 0x18
 6145 1683 6F647200 		.ascii	"odr\000"
 6146 1687 1A       		.byte	0x1a
 6147 1688 CB       		.byte	0xcb
 6148 1689 F5000000 		.4byte	0xf5
 6149 168d 10       		.byte	0x10
 6150 168e 08       		.uleb128 0x8
 6151 168f 051B0000 		.4byte	.LASF303
 6152 1693 1A       		.byte	0x1a
 6153 1694 CD       		.byte	0xcd
 6154 1695 F5000000 		.4byte	0xf5
 6155 1699 14       		.byte	0x14
 6156 169a 08       		.uleb128 0x8
 6157 169b 54000000 		.4byte	.LASF304
 6158 169f 1A       		.byte	0x1a
 6159 16a0 CF       		.byte	0xcf
 6160 16a1 F5000000 		.4byte	0xf5
 6161 16a5 18       		.byte	0x18
 6162 16a6 00       		.byte	0
 6163 16a7 03       		.uleb128 0x3
 6164 16a8 74180000 		.4byte	.LASF305
 6165 16ac 1A       		.byte	0x1a
 6166 16ad D0       		.byte	0xd0
 6167 16ae 4A160000 		.4byte	0x164a
 6168 16b2 17       		.uleb128 0x17
 6169 16b3 FC       		.byte	0xfc
 6170 16b4 1A       		.byte	0x1a
 6171 16b5 D9       		.byte	0xd9
 6172 16b6 27170000 		.4byte	0x1727
 6173 16ba 08       		.uleb128 0x8
 6174 16bb 950F0000 		.4byte	.LASF306
 6175 16bf 1A       		.byte	0x1a
 6176 16c0 DC       		.byte	0xdc
 6177 16c1 A7160000 		.4byte	0x16a7
 6178 16c5 00       		.byte	0
 6179 16c6 08       		.uleb128 0x8
ARM GAS  /var/folders/j2/t8glr22d56s93xphj_30s8g80000gn/T//cc8l81ic.s 			page 110


 6180 16c7 47020000 		.4byte	.LASF307
 6181 16cb 1A       		.byte	0x1a
 6182 16cc E0       		.byte	0xe0
 6183 16cd A7160000 		.4byte	0x16a7
 6184 16d1 1C       		.byte	0x1c
 6185 16d2 08       		.uleb128 0x8
 6186 16d3 52010000 		.4byte	.LASF308
 6187 16d7 1A       		.byte	0x1a
 6188 16d8 E4       		.byte	0xe4
 6189 16d9 A7160000 		.4byte	0x16a7
 6190 16dd 38       		.byte	0x38
 6191 16de 08       		.uleb128 0x8
 6192 16df 6B0C0000 		.4byte	.LASF309
 6193 16e3 1A       		.byte	0x1a
 6194 16e4 E8       		.byte	0xe8
 6195 16e5 A7160000 		.4byte	0x16a7
 6196 16e9 54       		.byte	0x54
 6197 16ea 08       		.uleb128 0x8
 6198 16eb B6170000 		.4byte	.LASF310
 6199 16ef 1A       		.byte	0x1a
 6200 16f0 EC       		.byte	0xec
 6201 16f1 A7160000 		.4byte	0x16a7
 6202 16f5 70       		.byte	0x70
 6203 16f6 08       		.uleb128 0x8
 6204 16f7 DF210000 		.4byte	.LASF311
 6205 16fb 1A       		.byte	0x1a
 6206 16fc F0       		.byte	0xf0
 6207 16fd A7160000 		.4byte	0x16a7
 6208 1701 8C       		.byte	0x8c
 6209 1702 08       		.uleb128 0x8
 6210 1703 6C0A0000 		.4byte	.LASF312
 6211 1707 1A       		.byte	0x1a
 6212 1708 F4       		.byte	0xf4
 6213 1709 A7160000 		.4byte	0x16a7
 6214 170d A8       		.byte	0xa8
 6215 170e 08       		.uleb128 0x8
 6216 170f C3150000 		.4byte	.LASF313
 6217 1713 1A       		.byte	0x1a
 6218 1714 F8       		.byte	0xf8
 6219 1715 A7160000 		.4byte	0x16a7
 6220 1719 C4       		.byte	0xc4
 6221 171a 08       		.uleb128 0x8
 6222 171b CA1F0000 		.4byte	.LASF314
 6223 171f 1A       		.byte	0x1a
 6224 1720 FC       		.byte	0xfc
 6225 1721 A7160000 		.4byte	0x16a7
 6226 1725 E0       		.byte	0xe0
 6227 1726 00       		.byte	0
 6228 1727 03       		.uleb128 0x3
 6229 1728 C3090000 		.4byte	.LASF315
 6230 172c 1A       		.byte	0x1a
 6231 172d FE       		.byte	0xfe
 6232 172e B2160000 		.4byte	0x16b2
 6233 1732 05       		.uleb128 0x5
 6234 1733 27170000 		.4byte	0x1727
 6235 1737 1A       		.uleb128 0x1a
 6236 1738 8D120000 		.4byte	.LASF316
ARM GAS  /var/folders/j2/t8glr22d56s93xphj_30s8g80000gn/T//cc8l81ic.s 			page 111


 6237 173c 1A       		.byte	0x1a
 6238 173d 0E01     		.2byte	0x10e
 6239 173f F5000000 		.4byte	0xf5
 6240 1743 1A       		.uleb128 0x1a
 6241 1744 CA150000 		.4byte	.LASF317
 6242 1748 1A       		.byte	0x1a
 6243 1749 1B01     		.2byte	0x11b
 6244 174b 4F170000 		.4byte	0x174f
 6245 174f 0B       		.uleb128 0xb
 6246 1750 04       		.byte	0x4
 6247 1751 3F160000 		.4byte	0x163f
 6248 1755 15       		.uleb128 0x15
 6249 1756 E91B0000 		.4byte	.LASF318
 6250 175a 1A       		.byte	0x1a
 6251 175b DA01     		.2byte	0x1da
 6252 175d 32170000 		.4byte	0x1732
 6253 1761 21       		.uleb128 0x21
 6254 1762 07       		.byte	0x7
 6255 1763 01       		.byte	0x1
 6256 1764 5E000000 		.4byte	0x5e
 6257 1768 1B       		.byte	0x1b
 6258 1769 46       		.byte	0x46
 6259 176a 93170000 		.4byte	0x1793
 6260 176e 22       		.uleb128 0x22
 6261 176f 65070000 		.4byte	.LASF319
 6262 1773 00       		.byte	0
 6263 1774 22       		.uleb128 0x22
 6264 1775 1B130000 		.4byte	.LASF320
 6265 1779 01       		.byte	0x1
 6266 177a 22       		.uleb128 0x22
 6267 177b 251E0000 		.4byte	.LASF321
 6268 177f 02       		.byte	0x2
 6269 1780 22       		.uleb128 0x22
 6270 1781 E9100000 		.4byte	.LASF322
 6271 1785 03       		.byte	0x3
 6272 1786 22       		.uleb128 0x22
 6273 1787 96050000 		.4byte	.LASF323
 6274 178b 04       		.byte	0x4
 6275 178c 22       		.uleb128 0x22
 6276 178d C9100000 		.4byte	.LASF324
 6277 1791 05       		.byte	0x5
 6278 1792 00       		.byte	0
 6279 1793 03       		.uleb128 0x3
 6280 1794 6F030000 		.4byte	.LASF325
 6281 1798 1B       		.byte	0x1b
 6282 1799 4D       		.byte	0x4d
 6283 179a 61170000 		.4byte	0x1761
 6284 179e 1A       		.uleb128 0x1a
 6285 179f 17100000 		.4byte	.LASF326
 6286 17a3 1C       		.byte	0x1c
 6287 17a4 2701     		.2byte	0x127
 6288 17a6 DA000000 		.4byte	0xda
 6289 17aa 1A       		.uleb128 0x1a
 6290 17ab 79190000 		.4byte	.LASF327
 6291 17af 1C       		.byte	0x1c
 6292 17b0 2C01     		.2byte	0x12c
 6293 17b2 DA000000 		.4byte	0xda
ARM GAS  /var/folders/j2/t8glr22d56s93xphj_30s8g80000gn/T//cc8l81ic.s 			page 112


 6294 17b6 24       		.uleb128 0x24
 6295 17b7 07       		.byte	0x7
 6296 17b8 01       		.byte	0x1
 6297 17b9 5E000000 		.4byte	0x5e
 6298 17bd 1C       		.byte	0x1c
 6299 17be 3301     		.2byte	0x133
 6300 17c0 D1170000 		.4byte	0x17d1
 6301 17c4 22       		.uleb128 0x22
 6302 17c5 B00C0000 		.4byte	.LASF328
 6303 17c9 00       		.byte	0
 6304 17ca 22       		.uleb128 0x22
 6305 17cb C9010000 		.4byte	.LASF329
 6306 17cf 01       		.byte	0x1
 6307 17d0 00       		.byte	0
 6308 17d1 1A       		.uleb128 0x1a
 6309 17d2 111F0000 		.4byte	.LASF330
 6310 17d6 1C       		.byte	0x1c
 6311 17d7 3601     		.2byte	0x136
 6312 17d9 B6170000 		.4byte	0x17b6
 6313 17dd 1A       		.uleb128 0x1a
 6314 17de 400D0000 		.4byte	.LASF331
 6315 17e2 1C       		.byte	0x1c
 6316 17e3 3B01     		.2byte	0x13b
 6317 17e5 E9170000 		.4byte	0x17e9
 6318 17e9 0C       		.uleb128 0xc
 6319 17ea 400D0000 		.4byte	.LASF331
 6320 17ee 38       		.byte	0x38
 6321 17ef 1C       		.byte	0x1c
 6322 17f0 9F01     		.2byte	0x19f
 6323 17f2 79180000 		.4byte	0x1879
 6324 17f6 0A       		.uleb128 0xa
 6325 17f7 F1130000 		.4byte	.LASF332
 6326 17fb 1C       		.byte	0x1c
 6327 17fc A301     		.2byte	0x1a3
 6328 17fe 93170000 		.4byte	0x1793
 6329 1802 00       		.byte	0
 6330 1803 0A       		.uleb128 0xa
 6331 1804 51190000 		.4byte	.LASF333
 6332 1808 1C       		.byte	0x1c
 6333 1809 A701     		.2byte	0x1a7
 6334 180b A0190000 		.4byte	0x19a0
 6335 180f 04       		.byte	0x4
 6336 1810 0A       		.uleb128 0xa
 6337 1811 6B010000 		.4byte	.LASF334
 6338 1815 1C       		.byte	0x1c
 6339 1816 AB01     		.2byte	0x1ab
 6340 1818 A6180000 		.4byte	0x18a6
 6341 181c 08       		.byte	0x8
 6342 181d 0A       		.uleb128 0xa
 6343 181e 9F160000 		.4byte	.LASF335
 6344 1822 1C       		.byte	0x1c
 6345 1823 AF01     		.2byte	0x1af
 6346 1825 2C000000 		.4byte	0x2c
 6347 1829 0C       		.byte	0xc
 6348 182a 0A       		.uleb128 0xa
 6349 182b FC1B0000 		.4byte	.LASF336
 6350 182f 1C       		.byte	0x1c
ARM GAS  /var/folders/j2/t8glr22d56s93xphj_30s8g80000gn/T//cc8l81ic.s 			page 113


 6351 1830 B301     		.2byte	0x1b3
 6352 1832 A6190000 		.4byte	0x19a6
 6353 1836 10       		.byte	0x10
 6354 1837 0A       		.uleb128 0xa
 6355 1838 30060000 		.4byte	.LASF337
 6356 183c 1C       		.byte	0x1c
 6357 183d B801     		.2byte	0x1b8
 6358 183f D2020000 		.4byte	0x2d2
 6359 1843 14       		.byte	0x14
 6360 1844 0A       		.uleb128 0xa
 6361 1845 5D0B0000 		.4byte	.LASF338
 6362 1849 1C       		.byte	0x1c
 6363 184a BE01     		.2byte	0x1be
 6364 184c A7110000 		.4byte	0x11a7
 6365 1850 18       		.byte	0x18
 6366 1851 09       		.uleb128 0x9
 6367 1852 61646300 		.ascii	"adc\000"
 6368 1856 1C       		.byte	0x1c
 6369 1857 C701     		.2byte	0x1c7
 6370 1859 AC190000 		.4byte	0x19ac
 6371 185d 2C       		.byte	0x2c
 6372 185e 0A       		.uleb128 0xa
 6373 185f 79090000 		.4byte	.LASF339
 6374 1863 1C       		.byte	0x1c
 6375 1864 CB01     		.2byte	0x1cb
 6376 1866 B2190000 		.4byte	0x19b2
 6377 186a 30       		.byte	0x30
 6378 186b 0A       		.uleb128 0xa
 6379 186c EC150000 		.4byte	.LASF340
 6380 1870 1C       		.byte	0x1c
 6381 1871 CF01     		.2byte	0x1cf
 6382 1873 F5000000 		.4byte	0xf5
 6383 1877 34       		.byte	0x34
 6384 1878 00       		.byte	0
 6385 1879 1A       		.uleb128 0x1a
 6386 187a BF180000 		.4byte	.LASF341
 6387 187e 1C       		.byte	0x1c
 6388 187f 4501     		.2byte	0x145
 6389 1881 85180000 		.4byte	0x1885
 6390 1885 0B       		.uleb128 0xb
 6391 1886 04       		.byte	0x4
 6392 1887 8B180000 		.4byte	0x188b
 6393 188b 0D       		.uleb128 0xd
 6394 188c A0180000 		.4byte	0x18a0
 6395 1890 0E       		.uleb128 0xe
 6396 1891 A0180000 		.4byte	0x18a0
 6397 1895 0E       		.uleb128 0xe
 6398 1896 A6180000 		.4byte	0x18a6
 6399 189a 0E       		.uleb128 0xe
 6400 189b 2C000000 		.4byte	0x2c
 6401 189f 00       		.byte	0
 6402 18a0 0B       		.uleb128 0xb
 6403 18a1 04       		.byte	0x4
 6404 18a2 DD170000 		.4byte	0x17dd
 6405 18a6 0B       		.uleb128 0xb
 6406 18a7 04       		.byte	0x4
 6407 18a8 9E170000 		.4byte	0x179e
ARM GAS  /var/folders/j2/t8glr22d56s93xphj_30s8g80000gn/T//cc8l81ic.s 			page 114


 6408 18ac 1A       		.uleb128 0x1a
 6409 18ad D3130000 		.4byte	.LASF342
 6410 18b1 1C       		.byte	0x1c
 6411 18b2 4E01     		.2byte	0x14e
 6412 18b4 B8180000 		.4byte	0x18b8
 6413 18b8 0B       		.uleb128 0xb
 6414 18b9 04       		.byte	0x4
 6415 18ba BE180000 		.4byte	0x18be
 6416 18be 0D       		.uleb128 0xd
 6417 18bf CE180000 		.4byte	0x18ce
 6418 18c3 0E       		.uleb128 0xe
 6419 18c4 A0180000 		.4byte	0x18a0
 6420 18c8 0E       		.uleb128 0xe
 6421 18c9 D1170000 		.4byte	0x17d1
 6422 18cd 00       		.byte	0
 6423 18ce 19       		.uleb128 0x19
 6424 18cf 28       		.byte	0x28
 6425 18d0 1C       		.byte	0x1c
 6426 18d1 5801     		.2byte	0x158
 6427 18d3 67190000 		.4byte	0x1967
 6428 18d7 0A       		.uleb128 0xa
 6429 18d8 531E0000 		.4byte	.LASF343
 6430 18dc 1C       		.byte	0x1c
 6431 18dd 5C01     		.2byte	0x15c
 6432 18df EC140000 		.4byte	0x14ec
 6433 18e3 00       		.byte	0
 6434 18e4 0A       		.uleb128 0xa
 6435 18e5 5D0F0000 		.4byte	.LASF344
 6436 18e9 1C       		.byte	0x1c
 6437 18ea 6001     		.2byte	0x160
 6438 18ec AA170000 		.4byte	0x17aa
 6439 18f0 02       		.byte	0x2
 6440 18f1 0A       		.uleb128 0xa
 6441 18f2 42080000 		.4byte	.LASF345
 6442 18f6 1C       		.byte	0x1c
 6443 18f7 6401     		.2byte	0x164
 6444 18f9 79180000 		.4byte	0x1879
 6445 18fd 04       		.byte	0x4
 6446 18fe 0A       		.uleb128 0xa
 6447 18ff F51F0000 		.4byte	.LASF346
 6448 1903 1C       		.byte	0x1c
 6449 1904 6801     		.2byte	0x168
 6450 1906 AC180000 		.4byte	0x18ac
 6451 190a 08       		.byte	0x8
 6452 190b 09       		.uleb128 0x9
 6453 190c 63723100 		.ascii	"cr1\000"
 6454 1910 1C       		.byte	0x1c
 6455 1911 6F01     		.2byte	0x16f
 6456 1913 F5000000 		.4byte	0xf5
 6457 1917 0C       		.byte	0xc
 6458 1918 09       		.uleb128 0x9
 6459 1919 63723200 		.ascii	"cr2\000"
 6460 191d 1C       		.byte	0x1c
 6461 191e 7601     		.2byte	0x176
 6462 1920 F5000000 		.4byte	0xf5
 6463 1924 10       		.byte	0x10
 6464 1925 0A       		.uleb128 0xa
ARM GAS  /var/folders/j2/t8glr22d56s93xphj_30s8g80000gn/T//cc8l81ic.s 			page 115


 6465 1926 CA140000 		.4byte	.LASF347
 6466 192a 1C       		.byte	0x1c
 6467 192b 7C01     		.2byte	0x17c
 6468 192d F5000000 		.4byte	0xf5
 6469 1931 14       		.byte	0x14
 6470 1932 0A       		.uleb128 0xa
 6471 1933 D0140000 		.4byte	.LASF348
 6472 1937 1C       		.byte	0x1c
 6473 1938 8201     		.2byte	0x182
 6474 193a F5000000 		.4byte	0xf5
 6475 193e 18       		.byte	0x18
 6476 193f 0A       		.uleb128 0xa
 6477 1940 DD000000 		.4byte	.LASF349
 6478 1944 1C       		.byte	0x1c
 6479 1945 8701     		.2byte	0x187
 6480 1947 F5000000 		.4byte	0xf5
 6481 194b 1C       		.byte	0x1c
 6482 194c 0A       		.uleb128 0xa
 6483 194d 0F210000 		.4byte	.LASF350
 6484 1951 1C       		.byte	0x1c
 6485 1952 8C01     		.2byte	0x18c
 6486 1954 F5000000 		.4byte	0xf5
 6487 1958 20       		.byte	0x20
 6488 1959 0A       		.uleb128 0xa
 6489 195a 14210000 		.4byte	.LASF351
 6490 195e 1C       		.byte	0x1c
 6491 195f 9101     		.2byte	0x191
 6492 1961 F5000000 		.4byte	0xf5
 6493 1965 24       		.byte	0x24
 6494 1966 00       		.byte	0
 6495 1967 1A       		.uleb128 0x1a
 6496 1968 89040000 		.4byte	.LASF352
 6497 196c 1C       		.byte	0x1c
 6498 196d 9201     		.2byte	0x192
 6499 196f CE180000 		.4byte	0x18ce
 6500 1973 05       		.uleb128 0x5
 6501 1974 67190000 		.4byte	0x1967
 6502 1978 19       		.uleb128 0x19
 6503 1979 04       		.byte	0x4
 6504 197a 1C       		.byte	0x1c
 6505 197b 9801     		.2byte	0x198
 6506 197d 8F190000 		.4byte	0x198f
 6507 1981 0A       		.uleb128 0xa
 6508 1982 30210000 		.4byte	.LASF353
 6509 1986 1C       		.byte	0x1c
 6510 1987 9901     		.2byte	0x199
 6511 1989 F5000000 		.4byte	0xf5
 6512 198d 00       		.byte	0
 6513 198e 00       		.byte	0
 6514 198f 1A       		.uleb128 0x1a
 6515 1990 580D0000 		.4byte	.LASF354
 6516 1994 1C       		.byte	0x1c
 6517 1995 9A01     		.2byte	0x19a
 6518 1997 78190000 		.4byte	0x1978
 6519 199b 05       		.uleb128 0x5
 6520 199c 8F190000 		.4byte	0x198f
 6521 19a0 0B       		.uleb128 0xb
ARM GAS  /var/folders/j2/t8glr22d56s93xphj_30s8g80000gn/T//cc8l81ic.s 			page 116


 6522 19a1 04       		.byte	0x4
 6523 19a2 9B190000 		.4byte	0x199b
 6524 19a6 0B       		.uleb128 0xb
 6525 19a7 04       		.byte	0x4
 6526 19a8 73190000 		.4byte	0x1973
 6527 19ac 0B       		.uleb128 0xb
 6528 19ad 04       		.byte	0x4
 6529 19ae 57060000 		.4byte	0x657
 6530 19b2 0B       		.uleb128 0xb
 6531 19b3 04       		.byte	0x4
 6532 19b4 BB130000 		.4byte	0x13bb
 6533 19b8 15       		.uleb128 0x15
 6534 19b9 D5150000 		.4byte	.LASF355
 6535 19bd 1C       		.byte	0x1c
 6536 19be 1402     		.2byte	0x214
 6537 19c0 DD170000 		.4byte	0x17dd
 6538 19c4 15       		.uleb128 0x15
 6539 19c5 DB150000 		.4byte	.LASF356
 6540 19c9 1C       		.byte	0x1c
 6541 19ca 1802     		.2byte	0x218
 6542 19cc DD170000 		.4byte	0x17dd
 6543 19d0 15       		.uleb128 0x15
 6544 19d1 E1150000 		.4byte	.LASF357
 6545 19d5 1C       		.byte	0x1c
 6546 19d6 1C02     		.2byte	0x21c
 6547 19d8 DD170000 		.4byte	0x17dd
 6548 19dc 21       		.uleb128 0x21
 6549 19dd 07       		.byte	0x7
 6550 19de 01       		.byte	0x1
 6551 19df 5E000000 		.4byte	0x5e
 6552 19e3 1D       		.byte	0x1d
 6553 19e4 5F       		.byte	0x5f
 6554 19e5 081A0000 		.4byte	0x1a08
 6555 19e9 22       		.uleb128 0x22
 6556 19ea F2080000 		.4byte	.LASF358
 6557 19ee 00       		.byte	0
 6558 19ef 22       		.uleb128 0x22
 6559 19f0 87000000 		.4byte	.LASF359
 6560 19f4 01       		.byte	0x1
 6561 19f5 22       		.uleb128 0x22
 6562 19f6 38000000 		.4byte	.LASF360
 6563 19fa 02       		.byte	0x2
 6564 19fb 22       		.uleb128 0x22
 6565 19fc B0040000 		.4byte	.LASF361
 6566 1a00 03       		.byte	0x3
 6567 1a01 22       		.uleb128 0x22
 6568 1a02 CB080000 		.4byte	.LASF362
 6569 1a06 04       		.byte	0x4
 6570 1a07 00       		.byte	0
 6571 1a08 03       		.uleb128 0x3
 6572 1a09 ED040000 		.4byte	.LASF363
 6573 1a0d 1D       		.byte	0x1d
 6574 1a0e 65       		.byte	0x65
 6575 1a0f DC190000 		.4byte	0x19dc
 6576 1a13 13       		.uleb128 0x13
 6577 1a14 BF000000 		.4byte	0xbf
 6578 1a18 231A0000 		.4byte	0x1a23
ARM GAS  /var/folders/j2/t8glr22d56s93xphj_30s8g80000gn/T//cc8l81ic.s 			page 117


 6579 1a1c 14       		.uleb128 0x14
 6580 1a1d 37000000 		.4byte	0x37
 6581 1a21 07       		.byte	0x7
 6582 1a22 00       		.byte	0
 6583 1a23 17       		.uleb128 0x17
 6584 1a24 08       		.byte	0x8
 6585 1a25 1E       		.byte	0x1e
 6586 1a26 F4       		.byte	0xf4
 6587 1a27 451A0000 		.4byte	0x1a45
 6588 1a2b 18       		.uleb128 0x18
 6589 1a2c 6D637200 		.ascii	"mcr\000"
 6590 1a30 1E       		.byte	0x1e
 6591 1a31 FA       		.byte	0xfa
 6592 1a32 F5000000 		.4byte	0xf5
 6593 1a36 00       		.byte	0
 6594 1a37 09       		.uleb128 0x9
 6595 1a38 62747200 		.ascii	"btr\000"
 6596 1a3c 1E       		.byte	0x1e
 6597 1a3d 0001     		.2byte	0x100
 6598 1a3f F5000000 		.4byte	0xf5
 6599 1a43 04       		.byte	0x4
 6600 1a44 00       		.byte	0
 6601 1a45 1A       		.uleb128 0x1a
 6602 1a46 AC170000 		.4byte	.LASF364
 6603 1a4a 1E       		.byte	0x1e
 6604 1a4b 0101     		.2byte	0x101
 6605 1a4d 231A0000 		.4byte	0x1a23
 6606 1a51 05       		.uleb128 0x5
 6607 1a52 451A0000 		.4byte	0x1a45
 6608 1a56 19       		.uleb128 0x19
 6609 1a57 30       		.byte	0x30
 6610 1a58 1E       		.byte	0x1e
 6611 1a59 0601     		.2byte	0x106
 6612 1a5b E21A0000 		.4byte	0x1ae2
 6613 1a5f 0A       		.uleb128 0xa
 6614 1a60 F1130000 		.4byte	.LASF332
 6615 1a64 1E       		.byte	0x1e
 6616 1a65 0A01     		.2byte	0x10a
 6617 1a67 081A0000 		.4byte	0x1a08
 6618 1a6b 00       		.byte	0
 6619 1a6c 0A       		.uleb128 0xa
 6620 1a6d 51190000 		.4byte	.LASF333
 6621 1a71 1E       		.byte	0x1e
 6622 1a72 0E01     		.2byte	0x10e
 6623 1a74 E21A0000 		.4byte	0x1ae2
 6624 1a78 04       		.byte	0x4
 6625 1a79 0A       		.uleb128 0xa
 6626 1a7a 81080000 		.4byte	.LASF365
 6627 1a7e 1E       		.byte	0x1e
 6628 1a7f 1201     		.2byte	0x112
 6629 1a81 07030000 		.4byte	0x307
 6630 1a85 08       		.byte	0x8
 6631 1a86 0A       		.uleb128 0xa
 6632 1a87 D01B0000 		.4byte	.LASF366
 6633 1a8b 1E       		.byte	0x1e
 6634 1a8c 1601     		.2byte	0x116
 6635 1a8e 07030000 		.4byte	0x307
ARM GAS  /var/folders/j2/t8glr22d56s93xphj_30s8g80000gn/T//cc8l81ic.s 			page 118


 6636 1a92 10       		.byte	0x10
 6637 1a93 0A       		.uleb128 0xa
 6638 1a94 8F170000 		.4byte	.LASF367
 6639 1a98 1E       		.byte	0x1e
 6640 1a99 2301     		.2byte	0x123
 6641 1a9b 2B120000 		.4byte	0x122b
 6642 1a9f 18       		.byte	0x18
 6643 1aa0 0A       		.uleb128 0xa
 6644 1aa1 540A0000 		.4byte	.LASF368
 6645 1aa5 1E       		.byte	0x1e
 6646 1aa6 2A01     		.2byte	0x12a
 6647 1aa8 2B120000 		.4byte	0x122b
 6648 1aac 1C       		.byte	0x1c
 6649 1aad 0A       		.uleb128 0xa
 6650 1aae 510F0000 		.4byte	.LASF369
 6651 1ab2 1E       		.byte	0x1e
 6652 1ab3 3001     		.2byte	0x130
 6653 1ab5 2B120000 		.4byte	0x122b
 6654 1ab9 20       		.byte	0x20
 6655 1aba 0A       		.uleb128 0xa
 6656 1abb C4020000 		.4byte	.LASF370
 6657 1abf 1E       		.byte	0x1e
 6658 1ac0 3501     		.2byte	0x135
 6659 1ac2 2B120000 		.4byte	0x122b
 6660 1ac6 24       		.byte	0x24
 6661 1ac7 0A       		.uleb128 0xa
 6662 1ac8 23080000 		.4byte	.LASF371
 6663 1acc 1E       		.byte	0x1e
 6664 1acd 3901     		.2byte	0x139
 6665 1acf 2B120000 		.4byte	0x122b
 6666 1ad3 28       		.byte	0x28
 6667 1ad4 09       		.uleb128 0x9
 6668 1ad5 63616E00 		.ascii	"can\000"
 6669 1ad9 1E       		.byte	0x1e
 6670 1ada 3F01     		.2byte	0x13f
 6671 1adc E81A0000 		.4byte	0x1ae8
 6672 1ae0 2C       		.byte	0x2c
 6673 1ae1 00       		.byte	0
 6674 1ae2 0B       		.uleb128 0xb
 6675 1ae3 04       		.byte	0x4
 6676 1ae4 511A0000 		.4byte	0x1a51
 6677 1ae8 0B       		.uleb128 0xb
 6678 1ae9 04       		.byte	0x4
 6679 1aea A0080000 		.4byte	0x8a0
 6680 1aee 1A       		.uleb128 0x1a
 6681 1aef 12030000 		.4byte	.LASF372
 6682 1af3 1E       		.byte	0x1e
 6683 1af4 4001     		.2byte	0x140
 6684 1af6 561A0000 		.4byte	0x1a56
 6685 1afa 15       		.uleb128 0x15
 6686 1afb 5C1D0000 		.4byte	.LASF373
 6687 1aff 1E       		.byte	0x1e
 6688 1b00 4B01     		.2byte	0x14b
 6689 1b02 EE1A0000 		.4byte	0x1aee
 6690 1b06 21       		.uleb128 0x21
 6691 1b07 07       		.byte	0x7
 6692 1b08 01       		.byte	0x1
ARM GAS  /var/folders/j2/t8glr22d56s93xphj_30s8g80000gn/T//cc8l81ic.s 			page 119


 6693 1b09 5E000000 		.4byte	0x5e
 6694 1b0d 1F       		.byte	0x1f
 6695 1b0e 46       		.byte	0x46
 6696 1b0f 381B0000 		.4byte	0x1b38
 6697 1b13 22       		.uleb128 0x22
 6698 1b14 6E190000 		.4byte	.LASF374
 6699 1b18 00       		.byte	0
 6700 1b19 22       		.uleb128 0x22
 6701 1b1a 801E0000 		.4byte	.LASF375
 6702 1b1e 01       		.byte	0x1
 6703 1b1f 22       		.uleb128 0x22
 6704 1b20 E70C0000 		.4byte	.LASF376
 6705 1b24 02       		.byte	0x2
 6706 1b25 22       		.uleb128 0x22
 6707 1b26 E6130000 		.4byte	.LASF377
 6708 1b2a 03       		.byte	0x3
 6709 1b2b 22       		.uleb128 0x22
 6710 1b2c 33190000 		.4byte	.LASF378
 6711 1b30 04       		.byte	0x4
 6712 1b31 22       		.uleb128 0x22
 6713 1b32 CA0E0000 		.4byte	.LASF379
 6714 1b36 05       		.byte	0x5
 6715 1b37 00       		.byte	0
 6716 1b38 03       		.uleb128 0x3
 6717 1b39 1E170000 		.4byte	.LASF380
 6718 1b3d 1F       		.byte	0x1f
 6719 1b3e 4D       		.byte	0x4d
 6720 1b3f 061B0000 		.4byte	0x1b06
 6721 1b43 17       		.uleb128 0x17
 6722 1b44 1C       		.byte	0x1c
 6723 1b45 20       		.byte	0x20
 6724 1b46 F9       		.byte	0xf9
 6725 1b47 A61B0000 		.4byte	0x1ba6
 6726 1b4b 18       		.uleb128 0x18
 6727 1b4c 64616300 		.ascii	"dac\000"
 6728 1b50 20       		.byte	0x20
 6729 1b51 FD       		.byte	0xfd
 6730 1b52 A61B0000 		.4byte	0x1ba6
 6731 1b56 00       		.byte	0
 6732 1b57 0A       		.uleb128 0xa
 6733 1b58 58160000 		.4byte	.LASF381
 6734 1b5c 20       		.byte	0x20
 6735 1b5d 0101     		.2byte	0x101
 6736 1b5f F5000000 		.4byte	0xf5
 6737 1b63 04       		.byte	0x4
 6738 1b64 0A       		.uleb128 0xa
 6739 1b65 37060000 		.4byte	.LASF382
 6740 1b69 20       		.byte	0x20
 6741 1b6a 0501     		.2byte	0x105
 6742 1b6c F5000000 		.4byte	0xf5
 6743 1b70 08       		.byte	0x8
 6744 1b71 0A       		.uleb128 0xa
 6745 1b72 7E010000 		.4byte	.LASF383
 6746 1b76 20       		.byte	0x20
 6747 1b77 0901     		.2byte	0x109
 6748 1b79 F5000000 		.4byte	0xf5
 6749 1b7d 0C       		.byte	0xc
ARM GAS  /var/folders/j2/t8glr22d56s93xphj_30s8g80000gn/T//cc8l81ic.s 			page 120


 6750 1b7e 09       		.uleb128 0x9
 6751 1b7f 646D6100 		.ascii	"dma\000"
 6752 1b83 20       		.byte	0x20
 6753 1b84 0D01     		.2byte	0x10d
 6754 1b86 B2190000 		.4byte	0x19b2
 6755 1b8a 10       		.byte	0x10
 6756 1b8b 0A       		.uleb128 0xa
 6757 1b8c EC150000 		.4byte	.LASF340
 6758 1b90 20       		.byte	0x20
 6759 1b91 1101     		.2byte	0x111
 6760 1b93 F5000000 		.4byte	0xf5
 6761 1b97 14       		.byte	0x14
 6762 1b98 0A       		.uleb128 0xa
 6763 1b99 A3150000 		.4byte	.LASF384
 6764 1b9d 20       		.byte	0x20
 6765 1b9e 1501     		.2byte	0x115
 6766 1ba0 F5000000 		.4byte	0xf5
 6767 1ba4 18       		.byte	0x18
 6768 1ba5 00       		.byte	0
 6769 1ba6 0B       		.uleb128 0xb
 6770 1ba7 04       		.byte	0x4
 6771 1ba8 6A090000 		.4byte	0x96a
 6772 1bac 1A       		.uleb128 0x1a
 6773 1bad 77020000 		.4byte	.LASF385
 6774 1bb1 20       		.byte	0x20
 6775 1bb2 1601     		.2byte	0x116
 6776 1bb4 431B0000 		.4byte	0x1b43
 6777 1bb8 05       		.uleb128 0x5
 6778 1bb9 AC1B0000 		.4byte	0x1bac
 6779 1bbd 1A       		.uleb128 0x1a
 6780 1bbe 730B0000 		.4byte	.LASF386
 6781 1bc2 20       		.byte	0x20
 6782 1bc3 1B01     		.2byte	0x11b
 6783 1bc5 C91B0000 		.4byte	0x1bc9
 6784 1bc9 0C       		.uleb128 0xc
 6785 1bca 730B0000 		.4byte	.LASF386
 6786 1bce 30       		.byte	0x30
 6787 1bcf 20       		.byte	0x20
 6788 1bd0 7B01     		.2byte	0x17b
 6789 1bd2 3F1C0000 		.4byte	0x1c3f
 6790 1bd6 0A       		.uleb128 0xa
 6791 1bd7 F1130000 		.4byte	.LASF332
 6792 1bdb 20       		.byte	0x20
 6793 1bdc 7F01     		.2byte	0x17f
 6794 1bde 381B0000 		.4byte	0x1b38
 6795 1be2 00       		.byte	0
 6796 1be3 0A       		.uleb128 0xa
 6797 1be4 FC1B0000 		.4byte	.LASF336
 6798 1be8 20       		.byte	0x20
 6799 1be9 8301     		.2byte	0x183
 6800 1beb 7D1D0000 		.4byte	0x1d7d
 6801 1bef 04       		.byte	0x4
 6802 1bf0 0A       		.uleb128 0xa
 6803 1bf1 6B010000 		.4byte	.LASF334
 6804 1bf5 20       		.byte	0x20
 6805 1bf6 8701     		.2byte	0x187
 6806 1bf8 A41C0000 		.4byte	0x1ca4
ARM GAS  /var/folders/j2/t8glr22d56s93xphj_30s8g80000gn/T//cc8l81ic.s 			page 121


 6807 1bfc 08       		.byte	0x8
 6808 1bfd 0A       		.uleb128 0xa
 6809 1bfe 9F160000 		.4byte	.LASF335
 6810 1c02 20       		.byte	0x20
 6811 1c03 8B01     		.2byte	0x18b
 6812 1c05 DA000000 		.4byte	0xda
 6813 1c09 0C       		.byte	0xc
 6814 1c0a 0A       		.uleb128 0xa
 6815 1c0b 51190000 		.4byte	.LASF333
 6816 1c0f 20       		.byte	0x20
 6817 1c10 8F01     		.2byte	0x18f
 6818 1c12 831D0000 		.4byte	0x1d83
 6819 1c16 10       		.byte	0x10
 6820 1c17 0A       		.uleb128 0xa
 6821 1c18 30060000 		.4byte	.LASF337
 6822 1c1c 20       		.byte	0x20
 6823 1c1d 9401     		.2byte	0x194
 6824 1c1f D2020000 		.4byte	0x2d2
 6825 1c23 14       		.byte	0x14
 6826 1c24 0A       		.uleb128 0xa
 6827 1c25 5D0B0000 		.4byte	.LASF338
 6828 1c29 20       		.byte	0x20
 6829 1c2a 9A01     		.2byte	0x19a
 6830 1c2c A7110000 		.4byte	0x11a7
 6831 1c30 18       		.byte	0x18
 6832 1c31 0A       		.uleb128 0xa
 6833 1c32 B50F0000 		.4byte	.LASF387
 6834 1c36 20       		.byte	0x20
 6835 1c37 A301     		.2byte	0x1a3
 6836 1c39 891D0000 		.4byte	0x1d89
 6837 1c3d 2C       		.byte	0x2c
 6838 1c3e 00       		.byte	0
 6839 1c3f 1A       		.uleb128 0x1a
 6840 1c40 43170000 		.4byte	.LASF388
 6841 1c44 20       		.byte	0x20
 6842 1c45 2001     		.2byte	0x120
 6843 1c47 DA000000 		.4byte	0xda
 6844 1c4b 05       		.uleb128 0x5
 6845 1c4c 3F1C0000 		.4byte	0x1c3f
 6846 1c50 24       		.uleb128 0x24
 6847 1c51 07       		.byte	0x7
 6848 1c52 01       		.byte	0x1
 6849 1c53 5E000000 		.4byte	0x5e
 6850 1c57 20       		.byte	0x20
 6851 1c58 2701     		.2byte	0x127
 6852 1c5a 6B1C0000 		.4byte	0x1c6b
 6853 1c5e 22       		.uleb128 0x22
 6854 1c5f CD170000 		.4byte	.LASF389
 6855 1c63 00       		.byte	0
 6856 1c64 22       		.uleb128 0x22
 6857 1c65 11080000 		.4byte	.LASF390
 6858 1c69 01       		.byte	0x1
 6859 1c6a 00       		.byte	0
 6860 1c6b 1A       		.uleb128 0x1a
 6861 1c6c 01100000 		.4byte	.LASF391
 6862 1c70 20       		.byte	0x20
 6863 1c71 2A01     		.2byte	0x12a
ARM GAS  /var/folders/j2/t8glr22d56s93xphj_30s8g80000gn/T//cc8l81ic.s 			page 122


 6864 1c73 501C0000 		.4byte	0x1c50
 6865 1c77 1A       		.uleb128 0x1a
 6866 1c78 8F060000 		.4byte	.LASF392
 6867 1c7c 20       		.byte	0x20
 6868 1c7d 3401     		.2byte	0x134
 6869 1c7f 831C0000 		.4byte	0x1c83
 6870 1c83 0B       		.uleb128 0xb
 6871 1c84 04       		.byte	0x4
 6872 1c85 891C0000 		.4byte	0x1c89
 6873 1c89 0D       		.uleb128 0xd
 6874 1c8a 9E1C0000 		.4byte	0x1c9e
 6875 1c8e 0E       		.uleb128 0xe
 6876 1c8f 9E1C0000 		.4byte	0x1c9e
 6877 1c93 0E       		.uleb128 0xe
 6878 1c94 A41C0000 		.4byte	0x1ca4
 6879 1c98 0E       		.uleb128 0xe
 6880 1c99 2C000000 		.4byte	0x2c
 6881 1c9d 00       		.byte	0
 6882 1c9e 0B       		.uleb128 0xb
 6883 1c9f 04       		.byte	0x4
 6884 1ca0 BD1B0000 		.4byte	0x1bbd
 6885 1ca4 0B       		.uleb128 0xb
 6886 1ca5 04       		.byte	0x4
 6887 1ca6 4B1C0000 		.4byte	0x1c4b
 6888 1caa 1A       		.uleb128 0x1a
 6889 1cab 901D0000 		.4byte	.LASF393
 6890 1caf 20       		.byte	0x20
 6891 1cb0 3F01     		.2byte	0x13f
 6892 1cb2 B61C0000 		.4byte	0x1cb6
 6893 1cb6 0B       		.uleb128 0xb
 6894 1cb7 04       		.byte	0x4
 6895 1cb8 BC1C0000 		.4byte	0x1cbc
 6896 1cbc 0D       		.uleb128 0xd
 6897 1cbd CC1C0000 		.4byte	0x1ccc
 6898 1cc1 0E       		.uleb128 0xe
 6899 1cc2 9E1C0000 		.4byte	0x1c9e
 6900 1cc6 0E       		.uleb128 0xe
 6901 1cc7 6B1C0000 		.4byte	0x1c6b
 6902 1ccb 00       		.byte	0
 6903 1ccc 24       		.uleb128 0x24
 6904 1ccd 07       		.byte	0x7
 6905 1cce 01       		.byte	0x1
 6906 1ccf 5E000000 		.4byte	0x5e
 6907 1cd3 20       		.byte	0x20
 6908 1cd4 4401     		.2byte	0x144
 6909 1cd6 ED1C0000 		.4byte	0x1ced
 6910 1cda 22       		.uleb128 0x22
 6911 1cdb C0190000 		.4byte	.LASF394
 6912 1cdf 00       		.byte	0
 6913 1ce0 22       		.uleb128 0x22
 6914 1ce1 4B110000 		.4byte	.LASF395
 6915 1ce5 01       		.byte	0x1
 6916 1ce6 22       		.uleb128 0x22
 6917 1ce7 84140000 		.4byte	.LASF396
 6918 1ceb 02       		.byte	0x2
 6919 1cec 00       		.byte	0
 6920 1ced 1A       		.uleb128 0x1a
ARM GAS  /var/folders/j2/t8glr22d56s93xphj_30s8g80000gn/T//cc8l81ic.s 			page 123


 6921 1cee 6C090000 		.4byte	.LASF397
 6922 1cf2 20       		.byte	0x20
 6923 1cf3 4D01     		.2byte	0x14d
 6924 1cf5 CC1C0000 		.4byte	0x1ccc
 6925 1cf9 19       		.uleb128 0x19
 6926 1cfa 10       		.byte	0x10
 6927 1cfb 20       		.byte	0x20
 6928 1cfc 5201     		.2byte	0x152
 6929 1cfe 371D0000 		.4byte	0x1d37
 6930 1d02 0A       		.uleb128 0xa
 6931 1d03 5D0F0000 		.4byte	.LASF344
 6932 1d07 20       		.byte	0x20
 6933 1d08 5601     		.2byte	0x156
 6934 1d0a F5000000 		.4byte	0xf5
 6935 1d0e 00       		.byte	0
 6936 1d0f 0A       		.uleb128 0xa
 6937 1d10 42080000 		.4byte	.LASF345
 6938 1d14 20       		.byte	0x20
 6939 1d15 5A01     		.2byte	0x15a
 6940 1d17 771C0000 		.4byte	0x1c77
 6941 1d1b 04       		.byte	0x4
 6942 1d1c 0A       		.uleb128 0xa
 6943 1d1d F51F0000 		.4byte	.LASF346
 6944 1d21 20       		.byte	0x20
 6945 1d22 5E01     		.2byte	0x15e
 6946 1d24 AA1C0000 		.4byte	0x1caa
 6947 1d28 08       		.byte	0x8
 6948 1d29 0A       		.uleb128 0xa
 6949 1d2a 85120000 		.4byte	.LASF398
 6950 1d2e 20       		.byte	0x20
 6951 1d2f 6601     		.2byte	0x166
 6952 1d31 F5000000 		.4byte	0xf5
 6953 1d35 0C       		.byte	0xc
 6954 1d36 00       		.byte	0
 6955 1d37 1A       		.uleb128 0x1a
 6956 1d38 A8100000 		.4byte	.LASF399
 6957 1d3c 20       		.byte	0x20
 6958 1d3d 6701     		.2byte	0x167
 6959 1d3f F91C0000 		.4byte	0x1cf9
 6960 1d43 05       		.uleb128 0x5
 6961 1d44 371D0000 		.4byte	0x1d37
 6962 1d48 19       		.uleb128 0x19
 6963 1d49 04       		.byte	0x4
 6964 1d4a 20       		.byte	0x20
 6965 1d4b 6C01     		.2byte	0x16c
 6966 1d4d 6C1D0000 		.4byte	0x1d6c
 6967 1d51 0A       		.uleb128 0xa
 6968 1d52 B0090000 		.4byte	.LASF400
 6969 1d56 20       		.byte	0x20
 6970 1d57 7101     		.2byte	0x171
 6971 1d59 3F1C0000 		.4byte	0x1c3f
 6972 1d5d 00       		.byte	0
 6973 1d5e 0A       		.uleb128 0xa
 6974 1d5f C4000000 		.4byte	.LASF401
 6975 1d63 20       		.byte	0x20
 6976 1d64 7501     		.2byte	0x175
 6977 1d66 ED1C0000 		.4byte	0x1ced
ARM GAS  /var/folders/j2/t8glr22d56s93xphj_30s8g80000gn/T//cc8l81ic.s 			page 124


 6978 1d6a 02       		.byte	0x2
 6979 1d6b 00       		.byte	0
 6980 1d6c 1A       		.uleb128 0x1a
 6981 1d6d 7D0B0000 		.4byte	.LASF402
 6982 1d71 20       		.byte	0x20
 6983 1d72 7601     		.2byte	0x176
 6984 1d74 481D0000 		.4byte	0x1d48
 6985 1d78 05       		.uleb128 0x5
 6986 1d79 6C1D0000 		.4byte	0x1d6c
 6987 1d7d 0B       		.uleb128 0xb
 6988 1d7e 04       		.byte	0x4
 6989 1d7f 431D0000 		.4byte	0x1d43
 6990 1d83 0B       		.uleb128 0xb
 6991 1d84 04       		.byte	0x4
 6992 1d85 781D0000 		.4byte	0x1d78
 6993 1d89 0B       		.uleb128 0xb
 6994 1d8a 04       		.byte	0x4
 6995 1d8b B81B0000 		.4byte	0x1bb8
 6996 1d8f 15       		.uleb128 0x15
 6997 1d90 0C030000 		.4byte	.LASF403
 6998 1d94 20       		.byte	0x20
 6999 1d95 B301     		.2byte	0x1b3
 7000 1d97 BD1B0000 		.4byte	0x1bbd
 7001 1d9b 21       		.uleb128 0x21
 7002 1d9c 07       		.byte	0x7
 7003 1d9d 01       		.byte	0x1
 7004 1d9e 5E000000 		.4byte	0x5e
 7005 1da2 21       		.byte	0x21
 7006 1da3 3F       		.byte	0x3f
 7007 1da4 BB1D0000 		.4byte	0x1dbb
 7008 1da8 22       		.uleb128 0x22
 7009 1da9 C0080000 		.4byte	.LASF404
 7010 1dad 00       		.byte	0
 7011 1dae 22       		.uleb128 0x22
 7012 1daf E6210000 		.4byte	.LASF405
 7013 1db3 01       		.byte	0x1
 7014 1db4 22       		.uleb128 0x22
 7015 1db5 A6010000 		.4byte	.LASF406
 7016 1db9 02       		.byte	0x2
 7017 1dba 00       		.byte	0
 7018 1dbb 03       		.uleb128 0x3
 7019 1dbc DE180000 		.4byte	.LASF407
 7020 1dc0 21       		.byte	0x21
 7021 1dc1 43       		.byte	0x43
 7022 1dc2 9B1D0000 		.4byte	0x1d9b
 7023 1dc6 03       		.uleb128 0x3
 7024 1dc7 85070000 		.4byte	.LASF408
 7025 1dcb 21       		.byte	0x21
 7026 1dcc 48       		.byte	0x48
 7027 1dcd D11D0000 		.4byte	0x1dd1
 7028 1dd1 07       		.uleb128 0x7
 7029 1dd2 85070000 		.4byte	.LASF408
 7030 1dd6 08       		.byte	0x8
 7031 1dd7 22       		.byte	0x22
 7032 1dd8 71       		.byte	0x71
 7033 1dd9 F61D0000 		.4byte	0x1df6
 7034 1ddd 08       		.uleb128 0x8
ARM GAS  /var/folders/j2/t8glr22d56s93xphj_30s8g80000gn/T//cc8l81ic.s 			page 125


 7035 1dde F1130000 		.4byte	.LASF332
 7036 1de2 22       		.byte	0x22
 7037 1de3 75       		.byte	0x75
 7038 1de4 BB1D0000 		.4byte	0x1dbb
 7039 1de8 00       		.byte	0
 7040 1de9 08       		.uleb128 0x8
 7041 1dea 51190000 		.4byte	.LASF333
 7042 1dee 22       		.byte	0x22
 7043 1def 79       		.byte	0x79
 7044 1df0 881E0000 		.4byte	0x1e88
 7045 1df4 04       		.byte	0x4
 7046 1df5 00       		.byte	0
 7047 1df6 03       		.uleb128 0x3
 7048 1df7 3E200000 		.4byte	.LASF409
 7049 1dfb 22       		.byte	0x22
 7050 1dfc 47       		.byte	0x47
 7051 1dfd F5000000 		.4byte	0xf5
 7052 1e01 03       		.uleb128 0x3
 7053 1e02 C21B0000 		.4byte	.LASF410
 7054 1e06 22       		.byte	0x22
 7055 1e07 4F       		.byte	0x4f
 7056 1e08 0C1E0000 		.4byte	0x1e0c
 7057 1e0c 0B       		.uleb128 0xb
 7058 1e0d 04       		.byte	0x4
 7059 1e0e 121E0000 		.4byte	0x1e12
 7060 1e12 0D       		.uleb128 0xd
 7061 1e13 221E0000 		.4byte	0x1e22
 7062 1e17 0E       		.uleb128 0xe
 7063 1e18 221E0000 		.4byte	0x1e22
 7064 1e1c 0E       		.uleb128 0xe
 7065 1e1d F61D0000 		.4byte	0x1df6
 7066 1e21 00       		.byte	0
 7067 1e22 0B       		.uleb128 0xb
 7068 1e23 04       		.byte	0x4
 7069 1e24 C61D0000 		.4byte	0x1dc6
 7070 1e28 17       		.uleb128 0x17
 7071 1e29 08       		.byte	0x8
 7072 1e2a 22       		.byte	0x22
 7073 1e2b 54       		.byte	0x54
 7074 1e2c 481E0000 		.4byte	0x1e48
 7075 1e30 08       		.uleb128 0x8
 7076 1e31 7A070000 		.4byte	.LASF411
 7077 1e35 22       		.byte	0x22
 7078 1e36 58       		.byte	0x58
 7079 1e37 F5000000 		.4byte	0xf5
 7080 1e3b 00       		.byte	0
 7081 1e3c 18       		.uleb128 0x18
 7082 1e3d 636200   		.ascii	"cb\000"
 7083 1e40 22       		.byte	0x22
 7084 1e41 5F       		.byte	0x5f
 7085 1e42 011E0000 		.4byte	0x1e01
 7086 1e46 04       		.byte	0x4
 7087 1e47 00       		.byte	0
 7088 1e48 03       		.uleb128 0x3
 7089 1e49 CE0C0000 		.4byte	.LASF412
 7090 1e4d 22       		.byte	0x22
 7091 1e4e 60       		.byte	0x60
ARM GAS  /var/folders/j2/t8glr22d56s93xphj_30s8g80000gn/T//cc8l81ic.s 			page 126


 7092 1e4f 281E0000 		.4byte	0x1e28
 7093 1e53 17       		.uleb128 0x17
 7094 1e54 B8       		.byte	0xb8
 7095 1e55 22       		.byte	0x22
 7096 1e56 66       		.byte	0x66
 7097 1e57 681E0000 		.4byte	0x1e68
 7098 1e5b 08       		.uleb128 0x8
 7099 1e5c BC1D0000 		.4byte	.LASF413
 7100 1e60 22       		.byte	0x22
 7101 1e61 6A       		.byte	0x6a
 7102 1e62 681E0000 		.4byte	0x1e68
 7103 1e66 00       		.byte	0
 7104 1e67 00       		.byte	0
 7105 1e68 13       		.uleb128 0x13
 7106 1e69 481E0000 		.4byte	0x1e48
 7107 1e6d 781E0000 		.4byte	0x1e78
 7108 1e71 14       		.uleb128 0x14
 7109 1e72 37000000 		.4byte	0x37
 7110 1e76 16       		.byte	0x16
 7111 1e77 00       		.byte	0
 7112 1e78 03       		.uleb128 0x3
 7113 1e79 CF1A0000 		.4byte	.LASF414
 7114 1e7d 22       		.byte	0x22
 7115 1e7e 6C       		.byte	0x6c
 7116 1e7f 531E0000 		.4byte	0x1e53
 7117 1e83 05       		.uleb128 0x5
 7118 1e84 781E0000 		.4byte	0x1e78
 7119 1e88 0B       		.uleb128 0xb
 7120 1e89 04       		.byte	0x4
 7121 1e8a 831E0000 		.4byte	0x1e83
 7122 1e8e 16       		.uleb128 0x16
 7123 1e8f D0040000 		.4byte	.LASF415
 7124 1e93 22       		.byte	0x22
 7125 1e94 86       		.byte	0x86
 7126 1e95 C61D0000 		.4byte	0x1dc6
 7127 1e99 21       		.uleb128 0x21
 7128 1e9a 07       		.byte	0x7
 7129 1e9b 01       		.byte	0x1
 7130 1e9c 5E000000 		.4byte	0x5e
 7131 1ea0 23       		.byte	0x23
 7132 1ea1 31       		.byte	0x31
 7133 1ea2 C51E0000 		.4byte	0x1ec5
 7134 1ea6 22       		.uleb128 0x22
 7135 1ea7 98140000 		.4byte	.LASF416
 7136 1eab 00       		.byte	0
 7137 1eac 22       		.uleb128 0x22
 7138 1ead B4120000 		.4byte	.LASF417
 7139 1eb1 01       		.byte	0x1
 7140 1eb2 22       		.uleb128 0x22
 7141 1eb3 14170000 		.4byte	.LASF418
 7142 1eb7 02       		.byte	0x2
 7143 1eb8 22       		.uleb128 0x22
 7144 1eb9 CB060000 		.4byte	.LASF419
 7145 1ebd 03       		.byte	0x3
 7146 1ebe 22       		.uleb128 0x22
 7147 1ebf 94030000 		.4byte	.LASF420
 7148 1ec3 04       		.byte	0x4
ARM GAS  /var/folders/j2/t8glr22d56s93xphj_30s8g80000gn/T//cc8l81ic.s 			page 127


 7149 1ec4 00       		.byte	0
 7150 1ec5 03       		.uleb128 0x3
 7151 1ec6 A5110000 		.4byte	.LASF421
 7152 1eca 23       		.byte	0x23
 7153 1ecb 37       		.byte	0x37
 7154 1ecc 991E0000 		.4byte	0x1e99
 7155 1ed0 03       		.uleb128 0x3
 7156 1ed1 AE150000 		.4byte	.LASF422
 7157 1ed5 23       		.byte	0x23
 7158 1ed6 3C       		.byte	0x3c
 7159 1ed7 DB1E0000 		.4byte	0x1edb
 7160 1edb 0C       		.uleb128 0xc
 7161 1edc AE150000 		.4byte	.LASF422
 7162 1ee0 10       		.byte	0x10
 7163 1ee1 24       		.byte	0x24
 7164 1ee2 9701     		.2byte	0x197
 7165 1ee4 1D1F0000 		.4byte	0x1f1d
 7166 1ee8 0A       		.uleb128 0xa
 7167 1ee9 F1130000 		.4byte	.LASF332
 7168 1eed 24       		.byte	0x24
 7169 1eee 9B01     		.2byte	0x19b
 7170 1ef0 C51E0000 		.4byte	0x1ec5
 7171 1ef4 00       		.byte	0
 7172 1ef5 0A       		.uleb128 0xa
 7173 1ef6 51190000 		.4byte	.LASF333
 7174 1efa 24       		.byte	0x24
 7175 1efb 9F01     		.2byte	0x19f
 7176 1efd B2200000 		.4byte	0x20b2
 7177 1f01 04       		.byte	0x4
 7178 1f02 0A       		.uleb128 0xa
 7179 1f03 910B0000 		.4byte	.LASF423
 7180 1f07 24       		.byte	0x24
 7181 1f08 A701     		.2byte	0x1a7
 7182 1f0a F5000000 		.4byte	0xf5
 7183 1f0e 08       		.byte	0x8
 7184 1f0f 09       		.uleb128 0x9
 7185 1f10 74696D00 		.ascii	"tim\000"
 7186 1f14 24       		.byte	0x24
 7187 1f15 AB01     		.2byte	0x1ab
 7188 1f17 B8200000 		.4byte	0x20b8
 7189 1f1b 0C       		.byte	0xc
 7190 1f1c 00       		.byte	0
 7191 1f1d 03       		.uleb128 0x3
 7192 1f1e 23100000 		.4byte	.LASF424
 7193 1f22 23       		.byte	0x23
 7194 1f23 43       		.byte	0x43
 7195 1f24 281F0000 		.4byte	0x1f28
 7196 1f28 0B       		.uleb128 0xb
 7197 1f29 04       		.byte	0x4
 7198 1f2a 2E1F0000 		.4byte	0x1f2e
 7199 1f2e 0D       		.uleb128 0xd
 7200 1f2f 391F0000 		.4byte	0x1f39
 7201 1f33 0E       		.uleb128 0xe
 7202 1f34 391F0000 		.4byte	0x1f39
 7203 1f38 00       		.byte	0
 7204 1f39 0B       		.uleb128 0xb
 7205 1f3a 04       		.byte	0x4
ARM GAS  /var/folders/j2/t8glr22d56s93xphj_30s8g80000gn/T//cc8l81ic.s 			page 128


 7206 1f3b D01E0000 		.4byte	0x1ed0
 7207 1f3f 19       		.uleb128 0x19
 7208 1f40 60       		.byte	0x60
 7209 1f41 25       		.byte	0x25
 7210 1f42 9E01     		.2byte	0x19e
 7211 1f44 4B200000 		.4byte	0x204b
 7212 1f48 09       		.uleb128 0x9
 7213 1f49 43523100 		.ascii	"CR1\000"
 7214 1f4d 25       		.byte	0x25
 7215 1f4e 9F01     		.2byte	0x19f
 7216 1f50 00010000 		.4byte	0x100
 7217 1f54 00       		.byte	0
 7218 1f55 09       		.uleb128 0x9
 7219 1f56 43523200 		.ascii	"CR2\000"
 7220 1f5a 25       		.byte	0x25
 7221 1f5b A001     		.2byte	0x1a0
 7222 1f5d 00010000 		.4byte	0x100
 7223 1f61 04       		.byte	0x4
 7224 1f62 0A       		.uleb128 0xa
 7225 1f63 041D0000 		.4byte	.LASF425
 7226 1f67 25       		.byte	0x25
 7227 1f68 A101     		.2byte	0x1a1
 7228 1f6a 00010000 		.4byte	0x100
 7229 1f6e 08       		.byte	0x8
 7230 1f6f 0A       		.uleb128 0xa
 7231 1f70 20090000 		.4byte	.LASF426
 7232 1f74 25       		.byte	0x25
 7233 1f75 A201     		.2byte	0x1a2
 7234 1f77 00010000 		.4byte	0x100
 7235 1f7b 0C       		.byte	0xc
 7236 1f7c 09       		.uleb128 0x9
 7237 1f7d 535200   		.ascii	"SR\000"
 7238 1f80 25       		.byte	0x25
 7239 1f81 A301     		.2byte	0x1a3
 7240 1f83 00010000 		.4byte	0x100
 7241 1f87 10       		.byte	0x10
 7242 1f88 09       		.uleb128 0x9
 7243 1f89 45475200 		.ascii	"EGR\000"
 7244 1f8d 25       		.byte	0x25
 7245 1f8e A401     		.2byte	0x1a4
 7246 1f90 00010000 		.4byte	0x100
 7247 1f94 14       		.byte	0x14
 7248 1f95 0A       		.uleb128 0xa
 7249 1f96 F0200000 		.4byte	.LASF427
 7250 1f9a 25       		.byte	0x25
 7251 1f9b A501     		.2byte	0x1a5
 7252 1f9d 00010000 		.4byte	0x100
 7253 1fa1 18       		.byte	0x18
 7254 1fa2 0A       		.uleb128 0xa
 7255 1fa3 F6200000 		.4byte	.LASF428
 7256 1fa7 25       		.byte	0x25
 7257 1fa8 A601     		.2byte	0x1a6
 7258 1faa 00010000 		.4byte	0x100
 7259 1fae 1C       		.byte	0x1c
 7260 1faf 0A       		.uleb128 0xa
 7261 1fb0 6C060000 		.4byte	.LASF429
 7262 1fb4 25       		.byte	0x25
ARM GAS  /var/folders/j2/t8glr22d56s93xphj_30s8g80000gn/T//cc8l81ic.s 			page 129


 7263 1fb5 A701     		.2byte	0x1a7
 7264 1fb7 00010000 		.4byte	0x100
 7265 1fbb 20       		.byte	0x20
 7266 1fbc 09       		.uleb128 0x9
 7267 1fbd 434E5400 		.ascii	"CNT\000"
 7268 1fc1 25       		.byte	0x25
 7269 1fc2 A801     		.2byte	0x1a8
 7270 1fc4 00010000 		.4byte	0x100
 7271 1fc8 24       		.byte	0x24
 7272 1fc9 09       		.uleb128 0x9
 7273 1fca 50534300 		.ascii	"PSC\000"
 7274 1fce 25       		.byte	0x25
 7275 1fcf A901     		.2byte	0x1a9
 7276 1fd1 00010000 		.4byte	0x100
 7277 1fd5 28       		.byte	0x28
 7278 1fd6 09       		.uleb128 0x9
 7279 1fd7 41525200 		.ascii	"ARR\000"
 7280 1fdb 25       		.byte	0x25
 7281 1fdc AA01     		.2byte	0x1aa
 7282 1fde 00010000 		.4byte	0x100
 7283 1fe2 2C       		.byte	0x2c
 7284 1fe3 09       		.uleb128 0x9
 7285 1fe4 52435200 		.ascii	"RCR\000"
 7286 1fe8 25       		.byte	0x25
 7287 1fe9 AB01     		.2byte	0x1ab
 7288 1feb 00010000 		.4byte	0x100
 7289 1fef 30       		.byte	0x30
 7290 1ff0 09       		.uleb128 0x9
 7291 1ff1 43435200 		.ascii	"CCR\000"
 7292 1ff5 25       		.byte	0x25
 7293 1ff6 AC01     		.2byte	0x1ac
 7294 1ff8 FE090000 		.4byte	0x9fe
 7295 1ffc 34       		.byte	0x34
 7296 1ffd 0A       		.uleb128 0xa
 7297 1ffe 79010000 		.4byte	.LASF430
 7298 2002 25       		.byte	0x25
 7299 2003 AD01     		.2byte	0x1ad
 7300 2005 00010000 		.4byte	0x100
 7301 2009 44       		.byte	0x44
 7302 200a 09       		.uleb128 0x9
 7303 200b 44435200 		.ascii	"DCR\000"
 7304 200f 25       		.byte	0x25
 7305 2010 AE01     		.2byte	0x1ae
 7306 2012 00010000 		.4byte	0x100
 7307 2016 48       		.byte	0x48
 7308 2017 0A       		.uleb128 0xa
 7309 2018 59140000 		.4byte	.LASF431
 7310 201c 25       		.byte	0x25
 7311 201d AF01     		.2byte	0x1af
 7312 201f 00010000 		.4byte	0x100
 7313 2023 4C       		.byte	0x4c
 7314 2024 09       		.uleb128 0x9
 7315 2025 4F5200   		.ascii	"OR\000"
 7316 2028 25       		.byte	0x25
 7317 2029 B001     		.2byte	0x1b0
 7318 202b 00010000 		.4byte	0x100
 7319 202f 50       		.byte	0x50
ARM GAS  /var/folders/j2/t8glr22d56s93xphj_30s8g80000gn/T//cc8l81ic.s 			page 130


 7320 2030 0A       		.uleb128 0xa
 7321 2031 FC200000 		.4byte	.LASF432
 7322 2035 25       		.byte	0x25
 7323 2036 B101     		.2byte	0x1b1
 7324 2038 00010000 		.4byte	0x100
 7325 203c 54       		.byte	0x54
 7326 203d 0A       		.uleb128 0xa
 7327 203e A30B0000 		.4byte	.LASF433
 7328 2042 25       		.byte	0x25
 7329 2043 B201     		.2byte	0x1b2
 7330 2045 E9090000 		.4byte	0x9e9
 7331 2049 58       		.byte	0x58
 7332 204a 00       		.byte	0
 7333 204b 1A       		.uleb128 0x1a
 7334 204c 1C1C0000 		.4byte	.LASF434
 7335 2050 25       		.byte	0x25
 7336 2051 B301     		.2byte	0x1b3
 7337 2053 3F1F0000 		.4byte	0x1f3f
 7338 2057 1A       		.uleb128 0x1a
 7339 2058 EF070000 		.4byte	.LASF435
 7340 205c 24       		.byte	0x24
 7341 205d 6D01     		.2byte	0x16d
 7342 205f F5000000 		.4byte	0xf5
 7343 2063 19       		.uleb128 0x19
 7344 2064 10       		.byte	0x10
 7345 2065 24       		.byte	0x24
 7346 2066 7801     		.2byte	0x178
 7347 2068 A1200000 		.4byte	0x20a1
 7348 206c 0A       		.uleb128 0xa
 7349 206d 6D200000 		.4byte	.LASF436
 7350 2071 24       		.byte	0x24
 7351 2072 7E01     		.2byte	0x17e
 7352 2074 57200000 		.4byte	0x2057
 7353 2078 00       		.byte	0
 7354 2079 0A       		.uleb128 0xa
 7355 207a 5E140000 		.4byte	.LASF437
 7356 207e 24       		.byte	0x24
 7357 207f 8501     		.2byte	0x185
 7358 2081 1D1F0000 		.4byte	0x1f1d
 7359 2085 04       		.byte	0x4
 7360 2086 09       		.uleb128 0x9
 7361 2087 63723200 		.ascii	"cr2\000"
 7362 208b 24       		.byte	0x24
 7363 208c 8B01     		.2byte	0x18b
 7364 208e F5000000 		.4byte	0xf5
 7365 2092 08       		.byte	0x8
 7366 2093 0A       		.uleb128 0xa
 7367 2094 EA0A0000 		.4byte	.LASF438
 7368 2098 24       		.byte	0x24
 7369 2099 9101     		.2byte	0x191
 7370 209b F5000000 		.4byte	0xf5
 7371 209f 0C       		.byte	0xc
 7372 20a0 00       		.byte	0
 7373 20a1 1A       		.uleb128 0x1a
 7374 20a2 B0050000 		.4byte	.LASF439
 7375 20a6 24       		.byte	0x24
 7376 20a7 9201     		.2byte	0x192
ARM GAS  /var/folders/j2/t8glr22d56s93xphj_30s8g80000gn/T//cc8l81ic.s 			page 131


 7377 20a9 63200000 		.4byte	0x2063
 7378 20ad 05       		.uleb128 0x5
 7379 20ae A1200000 		.4byte	0x20a1
 7380 20b2 0B       		.uleb128 0xb
 7381 20b3 04       		.byte	0x4
 7382 20b4 AD200000 		.4byte	0x20ad
 7383 20b8 0B       		.uleb128 0xb
 7384 20b9 04       		.byte	0x4
 7385 20ba 4B200000 		.4byte	0x204b
 7386 20be 15       		.uleb128 0x15
 7387 20bf EF1F0000 		.4byte	.LASF440
 7388 20c3 24       		.byte	0x24
 7389 20c4 F201     		.2byte	0x1f2
 7390 20c6 D01E0000 		.4byte	0x1ed0
 7391 20ca 15       		.uleb128 0x15
 7392 20cb 58190000 		.4byte	.LASF441
 7393 20cf 24       		.byte	0x24
 7394 20d0 0202     		.2byte	0x202
 7395 20d2 D01E0000 		.4byte	0x1ed0
 7396 20d6 21       		.uleb128 0x21
 7397 20d7 07       		.byte	0x7
 7398 20d8 01       		.byte	0x1
 7399 20d9 5E000000 		.4byte	0x5e
 7400 20dd 26       		.byte	0x26
 7401 20de 4C       		.byte	0x4c
 7402 20df 08210000 		.4byte	0x2108
 7403 20e3 22       		.uleb128 0x22
 7404 20e4 7B050000 		.4byte	.LASF442
 7405 20e8 00       		.byte	0
 7406 20e9 22       		.uleb128 0x22
 7407 20ea 9D0C0000 		.4byte	.LASF443
 7408 20ee 01       		.byte	0x1
 7409 20ef 22       		.uleb128 0x22
 7410 20f0 05060000 		.4byte	.LASF444
 7411 20f4 02       		.byte	0x2
 7412 20f5 22       		.uleb128 0x22
 7413 20f6 BA030000 		.4byte	.LASF445
 7414 20fa 03       		.byte	0x3
 7415 20fb 22       		.uleb128 0x22
 7416 20fc 98020000 		.4byte	.LASF446
 7417 2100 04       		.byte	0x4
 7418 2101 22       		.uleb128 0x22
 7419 2102 66110000 		.4byte	.LASF447
 7420 2106 05       		.byte	0x5
 7421 2107 00       		.byte	0
 7422 2108 03       		.uleb128 0x3
 7423 2109 E80F0000 		.4byte	.LASF448
 7424 210d 26       		.byte	0x26
 7425 210e 53       		.byte	0x53
 7426 210f D6200000 		.4byte	0x20d6
 7427 2113 1A       		.uleb128 0x1a
 7428 2114 02040000 		.4byte	.LASF449
 7429 2118 27       		.byte	0x27
 7430 2119 6A01     		.2byte	0x16a
 7431 211b DA000000 		.4byte	0xda
 7432 211f 1A       		.uleb128 0x1a
 7433 2120 39030000 		.4byte	.LASF450
ARM GAS  /var/folders/j2/t8glr22d56s93xphj_30s8g80000gn/T//cc8l81ic.s 			page 132


 7434 2124 27       		.byte	0x27
 7435 2125 6F01     		.2byte	0x16f
 7436 2127 F5000000 		.4byte	0xf5
 7437 212b 24       		.uleb128 0x24
 7438 212c 07       		.byte	0x7
 7439 212d 01       		.byte	0x1
 7440 212e 5E000000 		.4byte	0x5e
 7441 2132 27       		.byte	0x27
 7442 2133 7401     		.2byte	0x174
 7443 2135 4C210000 		.4byte	0x214c
 7444 2139 22       		.uleb128 0x22
 7445 213a CD030000 		.4byte	.LASF451
 7446 213e 01       		.byte	0x1
 7447 213f 22       		.uleb128 0x22
 7448 2140 59000000 		.4byte	.LASF452
 7449 2144 02       		.byte	0x2
 7450 2145 22       		.uleb128 0x22
 7451 2146 A6080000 		.4byte	.LASF453
 7452 214a 03       		.byte	0x3
 7453 214b 00       		.byte	0
 7454 214c 1A       		.uleb128 0x1a
 7455 214d 36210000 		.4byte	.LASF454
 7456 2151 27       		.byte	0x27
 7457 2152 7801     		.2byte	0x178
 7458 2154 2B210000 		.4byte	0x212b
 7459 2158 24       		.uleb128 0x24
 7460 2159 07       		.byte	0x7
 7461 215a 01       		.byte	0x1
 7462 215b 5E000000 		.4byte	0x5e
 7463 215f 27       		.byte	0x27
 7464 2160 7D01     		.2byte	0x17d
 7465 2162 79210000 		.4byte	0x2179
 7466 2166 22       		.uleb128 0x22
 7467 2167 A1040000 		.4byte	.LASF455
 7468 216b 01       		.byte	0x1
 7469 216c 22       		.uleb128 0x22
 7470 216d C5200000 		.4byte	.LASF456
 7471 2171 02       		.byte	0x2
 7472 2172 22       		.uleb128 0x22
 7473 2173 80090000 		.4byte	.LASF457
 7474 2177 03       		.byte	0x3
 7475 2178 00       		.byte	0
 7476 2179 1A       		.uleb128 0x1a
 7477 217a 18060000 		.4byte	.LASF458
 7478 217e 27       		.byte	0x27
 7479 217f 8101     		.2byte	0x181
 7480 2181 58210000 		.4byte	0x2158
 7481 2185 19       		.uleb128 0x19
 7482 2186 0C       		.byte	0xc
 7483 2187 27       		.byte	0x27
 7484 2188 8601     		.2byte	0x186
 7485 218a B6210000 		.4byte	0x21b6
 7486 218e 0A       		.uleb128 0xa
 7487 218f DC120000 		.4byte	.LASF459
 7488 2193 27       		.byte	0x27
 7489 2194 8801     		.2byte	0x188
 7490 2196 4C210000 		.4byte	0x214c
ARM GAS  /var/folders/j2/t8glr22d56s93xphj_30s8g80000gn/T//cc8l81ic.s 			page 133


 7491 219a 00       		.byte	0
 7492 219b 0A       		.uleb128 0xa
 7493 219c F6020000 		.4byte	.LASF460
 7494 21a0 27       		.byte	0x27
 7495 21a1 8901     		.2byte	0x189
 7496 21a3 F5000000 		.4byte	0xf5
 7497 21a7 04       		.byte	0x4
 7498 21a8 0A       		.uleb128 0xa
 7499 21a9 A4210000 		.4byte	.LASF461
 7500 21ad 27       		.byte	0x27
 7501 21ae 8C01     		.2byte	0x18c
 7502 21b0 79210000 		.4byte	0x2179
 7503 21b4 08       		.byte	0x8
 7504 21b5 00       		.byte	0
 7505 21b6 1A       		.uleb128 0x1a
 7506 21b7 86010000 		.4byte	.LASF462
 7507 21bb 27       		.byte	0x27
 7508 21bc 8E01     		.2byte	0x18e
 7509 21be 85210000 		.4byte	0x2185
 7510 21c2 05       		.uleb128 0x5
 7511 21c3 B6210000 		.4byte	0x21b6
 7512 21c7 1A       		.uleb128 0x1a
 7513 21c8 B0030000 		.4byte	.LASF463
 7514 21cc 27       		.byte	0x27
 7515 21cd 9301     		.2byte	0x193
 7516 21cf D3210000 		.4byte	0x21d3
 7517 21d3 0C       		.uleb128 0xc
 7518 21d4 B0030000 		.4byte	.LASF463
 7519 21d8 3C       		.byte	0x3c
 7520 21d9 27       		.byte	0x27
 7521 21da 9801     		.2byte	0x198
 7522 21dc 70220000 		.4byte	0x2270
 7523 21e0 0A       		.uleb128 0xa
 7524 21e1 F1130000 		.4byte	.LASF332
 7525 21e5 27       		.byte	0x27
 7526 21e6 9C01     		.2byte	0x19c
 7527 21e8 08210000 		.4byte	0x2108
 7528 21ec 00       		.byte	0
 7529 21ed 0A       		.uleb128 0xa
 7530 21ee 51190000 		.4byte	.LASF333
 7531 21f2 27       		.byte	0x27
 7532 21f3 A001     		.2byte	0x1a0
 7533 21f5 70220000 		.4byte	0x2270
 7534 21f9 04       		.byte	0x4
 7535 21fa 0A       		.uleb128 0xa
 7536 21fb F7000000 		.4byte	.LASF464
 7537 21ff 27       		.byte	0x27
 7538 2200 A401     		.2byte	0x1a4
 7539 2202 1F210000 		.4byte	0x211f
 7540 2206 08       		.byte	0x8
 7541 2207 0A       		.uleb128 0xa
 7542 2208 5D0B0000 		.4byte	.LASF338
 7543 220c 27       		.byte	0x27
 7544 220d A901     		.2byte	0x1a9
 7545 220f A7110000 		.4byte	0x11a7
 7546 2213 0C       		.byte	0xc
 7547 2214 0A       		.uleb128 0xa
ARM GAS  /var/folders/j2/t8glr22d56s93xphj_30s8g80000gn/T//cc8l81ic.s 			page 134


 7548 2215 30060000 		.4byte	.LASF337
 7549 2219 27       		.byte	0x27
 7550 221a B201     		.2byte	0x1b2
 7551 221c D2020000 		.4byte	0x2d2
 7552 2220 20       		.byte	0x20
 7553 2221 0A       		.uleb128 0xa
 7554 2222 A60C0000 		.4byte	.LASF465
 7555 2226 27       		.byte	0x27
 7556 2227 B601     		.2byte	0x1b6
 7557 2229 13210000 		.4byte	0x2113
 7558 222d 24       		.byte	0x24
 7559 222e 0A       		.uleb128 0xa
 7560 222f 70070000 		.4byte	.LASF466
 7561 2233 27       		.byte	0x27
 7562 2234 BA01     		.2byte	0x1ba
 7563 2236 F5000000 		.4byte	0xf5
 7564 223a 28       		.byte	0x28
 7565 223b 0A       		.uleb128 0xa
 7566 223c E5070000 		.4byte	.LASF467
 7567 2240 27       		.byte	0x27
 7568 2241 BE01     		.2byte	0x1be
 7569 2243 F5000000 		.4byte	0xf5
 7570 2247 2C       		.byte	0x2c
 7571 2248 0A       		.uleb128 0xa
 7572 2249 CD000000 		.4byte	.LASF468
 7573 224d 27       		.byte	0x27
 7574 224e C201     		.2byte	0x1c2
 7575 2250 B2190000 		.4byte	0x19b2
 7576 2254 30       		.byte	0x30
 7577 2255 0A       		.uleb128 0xa
 7578 2256 99010000 		.4byte	.LASF469
 7579 225a 27       		.byte	0x27
 7580 225b C601     		.2byte	0x1c6
 7581 225d B2190000 		.4byte	0x19b2
 7582 2261 34       		.byte	0x34
 7583 2262 09       		.uleb128 0x9
 7584 2263 69326300 		.ascii	"i2c\000"
 7585 2267 27       		.byte	0x27
 7586 2268 CA01     		.2byte	0x1ca
 7587 226a 76220000 		.4byte	0x2276
 7588 226e 38       		.byte	0x38
 7589 226f 00       		.byte	0
 7590 2270 0B       		.uleb128 0xb
 7591 2271 04       		.byte	0x4
 7592 2272 C2210000 		.4byte	0x21c2
 7593 2276 0B       		.uleb128 0xb
 7594 2277 04       		.byte	0x4
 7595 2278 8E0A0000 		.4byte	0xa8e
 7596 227c 15       		.uleb128 0x15
 7597 227d 41100000 		.4byte	.LASF470
 7598 2281 27       		.byte	0x27
 7599 2282 E001     		.2byte	0x1e0
 7600 2284 C7210000 		.4byte	0x21c7
 7601 2288 21       		.uleb128 0x21
 7602 2289 07       		.byte	0x7
 7603 228a 01       		.byte	0x1
 7604 228b 5E000000 		.4byte	0x5e
ARM GAS  /var/folders/j2/t8glr22d56s93xphj_30s8g80000gn/T//cc8l81ic.s 			page 135


 7605 228f 28       		.byte	0x28
 7606 2290 39       		.byte	0x39
 7607 2291 B4220000 		.4byte	0x22b4
 7608 2295 22       		.uleb128 0x22
 7609 2296 080F0000 		.4byte	.LASF471
 7610 229a 00       		.byte	0
 7611 229b 22       		.uleb128 0x22
 7612 229c 260B0000 		.4byte	.LASF472
 7613 22a0 01       		.byte	0x1
 7614 22a1 22       		.uleb128 0x22
 7615 22a2 D3000000 		.4byte	.LASF473
 7616 22a6 02       		.byte	0x2
 7617 22a7 22       		.uleb128 0x22
 7618 22a8 09170000 		.4byte	.LASF474
 7619 22ac 03       		.byte	0x3
 7620 22ad 22       		.uleb128 0x22
 7621 22ae 571B0000 		.4byte	.LASF475
 7622 22b2 04       		.byte	0x4
 7623 22b3 00       		.byte	0
 7624 22b4 03       		.uleb128 0x3
 7625 22b5 5C1E0000 		.4byte	.LASF476
 7626 22b9 28       		.byte	0x28
 7627 22ba 3F       		.byte	0x3f
 7628 22bb 88220000 		.4byte	0x2288
 7629 22bf 03       		.uleb128 0x3
 7630 22c0 9A210000 		.4byte	.LASF477
 7631 22c4 29       		.byte	0x29
 7632 22c5 E2       		.byte	0xe2
 7633 22c6 CA220000 		.4byte	0x22ca
 7634 22ca 0C       		.uleb128 0xc
 7635 22cb 9A210000 		.4byte	.LASF477
 7636 22cf 20       		.byte	0x20
 7637 22d0 29       		.byte	0x29
 7638 22d1 1B01     		.2byte	0x11b
 7639 22d3 40230000 		.4byte	0x2340
 7640 22d7 0A       		.uleb128 0xa
 7641 22d8 F1130000 		.4byte	.LASF332
 7642 22dc 29       		.byte	0x29
 7643 22dd 1F01     		.2byte	0x11f
 7644 22df B4220000 		.4byte	0x22b4
 7645 22e3 00       		.byte	0
 7646 22e4 0A       		.uleb128 0xa
 7647 22e5 51190000 		.4byte	.LASF333
 7648 22e9 29       		.byte	0x29
 7649 22ea 2301     		.2byte	0x123
 7650 22ec D8230000 		.4byte	0x23d8
 7651 22f0 04       		.byte	0x4
 7652 22f1 09       		.uleb128 0x9
 7653 22f2 73706900 		.ascii	"spi\000"
 7654 22f6 29       		.byte	0x29
 7655 22f7 2801     		.2byte	0x128
 7656 22f9 DE230000 		.4byte	0x23de
 7657 22fd 08       		.byte	0x8
 7658 22fe 09       		.uleb128 0x9
 7659 22ff 63666700 		.ascii	"cfg\000"
 7660 2303 29       		.byte	0x29
 7661 2304 2C01     		.2byte	0x12c
ARM GAS  /var/folders/j2/t8glr22d56s93xphj_30s8g80000gn/T//cc8l81ic.s 			page 136


 7662 2306 DA000000 		.4byte	0xda
 7663 230a 0C       		.byte	0xc
 7664 230b 0A       		.uleb128 0xa
 7665 230c CD000000 		.4byte	.LASF468
 7666 2310 29       		.byte	0x29
 7667 2311 3001     		.2byte	0x130
 7668 2313 B2190000 		.4byte	0x19b2
 7669 2317 10       		.byte	0x10
 7670 2318 0A       		.uleb128 0xa
 7671 2319 99010000 		.4byte	.LASF469
 7672 231d 29       		.byte	0x29
 7673 231e 3401     		.2byte	0x134
 7674 2320 B2190000 		.4byte	0x19b2
 7675 2324 14       		.byte	0x14
 7676 2325 0A       		.uleb128 0xa
 7677 2326 70070000 		.4byte	.LASF466
 7678 232a 29       		.byte	0x29
 7679 232b 3801     		.2byte	0x138
 7680 232d F5000000 		.4byte	0xf5
 7681 2331 18       		.byte	0x18
 7682 2332 0A       		.uleb128 0xa
 7683 2333 E5070000 		.4byte	.LASF467
 7684 2337 29       		.byte	0x29
 7685 2338 3C01     		.2byte	0x13c
 7686 233a F5000000 		.4byte	0xf5
 7687 233e 1C       		.byte	0x1c
 7688 233f 00       		.byte	0
 7689 2340 03       		.uleb128 0x3
 7690 2341 9C070000 		.4byte	.LASF478
 7691 2345 29       		.byte	0x29
 7692 2346 EB       		.byte	0xeb
 7693 2347 4B230000 		.4byte	0x234b
 7694 234b 0B       		.uleb128 0xb
 7695 234c 04       		.byte	0x4
 7696 234d 51230000 		.4byte	0x2351
 7697 2351 0D       		.uleb128 0xd
 7698 2352 66230000 		.4byte	0x2366
 7699 2356 0E       		.uleb128 0xe
 7700 2357 66230000 		.4byte	0x2366
 7701 235b 0E       		.uleb128 0xe
 7702 235c 2C000000 		.4byte	0x2c
 7703 2360 0E       		.uleb128 0xe
 7704 2361 2C000000 		.4byte	0x2c
 7705 2365 00       		.byte	0
 7706 2366 0B       		.uleb128 0xb
 7707 2367 04       		.byte	0x4
 7708 2368 BF220000 		.4byte	0x22bf
 7709 236c 17       		.uleb128 0x17
 7710 236d 14       		.byte	0x14
 7711 236e 29       		.byte	0x29
 7712 236f F1       		.byte	0xf1
 7713 2370 C0230000 		.4byte	0x23c0
 7714 2374 08       		.uleb128 0x8
 7715 2375 2F010000 		.4byte	.LASF479
 7716 2379 29       		.byte	0x29
 7717 237a F6       		.byte	0xf6
 7718 237b C0230000 		.4byte	0x23c0
ARM GAS  /var/folders/j2/t8glr22d56s93xphj_30s8g80000gn/T//cc8l81ic.s 			page 137


 7719 237f 00       		.byte	0
 7720 2380 08       		.uleb128 0x8
 7721 2381 ED000000 		.4byte	.LASF480
 7722 2385 29       		.byte	0x29
 7723 2386 FB       		.byte	0xfb
 7724 2387 BA030000 		.4byte	0x3ba
 7725 238b 04       		.byte	0x4
 7726 238c 08       		.uleb128 0x8
 7727 238d 630B0000 		.4byte	.LASF481
 7728 2391 29       		.byte	0x29
 7729 2392 FF       		.byte	0xff
 7730 2393 2C000000 		.4byte	0x2c
 7731 2397 08       		.byte	0x8
 7732 2398 0A       		.uleb128 0xa
 7733 2399 42080000 		.4byte	.LASF345
 7734 239d 29       		.byte	0x29
 7735 239e 0301     		.2byte	0x103
 7736 23a0 40230000 		.4byte	0x2340
 7737 23a4 0C       		.byte	0xc
 7738 23a5 0A       		.uleb128 0xa
 7739 23a6 7F170000 		.4byte	.LASF482
 7740 23aa 29       		.byte	0x29
 7741 23ab 0F01     		.2byte	0x10f
 7742 23ad CF000000 		.4byte	0xcf
 7743 23b1 10       		.byte	0x10
 7744 23b2 0A       		.uleb128 0xa
 7745 23b3 EC050000 		.4byte	.LASF483
 7746 23b7 29       		.byte	0x29
 7747 23b8 1501     		.2byte	0x115
 7748 23ba CF000000 		.4byte	0xcf
 7749 23be 12       		.byte	0x12
 7750 23bf 00       		.byte	0
 7751 23c0 0B       		.uleb128 0xb
 7752 23c1 04       		.byte	0x4
 7753 23c2 C6230000 		.4byte	0x23c6
 7754 23c6 25       		.uleb128 0x25
 7755 23c7 1A       		.uleb128 0x1a
 7756 23c8 AF210000 		.4byte	.LASF484
 7757 23cc 29       		.byte	0x29
 7758 23cd 1601     		.2byte	0x116
 7759 23cf 6C230000 		.4byte	0x236c
 7760 23d3 05       		.uleb128 0x5
 7761 23d4 C7230000 		.4byte	0x23c7
 7762 23d8 0B       		.uleb128 0xb
 7763 23d9 04       		.byte	0x4
 7764 23da D3230000 		.4byte	0x23d3
 7765 23de 0B       		.uleb128 0xb
 7766 23df 04       		.byte	0x4
 7767 23e0 410C0000 		.4byte	0xc41
 7768 23e4 15       		.uleb128 0x15
 7769 23e5 F7210000 		.4byte	.LASF485
 7770 23e9 29       		.byte	0x29
 7771 23ea 4801     		.2byte	0x148
 7772 23ec BF220000 		.4byte	0x22bf
 7773 23f0 21       		.uleb128 0x21
 7774 23f1 07       		.byte	0x7
 7775 23f2 01       		.byte	0x1
ARM GAS  /var/folders/j2/t8glr22d56s93xphj_30s8g80000gn/T//cc8l81ic.s 			page 138


 7776 23f3 5E000000 		.4byte	0x5e
 7777 23f7 2A       		.byte	0x2a
 7778 23f8 4A       		.byte	0x4a
 7779 23f9 10240000 		.4byte	0x2410
 7780 23fd 22       		.uleb128 0x22
 7781 23fe 77060000 		.4byte	.LASF486
 7782 2402 00       		.byte	0
 7783 2403 22       		.uleb128 0x22
 7784 2404 2F0B0000 		.4byte	.LASF487
 7785 2408 01       		.byte	0x1
 7786 2409 22       		.uleb128 0x22
 7787 240a 270F0000 		.4byte	.LASF488
 7788 240e 02       		.byte	0x2
 7789 240f 00       		.byte	0
 7790 2410 03       		.uleb128 0x3
 7791 2411 B9020000 		.4byte	.LASF489
 7792 2415 2A       		.byte	0x2a
 7793 2416 4E       		.byte	0x4e
 7794 2417 F0230000 		.4byte	0x23f0
 7795 241b 03       		.uleb128 0x3
 7796 241c 620A0000 		.4byte	.LASF490
 7797 2420 2A       		.byte	0x2a
 7798 2421 53       		.byte	0x53
 7799 2422 26240000 		.4byte	0x2426
 7800 2426 0C       		.uleb128 0xc
 7801 2427 620A0000 		.4byte	.LASF490
 7802 242b 1C       		.byte	0x1c
 7803 242c 2B       		.byte	0x2b
 7804 242d 7901     		.2byte	0x179
 7805 242f 8F240000 		.4byte	0x248f
 7806 2433 0A       		.uleb128 0xa
 7807 2434 F1130000 		.4byte	.LASF332
 7808 2438 2B       		.byte	0x2b
 7809 2439 7D01     		.2byte	0x17d
 7810 243b 10240000 		.4byte	0x2410
 7811 243f 00       		.byte	0
 7812 2440 0A       		.uleb128 0xa
 7813 2441 51190000 		.4byte	.LASF333
 7814 2445 2B       		.byte	0x2b
 7815 2446 8101     		.2byte	0x181
 7816 2448 8A250000 		.4byte	0x258a
 7817 244c 04       		.byte	0x4
 7818 244d 0A       		.uleb128 0xa
 7819 244e 5F110000 		.4byte	.LASF491
 7820 2452 2B       		.byte	0x2b
 7821 2453 8501     		.2byte	0x185
 7822 2455 D5240000 		.4byte	0x24d5
 7823 2459 08       		.byte	0x8
 7824 245a 0A       		.uleb128 0xa
 7825 245b C5170000 		.4byte	.LASF492
 7826 245f 2B       		.byte	0x2b
 7827 2460 8901     		.2byte	0x189
 7828 2462 C9240000 		.4byte	0x24c9
 7829 2466 0C       		.byte	0xc
 7830 2467 0A       		.uleb128 0xa
 7831 2468 BC1D0000 		.4byte	.LASF413
 7832 246c 2B       		.byte	0x2b
ARM GAS  /var/folders/j2/t8glr22d56s93xphj_30s8g80000gn/T//cc8l81ic.s 			page 139


 7833 246d 8D01     		.2byte	0x18d
 7834 246f BD240000 		.4byte	0x24bd
 7835 2473 10       		.byte	0x10
 7836 2474 0A       		.uleb128 0xa
 7837 2475 910B0000 		.4byte	.LASF423
 7838 2479 2B       		.byte	0x2b
 7839 247a 9501     		.2byte	0x195
 7840 247c F5000000 		.4byte	0xf5
 7841 2480 14       		.byte	0x14
 7842 2481 09       		.uleb128 0x9
 7843 2482 74696D00 		.ascii	"tim\000"
 7844 2486 2B       		.byte	0x2b
 7845 2487 9901     		.2byte	0x199
 7846 2489 B8200000 		.4byte	0x20b8
 7847 248d 18       		.byte	0x18
 7848 248e 00       		.byte	0
 7849 248f 03       		.uleb128 0x3
 7850 2490 A70F0000 		.4byte	.LASF493
 7851 2494 2A       		.byte	0x2a
 7852 2495 5A       		.byte	0x5a
 7853 2496 9A240000 		.4byte	0x249a
 7854 249a 0B       		.uleb128 0xb
 7855 249b 04       		.byte	0x4
 7856 249c A0240000 		.4byte	0x24a0
 7857 24a0 0D       		.uleb128 0xd
 7858 24a1 AB240000 		.4byte	0x24ab
 7859 24a5 0E       		.uleb128 0xe
 7860 24a6 AB240000 		.4byte	0x24ab
 7861 24aa 00       		.byte	0
 7862 24ab 0B       		.uleb128 0xb
 7863 24ac 04       		.byte	0x4
 7864 24ad 1B240000 		.4byte	0x241b
 7865 24b1 1A       		.uleb128 0x1a
 7866 24b2 3A130000 		.4byte	.LASF494
 7867 24b6 2B       		.byte	0x2b
 7868 24b7 2501     		.2byte	0x125
 7869 24b9 F5000000 		.4byte	0xf5
 7870 24bd 1A       		.uleb128 0x1a
 7871 24be 30150000 		.4byte	.LASF495
 7872 24c2 2B       		.byte	0x2b
 7873 24c3 2A01     		.2byte	0x12a
 7874 24c5 BF000000 		.4byte	0xbf
 7875 24c9 1A       		.uleb128 0x1a
 7876 24ca 3B020000 		.4byte	.LASF496
 7877 24ce 2B       		.byte	0x2b
 7878 24cf 2F01     		.2byte	0x12f
 7879 24d1 F5000000 		.4byte	0xf5
 7880 24d5 1A       		.uleb128 0x1a
 7881 24d6 330C0000 		.4byte	.LASF497
 7882 24da 2B       		.byte	0x2b
 7883 24db 3401     		.2byte	0x134
 7884 24dd F5000000 		.4byte	0xf5
 7885 24e1 19       		.uleb128 0x19
 7886 24e2 08       		.byte	0x8
 7887 24e3 2B       		.byte	0x2b
 7888 24e4 3901     		.2byte	0x139
 7889 24e6 05250000 		.4byte	0x2505
ARM GAS  /var/folders/j2/t8glr22d56s93xphj_30s8g80000gn/T//cc8l81ic.s 			page 140


 7890 24ea 0A       		.uleb128 0xa
 7891 24eb 7A070000 		.4byte	.LASF411
 7892 24ef 2B       		.byte	0x2b
 7893 24f0 3D01     		.2byte	0x13d
 7894 24f2 B1240000 		.4byte	0x24b1
 7895 24f6 00       		.byte	0
 7896 24f7 0A       		.uleb128 0xa
 7897 24f8 5E140000 		.4byte	.LASF437
 7898 24fc 2B       		.byte	0x2b
 7899 24fd 4301     		.2byte	0x143
 7900 24ff 8F240000 		.4byte	0x248f
 7901 2503 04       		.byte	0x4
 7902 2504 00       		.byte	0
 7903 2505 1A       		.uleb128 0x1a
 7904 2506 220C0000 		.4byte	.LASF498
 7905 250a 2B       		.byte	0x2b
 7906 250b 4501     		.2byte	0x145
 7907 250d E1240000 		.4byte	0x24e1
 7908 2511 19       		.uleb128 0x19
 7909 2512 34       		.byte	0x34
 7910 2513 2B       		.byte	0x2b
 7911 2514 4A01     		.2byte	0x14a
 7912 2516 69250000 		.4byte	0x2569
 7913 251a 0A       		.uleb128 0xa
 7914 251b 6D200000 		.4byte	.LASF436
 7915 251f 2B       		.byte	0x2b
 7916 2520 5001     		.2byte	0x150
 7917 2522 F5000000 		.4byte	0xf5
 7918 2526 00       		.byte	0
 7919 2527 0A       		.uleb128 0xa
 7920 2528 5F110000 		.4byte	.LASF491
 7921 252c 2B       		.byte	0x2b
 7922 252d 5601     		.2byte	0x156
 7923 252f D5240000 		.4byte	0x24d5
 7924 2533 04       		.byte	0x4
 7925 2534 0A       		.uleb128 0xa
 7926 2535 5E140000 		.4byte	.LASF437
 7927 2539 2B       		.byte	0x2b
 7928 253a 5C01     		.2byte	0x15c
 7929 253c 8F240000 		.4byte	0x248f
 7930 2540 08       		.byte	0x8
 7931 2541 0A       		.uleb128 0xa
 7932 2542 BC1D0000 		.4byte	.LASF413
 7933 2546 2B       		.byte	0x2b
 7934 2547 6001     		.2byte	0x160
 7935 2549 69250000 		.4byte	0x2569
 7936 254d 0C       		.byte	0xc
 7937 254e 09       		.uleb128 0x9
 7938 254f 63723200 		.ascii	"cr2\000"
 7939 2553 2B       		.byte	0x2b
 7940 2554 6601     		.2byte	0x166
 7941 2556 F5000000 		.4byte	0xf5
 7942 255a 2C       		.byte	0x2c
 7943 255b 0A       		.uleb128 0xa
 7944 255c EA0A0000 		.4byte	.LASF438
 7945 2560 2B       		.byte	0x2b
 7946 2561 7301     		.2byte	0x173
ARM GAS  /var/folders/j2/t8glr22d56s93xphj_30s8g80000gn/T//cc8l81ic.s 			page 141


 7947 2563 F5000000 		.4byte	0xf5
 7948 2567 30       		.byte	0x30
 7949 2568 00       		.byte	0
 7950 2569 13       		.uleb128 0x13
 7951 256a 05250000 		.4byte	0x2505
 7952 256e 79250000 		.4byte	0x2579
 7953 2572 14       		.uleb128 0x14
 7954 2573 37000000 		.4byte	0x37
 7955 2577 03       		.byte	0x3
 7956 2578 00       		.byte	0
 7957 2579 1A       		.uleb128 0x1a
 7958 257a 730A0000 		.4byte	.LASF499
 7959 257e 2B       		.byte	0x2b
 7960 257f 7401     		.2byte	0x174
 7961 2581 11250000 		.4byte	0x2511
 7962 2585 05       		.uleb128 0x5
 7963 2586 79250000 		.4byte	0x2579
 7964 258a 0B       		.uleb128 0xb
 7965 258b 04       		.byte	0x4
 7966 258c 85250000 		.4byte	0x2585
 7967 2590 15       		.uleb128 0x15
 7968 2591 72100000 		.4byte	.LASF500
 7969 2595 2B       		.byte	0x2b
 7970 2596 BC01     		.2byte	0x1bc
 7971 2598 1B240000 		.4byte	0x241b
 7972 259c 15       		.uleb128 0x15
 7973 259d 78100000 		.4byte	.LASF501
 7974 25a1 2B       		.byte	0x2b
 7975 25a2 C001     		.2byte	0x1c0
 7976 25a4 1B240000 		.4byte	0x241b
 7977 25a8 15       		.uleb128 0x15
 7978 25a9 7E100000 		.4byte	.LASF502
 7979 25ad 2B       		.byte	0x2b
 7980 25ae C401     		.2byte	0x1c4
 7981 25b0 1B240000 		.4byte	0x241b
 7982 25b4 15       		.uleb128 0x15
 7983 25b5 84100000 		.4byte	.LASF503
 7984 25b9 2B       		.byte	0x2b
 7985 25ba C801     		.2byte	0x1c8
 7986 25bc 1B240000 		.4byte	0x241b
 7987 25c0 21       		.uleb128 0x21
 7988 25c1 07       		.byte	0x7
 7989 25c2 01       		.byte	0x1
 7990 25c3 5E000000 		.4byte	0x5e
 7991 25c7 2C       		.byte	0x2c
 7992 25c8 55       		.byte	0x55
 7993 25c9 E0250000 		.4byte	0x25e0
 7994 25cd 22       		.uleb128 0x22
 7995 25ce BA050000 		.4byte	.LASF504
 7996 25d2 00       		.byte	0
 7997 25d3 22       		.uleb128 0x22
 7998 25d4 C30B0000 		.4byte	.LASF505
 7999 25d8 01       		.byte	0x1
 8000 25d9 22       		.uleb128 0x22
 8001 25da 6A0D0000 		.4byte	.LASF506
 8002 25de 02       		.byte	0x2
 8003 25df 00       		.byte	0
ARM GAS  /var/folders/j2/t8glr22d56s93xphj_30s8g80000gn/T//cc8l81ic.s 			page 142


 8004 25e0 03       		.uleb128 0x3
 8005 25e1 45160000 		.4byte	.LASF507
 8006 25e5 2C       		.byte	0x2c
 8007 25e6 59       		.byte	0x59
 8008 25e7 C0250000 		.4byte	0x25c0
 8009 25eb 03       		.uleb128 0x3
 8010 25ec DC1D0000 		.4byte	.LASF508
 8011 25f0 2C       		.byte	0x2c
 8012 25f1 5E       		.byte	0x5e
 8013 25f2 F6250000 		.4byte	0x25f6
 8014 25f6 07       		.uleb128 0x7
 8015 25f7 DC1D0000 		.4byte	.LASF508
 8016 25fb 78       		.byte	0x78
 8017 25fc 2C       		.byte	0x2c
 8018 25fd 78       		.byte	0x78
 8019 25fe 61260000 		.4byte	0x2661
 8020 2602 18       		.uleb128 0x18
 8021 2603 766D7400 		.ascii	"vmt\000"
 8022 2607 2C       		.byte	0x2c
 8023 2608 7A       		.byte	0x7a
 8024 2609 DF260000 		.4byte	0x26df
 8025 260d 00       		.byte	0
 8026 260e 08       		.uleb128 0x8
 8027 260f 32000000 		.4byte	.LASF509
 8028 2613 2C       		.byte	0x2c
 8029 2614 7B       		.byte	0x7b
 8030 2615 2B120000 		.4byte	0x122b
 8031 2619 04       		.byte	0x4
 8032 261a 08       		.uleb128 0x8
 8033 261b F1130000 		.4byte	.LASF332
 8034 261f 2C       		.byte	0x2c
 8035 2620 7B       		.byte	0x7b
 8036 2621 E0250000 		.4byte	0x25e0
 8037 2625 08       		.byte	0x8
 8038 2626 08       		.uleb128 0x8
 8039 2627 26160000 		.4byte	.LASF510
 8040 262b 2C       		.byte	0x2c
 8041 262c 7B       		.byte	0x7b
 8042 262d D6120000 		.4byte	0x12d6
 8043 2631 0C       		.byte	0xc
 8044 2632 08       		.uleb128 0x8
 8045 2633 8A100000 		.4byte	.LASF511
 8046 2637 2C       		.byte	0x2c
 8047 2638 7B       		.byte	0x7b
 8048 2639 E1120000 		.4byte	0x12e1
 8049 263d 30       		.byte	0x30
 8050 263e 18       		.uleb128 0x18
 8051 263f 696200   		.ascii	"ib\000"
 8052 2642 2C       		.byte	0x2c
 8053 2643 7B       		.byte	0x7b
 8054 2644 E5260000 		.4byte	0x26e5
 8055 2648 54       		.byte	0x54
 8056 2649 18       		.uleb128 0x18
 8057 264a 6F6200   		.ascii	"ob\000"
 8058 264d 2C       		.byte	0x2c
 8059 264e 7B       		.byte	0x7b
 8060 264f E5260000 		.4byte	0x26e5
ARM GAS  /var/folders/j2/t8glr22d56s93xphj_30s8g80000gn/T//cc8l81ic.s 			page 143


 8061 2653 64       		.byte	0x64
 8062 2654 08       		.uleb128 0x8
 8063 2655 ED170000 		.4byte	.LASF512
 8064 2659 2C       		.byte	0x2c
 8065 265a 7B       		.byte	0x7b
 8066 265b F5260000 		.4byte	0x26f5
 8067 265f 74       		.byte	0x74
 8068 2660 00       		.byte	0
 8069 2661 1F       		.uleb128 0x1f
 8070 2662 53443300 		.ascii	"SD3\000"
 8071 2666 2D       		.byte	0x2d
 8072 2667 1501     		.2byte	0x115
 8073 2669 EB250000 		.4byte	0x25eb
 8074 266d 07       		.uleb128 0x7
 8075 266e 150D0000 		.4byte	.LASF513
 8076 2672 20       		.byte	0x20
 8077 2673 2C       		.byte	0x2c
 8078 2674 6D       		.byte	0x6d
 8079 2675 DA260000 		.4byte	0x26da
 8080 2679 08       		.uleb128 0x8
 8081 267a 20160000 		.4byte	.LASF514
 8082 267e 2C       		.byte	0x2c
 8083 267f 6E       		.byte	0x6e
 8084 2680 0B130000 		.4byte	0x130b
 8085 2684 00       		.byte	0
 8086 2685 08       		.uleb128 0x8
 8087 2686 C8030000 		.4byte	.LASF515
 8088 268a 2C       		.byte	0x2c
 8089 268b 6E       		.byte	0x6e
 8090 268c 2A130000 		.4byte	0x132a
 8091 2690 04       		.byte	0x4
 8092 2691 18       		.uleb128 0x18
 8093 2692 70757400 		.ascii	"put\000"
 8094 2696 2C       		.byte	0x2c
 8095 2697 6E       		.byte	0x6e
 8096 2698 44130000 		.4byte	0x1344
 8097 269c 08       		.byte	0x8
 8098 269d 18       		.uleb128 0x18
 8099 269e 67657400 		.ascii	"get\000"
 8100 26a2 2C       		.byte	0x2c
 8101 26a3 6E       		.byte	0x6e
 8102 26a4 59130000 		.4byte	0x1359
 8103 26a8 0C       		.byte	0xc
 8104 26a9 08       		.uleb128 0x8
 8105 26aa 32120000 		.4byte	.LASF516
 8106 26ae 2C       		.byte	0x2c
 8107 26af 6E       		.byte	0x6e
 8108 26b0 FA130000 		.4byte	0x13fa
 8109 26b4 10       		.byte	0x10
 8110 26b5 08       		.uleb128 0x8
 8111 26b6 05160000 		.4byte	.LASF517
 8112 26ba 2C       		.byte	0x2c
 8113 26bb 6E       		.byte	0x6e
 8114 26bc 14140000 		.4byte	0x1414
 8115 26c0 14       		.byte	0x14
 8116 26c1 08       		.uleb128 0x8
 8117 26c2 A81E0000 		.4byte	.LASF518
ARM GAS  /var/folders/j2/t8glr22d56s93xphj_30s8g80000gn/T//cc8l81ic.s 			page 144


 8118 26c6 2C       		.byte	0x2c
 8119 26c7 6E       		.byte	0x6e
 8120 26c8 38140000 		.4byte	0x1438
 8121 26cc 18       		.byte	0x18
 8122 26cd 08       		.uleb128 0x8
 8123 26ce 89110000 		.4byte	.LASF519
 8124 26d2 2C       		.byte	0x2c
 8125 26d3 6E       		.byte	0x6e
 8126 26d4 5C140000 		.4byte	0x145c
 8127 26d8 1C       		.byte	0x1c
 8128 26d9 00       		.byte	0
 8129 26da 05       		.uleb128 0x5
 8130 26db 6D260000 		.4byte	0x266d
 8131 26df 0B       		.uleb128 0xb
 8132 26e0 04       		.byte	0x4
 8133 26e1 DA260000 		.4byte	0x26da
 8134 26e5 13       		.uleb128 0x13
 8135 26e6 BF000000 		.4byte	0xbf
 8136 26ea F5260000 		.4byte	0x26f5
 8137 26ee 14       		.uleb128 0x14
 8138 26ef 37000000 		.4byte	0x37
 8139 26f3 0F       		.byte	0xf
 8140 26f4 00       		.byte	0
 8141 26f5 0B       		.uleb128 0xb
 8142 26f6 04       		.byte	0x4
 8143 26f7 B00C0000 		.4byte	0xcb0
 8144 26fb 21       		.uleb128 0x21
 8145 26fc 07       		.byte	0x7
 8146 26fd 01       		.byte	0x1
 8147 26fe 5E000000 		.4byte	0x5e
 8148 2702 2E       		.byte	0x2e
 8149 2703 6C       		.byte	0x6c
 8150 2704 1B270000 		.4byte	0x271b
 8151 2708 22       		.uleb128 0x22
 8152 2709 83020000 		.4byte	.LASF520
 8153 270d 00       		.byte	0
 8154 270e 22       		.uleb128 0x22
 8155 270f 56130000 		.4byte	.LASF521
 8156 2713 01       		.byte	0x1
 8157 2714 22       		.uleb128 0x22
 8158 2715 2C110000 		.4byte	.LASF522
 8159 2719 02       		.byte	0x2
 8160 271a 00       		.byte	0
 8161 271b 03       		.uleb128 0x3
 8162 271c AA180000 		.4byte	.LASF523
 8163 2720 2E       		.byte	0x2e
 8164 2721 70       		.byte	0x70
 8165 2722 FB260000 		.4byte	0x26fb
 8166 2726 03       		.uleb128 0x3
 8167 2727 10180000 		.4byte	.LASF524
 8168 272b 2F       		.byte	0x2f
 8169 272c BF       		.byte	0xbf
 8170 272d F5000000 		.4byte	0xf5
 8171 2731 03       		.uleb128 0x3
 8172 2732 B8150000 		.4byte	.LASF525
 8173 2736 2F       		.byte	0x2f
 8174 2737 C4       		.byte	0xc4
ARM GAS  /var/folders/j2/t8glr22d56s93xphj_30s8g80000gn/T//cc8l81ic.s 			page 145


 8175 2738 F5000000 		.4byte	0xf5
 8176 273c 03       		.uleb128 0x3
 8177 273d CB1D0000 		.4byte	.LASF526
 8178 2741 2F       		.byte	0x2f
 8179 2742 C9       		.byte	0xc9
 8180 2743 47270000 		.4byte	0x2747
 8181 2747 07       		.uleb128 0x7
 8182 2748 CB1D0000 		.4byte	.LASF526
 8183 274c 4C       		.byte	0x4c
 8184 274d 2F       		.byte	0x2f
 8185 274e F2       		.byte	0xf2
 8186 274f F6270000 		.4byte	0x27f6
 8187 2753 18       		.uleb128 0x18
 8188 2754 766D7400 		.ascii	"vmt\000"
 8189 2758 2F       		.byte	0x2f
 8190 2759 F6       		.byte	0xf6
 8191 275a 99280000 		.4byte	0x2899
 8192 275e 00       		.byte	0
 8193 275f 08       		.uleb128 0x8
 8194 2760 F1130000 		.4byte	.LASF332
 8195 2764 2F       		.byte	0x2f
 8196 2765 F7       		.byte	0xf7
 8197 2766 A6140000 		.4byte	0x14a6
 8198 276a 04       		.byte	0x4
 8199 276b 18       		.uleb128 0x18
 8200 276c 63696400 		.ascii	"cid\000"
 8201 2770 2F       		.byte	0x2f
 8202 2771 F7       		.byte	0xf7
 8203 2772 61150000 		.4byte	0x1561
 8204 2776 08       		.byte	0x8
 8205 2777 18       		.uleb128 0x18
 8206 2778 63736400 		.ascii	"csd\000"
 8207 277c 2F       		.byte	0x2f
 8208 277d F7       		.byte	0xf7
 8209 277e 61150000 		.4byte	0x1561
 8210 2782 18       		.byte	0x18
 8211 2783 08       		.uleb128 0x8
 8212 2784 E0190000 		.4byte	.LASF527
 8213 2788 2F       		.byte	0x2f
 8214 2789 F7       		.byte	0xf7
 8215 278a F5000000 		.4byte	0xf5
 8216 278e 28       		.byte	0x28
 8217 278f 08       		.uleb128 0x8
 8218 2790 51190000 		.4byte	.LASF333
 8219 2794 2F       		.byte	0x2f
 8220 2795 FB       		.byte	0xfb
 8221 2796 9F280000 		.4byte	0x289f
 8222 279a 2C       		.byte	0x2c
 8223 279b 08       		.uleb128 0x8
 8224 279c F0120000 		.4byte	.LASF528
 8225 27a0 2F       		.byte	0x2f
 8226 27a1 FF       		.byte	0xff
 8227 27a2 26270000 		.4byte	0x2726
 8228 27a6 30       		.byte	0x30
 8229 27a7 0A       		.uleb128 0xa
 8230 27a8 F7000000 		.4byte	.LASF464
 8231 27ac 2F       		.byte	0x2f
ARM GAS  /var/folders/j2/t8glr22d56s93xphj_30s8g80000gn/T//cc8l81ic.s 			page 146


 8232 27ad 0301     		.2byte	0x103
 8233 27af 31270000 		.4byte	0x2731
 8234 27b3 34       		.byte	0x34
 8235 27b4 09       		.uleb128 0x9
 8236 27b5 72636100 		.ascii	"rca\000"
 8237 27b9 2F       		.byte	0x2f
 8238 27ba 0701     		.2byte	0x107
 8239 27bc F5000000 		.4byte	0xf5
 8240 27c0 38       		.byte	0x38
 8241 27c1 0A       		.uleb128 0xa
 8242 27c2 30060000 		.4byte	.LASF337
 8243 27c6 2F       		.byte	0x2f
 8244 27c7 0C01     		.2byte	0x10c
 8245 27c9 D2020000 		.4byte	0x2d2
 8246 27cd 3C       		.byte	0x3c
 8247 27ce 0A       		.uleb128 0xa
 8248 27cf EC150000 		.4byte	.LASF340
 8249 27d3 2F       		.byte	0x2f
 8250 27d4 1001     		.2byte	0x110
 8251 27d6 F5000000 		.4byte	0xf5
 8252 27da 40       		.byte	0x40
 8253 27db 09       		.uleb128 0x9
 8254 27dc 646D6100 		.ascii	"dma\000"
 8255 27e0 2F       		.byte	0x2f
 8256 27e1 1401     		.2byte	0x114
 8257 27e3 B2190000 		.4byte	0x19b2
 8258 27e7 44       		.byte	0x44
 8259 27e8 0A       		.uleb128 0xa
 8260 27e9 09140000 		.4byte	.LASF529
 8261 27ed 2F       		.byte	0x2f
 8262 27ee 1901     		.2byte	0x119
 8263 27f0 A5280000 		.4byte	0x28a5
 8264 27f4 48       		.byte	0x48
 8265 27f5 00       		.byte	0
 8266 27f6 17       		.uleb128 0x17
 8267 27f7 08       		.byte	0x8
 8268 27f8 2F       		.byte	0x2f
 8269 27f9 CF       		.byte	0xcf
 8270 27fa 17280000 		.4byte	0x2817
 8271 27fe 08       		.uleb128 0x8
 8272 27ff 720C0000 		.4byte	.LASF530
 8273 2803 2F       		.byte	0x2f
 8274 2804 D8       		.byte	0xd8
 8275 2805 D0120000 		.4byte	0x12d0
 8276 2809 00       		.byte	0
 8277 280a 08       		.uleb128 0x8
 8278 280b 5E1F0000 		.4byte	.LASF531
 8279 280f 2F       		.byte	0x2f
 8280 2810 DC       		.byte	0xdc
 8281 2811 1B270000 		.4byte	0x271b
 8282 2815 04       		.byte	0x4
 8283 2816 00       		.byte	0
 8284 2817 03       		.uleb128 0x3
 8285 2818 B1130000 		.4byte	.LASF532
 8286 281c 2F       		.byte	0x2f
 8287 281d DE       		.byte	0xde
 8288 281e F6270000 		.4byte	0x27f6
ARM GAS  /var/folders/j2/t8glr22d56s93xphj_30s8g80000gn/T//cc8l81ic.s 			page 147


 8289 2822 05       		.uleb128 0x5
 8290 2823 17280000 		.4byte	0x2817
 8291 2827 07       		.uleb128 0x7
 8292 2828 741F0000 		.4byte	.LASF533
 8293 282c 20       		.byte	0x20
 8294 282d 2F       		.byte	0x2f
 8295 282e EB       		.byte	0xeb
 8296 282f 94280000 		.4byte	0x2894
 8297 2833 08       		.uleb128 0x8
 8298 2834 FD210000 		.4byte	.LASF534
 8299 2838 2F       		.byte	0x2f
 8300 2839 EC       		.byte	0xec
 8301 283a F3140000 		.4byte	0x14f3
 8302 283e 00       		.byte	0
 8303 283f 08       		.uleb128 0x8
 8304 2840 EF0A0000 		.4byte	.LASF535
 8305 2844 2F       		.byte	0x2f
 8306 2845 EC       		.byte	0xec
 8307 2846 F3140000 		.4byte	0x14f3
 8308 284a 04       		.byte	0x4
 8309 284b 08       		.uleb128 0x8
 8310 284c 330D0000 		.4byte	.LASF536
 8311 2850 2F       		.byte	0x2f
 8312 2851 EC       		.byte	0xec
 8313 2852 F3140000 		.4byte	0x14f3
 8314 2856 08       		.byte	0x8
 8315 2857 08       		.uleb128 0x8
 8316 2858 27120000 		.4byte	.LASF537
 8317 285c 2F       		.byte	0x2f
 8318 285d EC       		.byte	0xec
 8319 285e F3140000 		.4byte	0x14f3
 8320 2862 0C       		.byte	0xc
 8321 2863 08       		.uleb128 0x8
 8322 2864 C8030000 		.4byte	.LASF515
 8323 2868 2F       		.byte	0x2f
 8324 2869 EC       		.byte	0xec
 8325 286a 17150000 		.4byte	0x1517
 8326 286e 10       		.byte	0x10
 8327 286f 08       		.uleb128 0x8
 8328 2870 20160000 		.4byte	.LASF514
 8329 2874 2F       		.byte	0x2f
 8330 2875 EC       		.byte	0xec
 8331 2876 3B150000 		.4byte	0x153b
 8332 287a 14       		.byte	0x14
 8333 287b 08       		.uleb128 0x8
 8334 287c E8170000 		.4byte	.LASF538
 8335 2880 2F       		.byte	0x2f
 8336 2881 EC       		.byte	0xec
 8337 2882 F3140000 		.4byte	0x14f3
 8338 2886 18       		.byte	0x18
 8339 2887 08       		.uleb128 0x8
 8340 2888 081F0000 		.4byte	.LASF539
 8341 288c 2F       		.byte	0x2f
 8342 288d EC       		.byte	0xec
 8343 288e 5B150000 		.4byte	0x155b
 8344 2892 1C       		.byte	0x1c
 8345 2893 00       		.byte	0
ARM GAS  /var/folders/j2/t8glr22d56s93xphj_30s8g80000gn/T//cc8l81ic.s 			page 148


 8346 2894 05       		.uleb128 0x5
 8347 2895 27280000 		.4byte	0x2827
 8348 2899 0B       		.uleb128 0xb
 8349 289a 04       		.byte	0x4
 8350 289b 94280000 		.4byte	0x2894
 8351 289f 0B       		.uleb128 0xb
 8352 28a0 04       		.byte	0x4
 8353 28a1 22280000 		.4byte	0x2822
 8354 28a5 0B       		.uleb128 0xb
 8355 28a6 04       		.byte	0x4
 8356 28a7 B80B0000 		.4byte	0xbb8
 8357 28ab 15       		.uleb128 0x15
 8358 28ac FD080000 		.4byte	.LASF540
 8359 28b0 2F       		.byte	0x2f
 8360 28b1 2501     		.2byte	0x125
 8361 28b3 3C270000 		.4byte	0x273c
 8362 28b7 21       		.uleb128 0x21
 8363 28b8 07       		.byte	0x7
 8364 28b9 01       		.byte	0x1
 8365 28ba 5E000000 		.4byte	0x5e
 8366 28be 30       		.byte	0x30
 8367 28bf 46       		.byte	0x46
 8368 28c0 E3280000 		.4byte	0x28e3
 8369 28c4 22       		.uleb128 0x22
 8370 28c5 46060000 		.4byte	.LASF541
 8371 28c9 00       		.byte	0
 8372 28ca 22       		.uleb128 0x22
 8373 28cb 32020000 		.4byte	.LASF542
 8374 28cf 01       		.byte	0x1
 8375 28d0 22       		.uleb128 0x22
 8376 28d1 3B1F0000 		.4byte	.LASF543
 8377 28d5 02       		.byte	0x2
 8378 28d6 22       		.uleb128 0x22
 8379 28d7 C30C0000 		.4byte	.LASF544
 8380 28db 03       		.byte	0x3
 8381 28dc 22       		.uleb128 0x22
 8382 28dd BA110000 		.4byte	.LASF545
 8383 28e1 04       		.byte	0x4
 8384 28e2 00       		.byte	0
 8385 28e3 03       		.uleb128 0x3
 8386 28e4 920C0000 		.4byte	.LASF546
 8387 28e8 30       		.byte	0x30
 8388 28e9 4C       		.byte	0x4c
 8389 28ea B7280000 		.4byte	0x28b7
 8390 28ee 1A       		.uleb128 0x1a
 8391 28ef 701D0000 		.4byte	.LASF547
 8392 28f3 31       		.byte	0x31
 8393 28f4 9601     		.2byte	0x196
 8394 28f6 FA280000 		.4byte	0x28fa
 8395 28fa 0C       		.uleb128 0xc
 8396 28fb 701D0000 		.4byte	.LASF547
 8397 28ff 34       		.byte	0x34
 8398 2900 31       		.byte	0x31
 8399 2901 BA01     		.2byte	0x1ba
 8400 2903 7D290000 		.4byte	0x297d
 8401 2907 0A       		.uleb128 0xa
 8402 2908 F1130000 		.4byte	.LASF332
ARM GAS  /var/folders/j2/t8glr22d56s93xphj_30s8g80000gn/T//cc8l81ic.s 			page 149


 8403 290c 31       		.byte	0x31
 8404 290d BE01     		.2byte	0x1be
 8405 290f E3280000 		.4byte	0x28e3
 8406 2913 00       		.byte	0
 8407 2914 0A       		.uleb128 0xa
 8408 2915 51190000 		.4byte	.LASF333
 8409 2919 31       		.byte	0x31
 8410 291a C201     		.2byte	0x1c2
 8411 291c EF290000 		.4byte	0x29ef
 8412 2920 04       		.byte	0x4
 8413 2921 0A       		.uleb128 0xa
 8414 2922 30060000 		.4byte	.LASF337
 8415 2926 31       		.byte	0x31
 8416 2927 C701     		.2byte	0x1c7
 8417 2929 D2020000 		.4byte	0x2d2
 8418 292d 08       		.byte	0x8
 8419 292e 0A       		.uleb128 0xa
 8420 292f 5D0B0000 		.4byte	.LASF338
 8421 2933 31       		.byte	0x31
 8422 2934 CD01     		.2byte	0x1cd
 8423 2936 A7110000 		.4byte	0x11a7
 8424 293a 0C       		.byte	0xc
 8425 293b 09       		.uleb128 0x9
 8426 293c 73706900 		.ascii	"spi\000"
 8427 2940 31       		.byte	0x31
 8428 2941 D601     		.2byte	0x1d6
 8429 2943 DE230000 		.4byte	0x23de
 8430 2947 20       		.byte	0x20
 8431 2948 0A       		.uleb128 0xa
 8432 2949 CD000000 		.4byte	.LASF468
 8433 294d 31       		.byte	0x31
 8434 294e DA01     		.2byte	0x1da
 8435 2950 B2190000 		.4byte	0x19b2
 8436 2954 24       		.byte	0x24
 8437 2955 0A       		.uleb128 0xa
 8438 2956 99010000 		.4byte	.LASF469
 8439 295a 31       		.byte	0x31
 8440 295b DE01     		.2byte	0x1de
 8441 295d B2190000 		.4byte	0x19b2
 8442 2961 28       		.byte	0x28
 8443 2962 0A       		.uleb128 0xa
 8444 2963 70070000 		.4byte	.LASF466
 8445 2967 31       		.byte	0x31
 8446 2968 E201     		.2byte	0x1e2
 8447 296a F5000000 		.4byte	0xf5
 8448 296e 2C       		.byte	0x2c
 8449 296f 0A       		.uleb128 0xa
 8450 2970 E5070000 		.4byte	.LASF467
 8451 2974 31       		.byte	0x31
 8452 2975 E601     		.2byte	0x1e6
 8453 2977 F5000000 		.4byte	0xf5
 8454 297b 30       		.byte	0x30
 8455 297c 00       		.byte	0
 8456 297d 1A       		.uleb128 0x1a
 8457 297e 72130000 		.4byte	.LASF548
 8458 2982 31       		.byte	0x31
 8459 2983 9E01     		.2byte	0x19e
ARM GAS  /var/folders/j2/t8glr22d56s93xphj_30s8g80000gn/T//cc8l81ic.s 			page 150


 8460 2985 89290000 		.4byte	0x2989
 8461 2989 0B       		.uleb128 0xb
 8462 298a 04       		.byte	0x4
 8463 298b 8F290000 		.4byte	0x298f
 8464 298f 0D       		.uleb128 0xd
 8465 2990 9A290000 		.4byte	0x299a
 8466 2994 0E       		.uleb128 0xe
 8467 2995 9A290000 		.4byte	0x299a
 8468 2999 00       		.byte	0
 8469 299a 0B       		.uleb128 0xb
 8470 299b 04       		.byte	0x4
 8471 299c EE280000 		.4byte	0x28ee
 8472 29a0 19       		.uleb128 0x19
 8473 29a1 0C       		.byte	0xc
 8474 29a2 31       		.byte	0x31
 8475 29a3 A301     		.2byte	0x1a3
 8476 29a5 DE290000 		.4byte	0x29de
 8477 29a9 0A       		.uleb128 0xa
 8478 29aa 42080000 		.4byte	.LASF345
 8479 29ae 31       		.byte	0x31
 8480 29af A701     		.2byte	0x1a7
 8481 29b1 7D290000 		.4byte	0x297d
 8482 29b5 00       		.byte	0
 8483 29b6 0A       		.uleb128 0xa
 8484 29b7 10200000 		.4byte	.LASF549
 8485 29bb 31       		.byte	0x31
 8486 29bc AC01     		.2byte	0x1ac
 8487 29be 43170000 		.4byte	0x1743
 8488 29c2 04       		.byte	0x4
 8489 29c3 0A       		.uleb128 0xa
 8490 29c4 970B0000 		.4byte	.LASF550
 8491 29c8 31       		.byte	0x31
 8492 29c9 B001     		.2byte	0x1b0
 8493 29cb DA000000 		.4byte	0xda
 8494 29cf 08       		.byte	0x8
 8495 29d0 09       		.uleb128 0x9
 8496 29d1 63723100 		.ascii	"cr1\000"
 8497 29d5 31       		.byte	0x31
 8498 29d6 B401     		.2byte	0x1b4
 8499 29d8 DA000000 		.4byte	0xda
 8500 29dc 0A       		.byte	0xa
 8501 29dd 00       		.byte	0
 8502 29de 1A       		.uleb128 0x1a
 8503 29df 801D0000 		.4byte	.LASF551
 8504 29e3 31       		.byte	0x31
 8505 29e4 B501     		.2byte	0x1b5
 8506 29e6 A0290000 		.4byte	0x29a0
 8507 29ea 05       		.uleb128 0x5
 8508 29eb DE290000 		.4byte	0x29de
 8509 29ef 0B       		.uleb128 0xb
 8510 29f0 04       		.byte	0x4
 8511 29f1 EA290000 		.4byte	0x29ea
 8512 29f5 15       		.uleb128 0x15
 8513 29f6 FF150000 		.4byte	.LASF552
 8514 29fa 31       		.byte	0x31
 8515 29fb F201     		.2byte	0x1f2
 8516 29fd EE280000 		.4byte	0x28ee
ARM GAS  /var/folders/j2/t8glr22d56s93xphj_30s8g80000gn/T//cc8l81ic.s 			page 151


 8517 2a01 03       		.uleb128 0x3
 8518 2a02 4E100000 		.4byte	.LASF553
 8519 2a06 32       		.byte	0x32
 8520 2a07 FA       		.byte	0xfa
 8521 2a08 0C2A0000 		.4byte	0x2a0c
 8522 2a0c 10       		.uleb128 0x10
 8523 2a0d 4E100000 		.4byte	.LASF553
 8524 2a11 6002     		.2byte	0x260
 8525 2a13 33       		.byte	0x33
 8526 2a14 7701     		.2byte	0x177
 8527 2a16 382B0000 		.4byte	0x2b38
 8528 2a1a 0A       		.uleb128 0xa
 8529 2a1b F1130000 		.4byte	.LASF332
 8530 2a1f 33       		.byte	0x33
 8531 2a20 7B01     		.2byte	0x17b
 8532 2a22 702B0000 		.4byte	0x2b70
 8533 2a26 00       		.byte	0
 8534 2a27 0A       		.uleb128 0xa
 8535 2a28 51190000 		.4byte	.LASF333
 8536 2a2c 33       		.byte	0x33
 8537 2a2d 7F01     		.2byte	0x17f
 8538 2a2f 93340000 		.4byte	0x3493
 8539 2a33 04       		.byte	0x4
 8540 2a34 0A       		.uleb128 0xa
 8541 2a35 A31D0000 		.4byte	.LASF554
 8542 2a39 33       		.byte	0x33
 8543 2a3a 8301     		.2byte	0x183
 8544 2a3c DA000000 		.4byte	0xda
 8545 2a40 08       		.byte	0x8
 8546 2a41 0A       		.uleb128 0xa
 8547 2a42 4B200000 		.4byte	.LASF555
 8548 2a46 33       		.byte	0x33
 8549 2a47 8701     		.2byte	0x187
 8550 2a49 DA000000 		.4byte	0xda
 8551 2a4d 0A       		.byte	0xa
 8552 2a4e 09       		.uleb128 0x9
 8553 2a4f 65706300 		.ascii	"epc\000"
 8554 2a53 33       		.byte	0x33
 8555 2a54 8B01     		.2byte	0x18b
 8556 2a56 99340000 		.4byte	0x3499
 8557 2a5a 0C       		.byte	0xc
 8558 2a5b 0A       		.uleb128 0xa
 8559 2a5c 62060000 		.4byte	.LASF556
 8560 2a60 33       		.byte	0x33
 8561 2a61 9201     		.2byte	0x192
 8562 2a63 AF340000 		.4byte	0x34af
 8563 2a67 1C       		.byte	0x1c
 8564 2a68 0A       		.uleb128 0xa
 8565 2a69 D00A0000 		.4byte	.LASF557
 8566 2a6d 33       		.byte	0x33
 8567 2a6e 9901     		.2byte	0x199
 8568 2a70 AF340000 		.4byte	0x34af
 8569 2a74 28       		.byte	0x28
 8570 2a75 0A       		.uleb128 0xa
 8571 2a76 EF0E0000 		.4byte	.LASF558
 8572 2a7a 33       		.byte	0x33
 8573 2a7b 9D01     		.2byte	0x19d
ARM GAS  /var/folders/j2/t8glr22d56s93xphj_30s8g80000gn/T//cc8l81ic.s 			page 152


 8574 2a7d B52B0000 		.4byte	0x2bb5
 8575 2a81 34       		.byte	0x34
 8576 2a82 0A       		.uleb128 0xa
 8577 2a83 FD180000 		.4byte	.LASF559
 8578 2a87 33       		.byte	0x33
 8579 2a88 A101     		.2byte	0x1a1
 8580 2a8a D0120000 		.4byte	0x12d0
 8581 2a8e 38       		.byte	0x38
 8582 2a8f 0A       		.uleb128 0xa
 8583 2a90 8D150000 		.4byte	.LASF560
 8584 2a94 33       		.byte	0x33
 8585 2a95 A501     		.2byte	0x1a5
 8586 2a97 2C000000 		.4byte	0x2c
 8587 2a9b 3C       		.byte	0x3c
 8588 2a9c 0A       		.uleb128 0xa
 8589 2a9d 181B0000 		.4byte	.LASF561
 8590 2aa1 33       		.byte	0x33
 8591 2aa2 A901     		.2byte	0x1a9
 8592 2aa4 352C0000 		.4byte	0x2c35
 8593 2aa8 40       		.byte	0x40
 8594 2aa9 0A       		.uleb128 0xa
 8595 2aaa 40060000 		.4byte	.LASF562
 8596 2aae 33       		.byte	0x33
 8597 2aaf AD01     		.2byte	0x1ad
 8598 2ab1 131A0000 		.4byte	0x1a13
 8599 2ab5 44       		.byte	0x44
 8600 2ab6 0A       		.uleb128 0xa
 8601 2ab7 44130000 		.4byte	.LASF563
 8602 2abb 33       		.byte	0x33
 8603 2abc B101     		.2byte	0x1b1
 8604 2abe DA000000 		.4byte	0xda
 8605 2ac2 4C       		.byte	0x4c
 8606 2ac3 0A       		.uleb128 0xa
 8607 2ac4 92130000 		.4byte	.LASF564
 8608 2ac8 33       		.byte	0x33
 8609 2ac9 B501     		.2byte	0x1b5
 8610 2acb BF000000 		.4byte	0xbf
 8611 2acf 4E       		.byte	0x4e
 8612 2ad0 0A       		.uleb128 0xa
 8613 2ad1 52180000 		.4byte	.LASF565
 8614 2ad5 33       		.byte	0x33
 8615 2ad6 B901     		.2byte	0x1b9
 8616 2ad8 BF000000 		.4byte	0xbf
 8617 2adc 4F       		.byte	0x4f
 8618 2add 09       		.uleb128 0x9
 8619 2ade 6F746700 		.ascii	"otg\000"
 8620 2ae2 33       		.byte	0x33
 8621 2ae3 C101     		.2byte	0x1c1
 8622 2ae5 BF340000 		.4byte	0x34bf
 8623 2ae9 50       		.byte	0x50
 8624 2aea 0A       		.uleb128 0xa
 8625 2aeb 590C0000 		.4byte	.LASF566
 8626 2aef 33       		.byte	0x33
 8627 2af0 C501     		.2byte	0x1c5
 8628 2af2 C5340000 		.4byte	0x34c5
 8629 2af6 54       		.byte	0x54
 8630 2af7 0A       		.uleb128 0xa
ARM GAS  /var/folders/j2/t8glr22d56s93xphj_30s8g80000gn/T//cc8l81ic.s 			page 153


 8631 2af8 F0160000 		.4byte	.LASF567
 8632 2afc 33       		.byte	0x33
 8633 2afd C901     		.2byte	0x1c9
 8634 2aff F5000000 		.4byte	0xf5
 8635 2b03 58       		.byte	0x58
 8636 2b04 0A       		.uleb128 0xa
 8637 2b05 870B0000 		.4byte	.LASF568
 8638 2b09 33       		.byte	0x33
 8639 2b0a CD01     		.2byte	0x1cd
 8640 2b0c F5000000 		.4byte	0xf5
 8641 2b10 5C       		.byte	0x5c
 8642 2b11 0A       		.uleb128 0xa
 8643 2b12 1A070000 		.4byte	.LASF569
 8644 2b16 33       		.byte	0x33
 8645 2b17 D101     		.2byte	0x1d1
 8646 2b19 D2020000 		.4byte	0x2d2
 8647 2b1d 60       		.byte	0x60
 8648 2b1e 09       		.uleb128 0x9
 8649 2b1f 747200   		.ascii	"tr\000"
 8650 2b22 33       		.byte	0x33
 8651 2b23 D601     		.2byte	0x1d6
 8652 2b25 D2020000 		.4byte	0x2d2
 8653 2b29 64       		.byte	0x64
 8654 2b2a 0A       		.uleb128 0xa
 8655 2b2b 4D120000 		.4byte	.LASF570
 8656 2b2f 33       		.byte	0x33
 8657 2b30 DA01     		.2byte	0x1da
 8658 2b32 CB340000 		.4byte	0x34cb
 8659 2b36 68       		.byte	0x68
 8660 2b37 00       		.byte	0
 8661 2b38 03       		.uleb128 0x3
 8662 2b39 B8080000 		.4byte	.LASF571
 8663 2b3d 32       		.byte	0x32
 8664 2b3e FF       		.byte	0xff
 8665 2b3f BF000000 		.4byte	0xbf
 8666 2b43 24       		.uleb128 0x24
 8667 2b44 07       		.byte	0x7
 8668 2b45 01       		.byte	0x1
 8669 2b46 5E000000 		.4byte	0x5e
 8670 2b4a 32       		.byte	0x32
 8671 2b4b 0401     		.2byte	0x104
 8672 2b4d 702B0000 		.4byte	0x2b70
 8673 2b51 22       		.uleb128 0x22
 8674 2b52 1E210000 		.4byte	.LASF572
 8675 2b56 00       		.byte	0
 8676 2b57 22       		.uleb128 0x22
 8677 2b58 00000000 		.4byte	.LASF573
 8678 2b5c 01       		.byte	0x1
 8679 2b5d 22       		.uleb128 0x22
 8680 2b5e 79110000 		.4byte	.LASF574
 8681 2b62 02       		.byte	0x2
 8682 2b63 22       		.uleb128 0x22
 8683 2b64 D1160000 		.4byte	.LASF575
 8684 2b68 03       		.byte	0x3
 8685 2b69 22       		.uleb128 0x22
 8686 2b6a 32070000 		.4byte	.LASF576
 8687 2b6e 04       		.byte	0x4
ARM GAS  /var/folders/j2/t8glr22d56s93xphj_30s8g80000gn/T//cc8l81ic.s 			page 154


 8688 2b6f 00       		.byte	0
 8689 2b70 1A       		.uleb128 0x1a
 8690 2b71 32220000 		.4byte	.LASF577
 8691 2b75 32       		.byte	0x32
 8692 2b76 0A01     		.2byte	0x10a
 8693 2b78 432B0000 		.4byte	0x2b43
 8694 2b7c 24       		.uleb128 0x24
 8695 2b7d 07       		.byte	0x7
 8696 2b7e 01       		.byte	0x1
 8697 2b7f 5E000000 		.4byte	0x5e
 8698 2b83 32       		.byte	0x32
 8699 2b84 1801     		.2byte	0x118
 8700 2b86 B52B0000 		.4byte	0x2bb5
 8701 2b8a 22       		.uleb128 0x22
 8702 2b8b E31A0000 		.4byte	.LASF578
 8703 2b8f 00       		.byte	0
 8704 2b90 22       		.uleb128 0x22
 8705 2b91 E40E0000 		.4byte	.LASF579
 8706 2b95 01       		.byte	0x1
 8707 2b96 22       		.uleb128 0x22
 8708 2b97 E9180000 		.4byte	.LASF580
 8709 2b9b 02       		.byte	0x2
 8710 2b9c 22       		.uleb128 0x22
 8711 2b9d 16140000 		.4byte	.LASF581
 8712 2ba1 03       		.byte	0x3
 8713 2ba2 22       		.uleb128 0x22
 8714 2ba3 24130000 		.4byte	.LASF582
 8715 2ba7 04       		.byte	0x4
 8716 2ba8 22       		.uleb128 0x22
 8717 2ba9 BC0F0000 		.4byte	.LASF583
 8718 2bad 05       		.byte	0x5
 8719 2bae 22       		.uleb128 0x22
 8720 2baf 250D0000 		.4byte	.LASF584
 8721 2bb3 06       		.byte	0x6
 8722 2bb4 00       		.byte	0
 8723 2bb5 1A       		.uleb128 0x1a
 8724 2bb6 F30F0000 		.4byte	.LASF585
 8725 2bba 32       		.byte	0x32
 8726 2bbb 2001     		.2byte	0x120
 8727 2bbd 7C2B0000 		.4byte	0x2b7c
 8728 2bc1 24       		.uleb128 0x24
 8729 2bc2 07       		.byte	0x7
 8730 2bc3 01       		.byte	0x1
 8731 2bc4 5E000000 		.4byte	0x5e
 8732 2bc8 32       		.byte	0x32
 8733 2bc9 2501     		.2byte	0x125
 8734 2bcb F42B0000 		.4byte	0x2bf4
 8735 2bcf 22       		.uleb128 0x22
 8736 2bd0 601A0000 		.4byte	.LASF586
 8737 2bd4 00       		.byte	0
 8738 2bd5 22       		.uleb128 0x22
 8739 2bd6 4F170000 		.4byte	.LASF587
 8740 2bda 01       		.byte	0x1
 8741 2bdb 22       		.uleb128 0x22
 8742 2bdc 12120000 		.4byte	.LASF588
 8743 2be0 02       		.byte	0x2
 8744 2be1 22       		.uleb128 0x22
ARM GAS  /var/folders/j2/t8glr22d56s93xphj_30s8g80000gn/T//cc8l81ic.s 			page 155


 8745 2be2 9A120000 		.4byte	.LASF589
 8746 2be6 03       		.byte	0x3
 8747 2be7 22       		.uleb128 0x22
 8748 2be8 971F0000 		.4byte	.LASF590
 8749 2bec 04       		.byte	0x4
 8750 2bed 22       		.uleb128 0x22
 8751 2bee D6110000 		.4byte	.LASF591
 8752 2bf2 05       		.byte	0x5
 8753 2bf3 00       		.byte	0
 8754 2bf4 1A       		.uleb128 0x1a
 8755 2bf5 9C170000 		.4byte	.LASF592
 8756 2bf9 32       		.byte	0x32
 8757 2bfa 2C01     		.2byte	0x12c
 8758 2bfc C12B0000 		.4byte	0x2bc1
 8759 2c00 19       		.uleb128 0x19
 8760 2c01 08       		.byte	0x8
 8761 2c02 32       		.byte	0x32
 8762 2c03 3101     		.2byte	0x131
 8763 2c05 242C0000 		.4byte	0x2c24
 8764 2c09 0A       		.uleb128 0xa
 8765 2c0a B9210000 		.4byte	.LASF593
 8766 2c0e 32       		.byte	0x32
 8767 2c0f 3501     		.2byte	0x135
 8768 2c11 2C000000 		.4byte	0x2c
 8769 2c15 00       		.byte	0
 8770 2c16 0A       		.uleb128 0xa
 8771 2c17 A6030000 		.4byte	.LASF594
 8772 2c1b 32       		.byte	0x32
 8773 2c1c 3901     		.2byte	0x139
 8774 2c1e 05130000 		.4byte	0x1305
 8775 2c22 04       		.byte	0x4
 8776 2c23 00       		.byte	0
 8777 2c24 1A       		.uleb128 0x1a
 8778 2c25 64130000 		.4byte	.LASF595
 8779 2c29 32       		.byte	0x32
 8780 2c2a 3A01     		.2byte	0x13a
 8781 2c2c 002C0000 		.4byte	0x2c00
 8782 2c30 05       		.uleb128 0x5
 8783 2c31 242C0000 		.4byte	0x2c24
 8784 2c35 1A       		.uleb128 0x1a
 8785 2c36 5B210000 		.4byte	.LASF596
 8786 2c3a 32       		.byte	0x32
 8787 2c3b 4201     		.2byte	0x142
 8788 2c3d 412C0000 		.4byte	0x2c41
 8789 2c41 0B       		.uleb128 0xb
 8790 2c42 04       		.byte	0x4
 8791 2c43 472C0000 		.4byte	0x2c47
 8792 2c47 0D       		.uleb128 0xd
 8793 2c48 522C0000 		.4byte	0x2c52
 8794 2c4c 0E       		.uleb128 0xe
 8795 2c4d 522C0000 		.4byte	0x2c52
 8796 2c51 00       		.byte	0
 8797 2c52 0B       		.uleb128 0xb
 8798 2c53 04       		.byte	0x4
 8799 2c54 012A0000 		.4byte	0x2a01
 8800 2c58 1A       		.uleb128 0x1a
 8801 2c59 F2030000 		.4byte	.LASF597
ARM GAS  /var/folders/j2/t8glr22d56s93xphj_30s8g80000gn/T//cc8l81ic.s 			page 156


 8802 2c5d 32       		.byte	0x32
 8803 2c5e 4B01     		.2byte	0x14b
 8804 2c60 642C0000 		.4byte	0x2c64
 8805 2c64 0B       		.uleb128 0xb
 8806 2c65 04       		.byte	0x4
 8807 2c66 6A2C0000 		.4byte	0x2c6a
 8808 2c6a 0D       		.uleb128 0xd
 8809 2c6b 7A2C0000 		.4byte	0x2c7a
 8810 2c6f 0E       		.uleb128 0xe
 8811 2c70 522C0000 		.4byte	0x2c52
 8812 2c74 0E       		.uleb128 0xe
 8813 2c75 382B0000 		.4byte	0x2b38
 8814 2c79 00       		.byte	0
 8815 2c7a 1A       		.uleb128 0x1a
 8816 2c7b DD090000 		.4byte	.LASF598
 8817 2c7f 32       		.byte	0x32
 8818 2c80 5401     		.2byte	0x154
 8819 2c82 862C0000 		.4byte	0x2c86
 8820 2c86 0B       		.uleb128 0xb
 8821 2c87 04       		.byte	0x4
 8822 2c88 8C2C0000 		.4byte	0x2c8c
 8823 2c8c 0D       		.uleb128 0xd
 8824 2c8d 9C2C0000 		.4byte	0x2c9c
 8825 2c91 0E       		.uleb128 0xe
 8826 2c92 522C0000 		.4byte	0x2c52
 8827 2c96 0E       		.uleb128 0xe
 8828 2c97 F42B0000 		.4byte	0x2bf4
 8829 2c9b 00       		.byte	0
 8830 2c9c 1A       		.uleb128 0x1a
 8831 2c9d 86050000 		.4byte	.LASF599
 8832 2ca1 32       		.byte	0x32
 8833 2ca2 6001     		.2byte	0x160
 8834 2ca4 A82C0000 		.4byte	0x2ca8
 8835 2ca8 0B       		.uleb128 0xb
 8836 2ca9 04       		.byte	0x4
 8837 2caa AE2C0000 		.4byte	0x2cae
 8838 2cae 20       		.uleb128 0x20
 8839 2caf EC140000 		.4byte	0x14ec
 8840 2cb3 BD2C0000 		.4byte	0x2cbd
 8841 2cb7 0E       		.uleb128 0xe
 8842 2cb8 522C0000 		.4byte	0x2c52
 8843 2cbc 00       		.byte	0
 8844 2cbd 1A       		.uleb128 0x1a
 8845 2cbe 730D0000 		.4byte	.LASF600
 8846 2cc2 32       		.byte	0x32
 8847 2cc3 6501     		.2byte	0x165
 8848 2cc5 C92C0000 		.4byte	0x2cc9
 8849 2cc9 0B       		.uleb128 0xb
 8850 2cca 04       		.byte	0x4
 8851 2ccb CF2C0000 		.4byte	0x2ccf
 8852 2ccf 20       		.uleb128 0x20
 8853 2cd0 ED2C0000 		.4byte	0x2ced
 8854 2cd4 ED2C0000 		.4byte	0x2ced
 8855 2cd8 0E       		.uleb128 0xe
 8856 2cd9 522C0000 		.4byte	0x2c52
 8857 2cdd 0E       		.uleb128 0xe
 8858 2cde BF000000 		.4byte	0xbf
ARM GAS  /var/folders/j2/t8glr22d56s93xphj_30s8g80000gn/T//cc8l81ic.s 			page 157


 8859 2ce2 0E       		.uleb128 0xe
 8860 2ce3 BF000000 		.4byte	0xbf
 8861 2ce7 0E       		.uleb128 0xe
 8862 2ce8 DA000000 		.4byte	0xda
 8863 2cec 00       		.byte	0
 8864 2ced 0B       		.uleb128 0xb
 8865 2cee 04       		.byte	0x4
 8866 2cef 302C0000 		.4byte	0x2c30
 8867 2cf3 17       		.uleb128 0x17
 8868 2cf4 20       		.byte	0x20
 8869 2cf5 34       		.byte	0x34
 8870 2cf6 35       		.byte	0x35
 8871 2cf7 5C2D0000 		.4byte	0x2d5c
 8872 2cfb 08       		.uleb128 0x8
 8873 2cfc 91020000 		.4byte	.LASF601
 8874 2d00 34       		.byte	0x34
 8875 2d01 36       		.byte	0x36
 8876 2d02 00010000 		.4byte	0x100
 8877 2d06 00       		.byte	0
 8878 2d07 08       		.uleb128 0x8
 8879 2d08 CB0B0000 		.4byte	.LASF602
 8880 2d0c 34       		.byte	0x34
 8881 2d0d 38       		.byte	0x38
 8882 2d0e 00010000 		.4byte	0x100
 8883 2d12 04       		.byte	0x4
 8884 2d13 08       		.uleb128 0x8
 8885 2d14 01020000 		.4byte	.LASF603
 8886 2d18 34       		.byte	0x34
 8887 2d19 39       		.byte	0x39
 8888 2d1a 00010000 		.4byte	0x100
 8889 2d1e 08       		.byte	0x8
 8890 2d1f 08       		.uleb128 0x8
 8891 2d20 48190000 		.4byte	.LASF604
 8892 2d24 34       		.byte	0x34
 8893 2d25 3A       		.byte	0x3a
 8894 2d26 00010000 		.4byte	0x100
 8895 2d2a 0C       		.byte	0xc
 8896 2d2b 08       		.uleb128 0x8
 8897 2d2c 0B120000 		.4byte	.LASF605
 8898 2d30 34       		.byte	0x34
 8899 2d31 3C       		.byte	0x3c
 8900 2d32 00010000 		.4byte	0x100
 8901 2d36 10       		.byte	0x10
 8902 2d37 08       		.uleb128 0x8
 8903 2d38 F70B0000 		.4byte	.LASF606
 8904 2d3c 34       		.byte	0x34
 8905 2d3d 3E       		.byte	0x3e
 8906 2d3e 00010000 		.4byte	0x100
 8907 2d42 14       		.byte	0x14
 8908 2d43 08       		.uleb128 0x8
 8909 2d44 FF0B0000 		.4byte	.LASF607
 8910 2d48 34       		.byte	0x34
 8911 2d49 3F       		.byte	0x3f
 8912 2d4a 00010000 		.4byte	0x100
 8913 2d4e 18       		.byte	0x18
 8914 2d4f 08       		.uleb128 0x8
 8915 2d50 31030000 		.4byte	.LASF608
ARM GAS  /var/folders/j2/t8glr22d56s93xphj_30s8g80000gn/T//cc8l81ic.s 			page 158


 8916 2d54 34       		.byte	0x34
 8917 2d55 40       		.byte	0x40
 8918 2d56 00010000 		.4byte	0x100
 8919 2d5a 1C       		.byte	0x1c
 8920 2d5b 00       		.byte	0
 8921 2d5c 03       		.uleb128 0x3
 8922 2d5d 05190000 		.4byte	.LASF609
 8923 2d61 34       		.byte	0x34
 8924 2d62 41       		.byte	0x41
 8925 2d63 F32C0000 		.4byte	0x2cf3
 8926 2d67 17       		.uleb128 0x17
 8927 2d68 20       		.byte	0x20
 8928 2d69 34       		.byte	0x34
 8929 2d6a 46       		.byte	0x46
 8930 2d6b D02D0000 		.4byte	0x2dd0
 8931 2d6f 08       		.uleb128 0x8
 8932 2d70 470C0000 		.4byte	.LASF610
 8933 2d74 34       		.byte	0x34
 8934 2d75 47       		.byte	0x47
 8935 2d76 00010000 		.4byte	0x100
 8936 2d7a 00       		.byte	0
 8937 2d7b 08       		.uleb128 0x8
 8938 2d7c 47100000 		.4byte	.LASF611
 8939 2d80 34       		.byte	0x34
 8940 2d81 49       		.byte	0x49
 8941 2d82 00010000 		.4byte	0x100
 8942 2d86 04       		.byte	0x4
 8943 2d87 08       		.uleb128 0x8
 8944 2d88 E81C0000 		.4byte	.LASF612
 8945 2d8c 34       		.byte	0x34
 8946 2d8d 4A       		.byte	0x4a
 8947 2d8e 00010000 		.4byte	0x100
 8948 2d92 08       		.byte	0x8
 8949 2d93 08       		.uleb128 0x8
 8950 2d94 6B100000 		.4byte	.LASF613
 8951 2d98 34       		.byte	0x34
 8952 2d99 4C       		.byte	0x4c
 8953 2d9a 00010000 		.4byte	0x100
 8954 2d9e 0C       		.byte	0xc
 8955 2d9f 08       		.uleb128 0x8
 8956 2da0 B5140000 		.4byte	.LASF614
 8957 2da4 34       		.byte	0x34
 8958 2da5 4D       		.byte	0x4d
 8959 2da6 00010000 		.4byte	0x100
 8960 2daa 10       		.byte	0x10
 8961 2dab 08       		.uleb128 0x8
 8962 2dac F70B0000 		.4byte	.LASF606
 8963 2db0 34       		.byte	0x34
 8964 2db1 4F       		.byte	0x4f
 8965 2db2 00010000 		.4byte	0x100
 8966 2db6 14       		.byte	0x14
 8967 2db7 08       		.uleb128 0x8
 8968 2db8 51060000 		.4byte	.LASF615
 8969 2dbc 34       		.byte	0x34
 8970 2dbd 50       		.byte	0x50
 8971 2dbe 00010000 		.4byte	0x100
 8972 2dc2 18       		.byte	0x18
ARM GAS  /var/folders/j2/t8glr22d56s93xphj_30s8g80000gn/T//cc8l81ic.s 			page 159


 8973 2dc3 08       		.uleb128 0x8
 8974 2dc4 D11C0000 		.4byte	.LASF616
 8975 2dc8 34       		.byte	0x34
 8976 2dc9 52       		.byte	0x52
 8977 2dca 00010000 		.4byte	0x100
 8978 2dce 1C       		.byte	0x1c
 8979 2dcf 00       		.byte	0
 8980 2dd0 03       		.uleb128 0x3
 8981 2dd1 4D070000 		.4byte	.LASF617
 8982 2dd5 34       		.byte	0x34
 8983 2dd6 53       		.byte	0x53
 8984 2dd7 672D0000 		.4byte	0x2d67
 8985 2ddb 17       		.uleb128 0x17
 8986 2ddc 20       		.byte	0x20
 8987 2ddd 34       		.byte	0x34
 8988 2dde 58       		.byte	0x58
 8989 2ddf 442E0000 		.4byte	0x2e44
 8990 2de3 08       		.uleb128 0x8
 8991 2de4 40190000 		.4byte	.LASF618
 8992 2de8 34       		.byte	0x34
 8993 2de9 59       		.byte	0x59
 8994 2dea 00010000 		.4byte	0x100
 8995 2dee 00       		.byte	0
 8996 2def 08       		.uleb128 0x8
 8997 2df0 47100000 		.4byte	.LASF611
 8998 2df4 34       		.byte	0x34
 8999 2df5 5B       		.byte	0x5b
 9000 2df6 00010000 		.4byte	0x100
 9001 2dfa 04       		.byte	0x4
 9002 2dfb 08       		.uleb128 0x8
 9003 2dfc 33160000 		.4byte	.LASF619
 9004 2e00 34       		.byte	0x34
 9005 2e01 5C       		.byte	0x5c
 9006 2e02 00010000 		.4byte	0x100
 9007 2e06 08       		.byte	0x8
 9008 2e07 08       		.uleb128 0x8
 9009 2e08 6B100000 		.4byte	.LASF613
 9010 2e0c 34       		.byte	0x34
 9011 2e0d 5E       		.byte	0x5e
 9012 2e0e 00010000 		.4byte	0x100
 9013 2e12 0C       		.byte	0xc
 9014 2e13 08       		.uleb128 0x8
 9015 2e14 FD1D0000 		.4byte	.LASF620
 9016 2e18 34       		.byte	0x34
 9017 2e19 5F       		.byte	0x5f
 9018 2e1a 00010000 		.4byte	0x100
 9019 2e1e 10       		.byte	0x10
 9020 2e1f 08       		.uleb128 0x8
 9021 2e20 F70B0000 		.4byte	.LASF606
 9022 2e24 34       		.byte	0x34
 9023 2e25 61       		.byte	0x61
 9024 2e26 00010000 		.4byte	0x100
 9025 2e2a 14       		.byte	0x14
 9026 2e2b 08       		.uleb128 0x8
 9027 2e2c FF0B0000 		.4byte	.LASF607
 9028 2e30 34       		.byte	0x34
 9029 2e31 62       		.byte	0x62
ARM GAS  /var/folders/j2/t8glr22d56s93xphj_30s8g80000gn/T//cc8l81ic.s 			page 160


 9030 2e32 00010000 		.4byte	0x100
 9031 2e36 18       		.byte	0x18
 9032 2e37 08       		.uleb128 0x8
 9033 2e38 D11C0000 		.4byte	.LASF616
 9034 2e3c 34       		.byte	0x34
 9035 2e3d 63       		.byte	0x63
 9036 2e3e 00010000 		.4byte	0x100
 9037 2e42 1C       		.byte	0x1c
 9038 2e43 00       		.byte	0
 9039 2e44 03       		.uleb128 0x3
 9040 2e45 E9060000 		.4byte	.LASF621
 9041 2e49 34       		.byte	0x34
 9042 2e4a 64       		.byte	0x64
 9043 2e4b DB2D0000 		.4byte	0x2ddb
 9044 2e4f 26       		.uleb128 0x26
 9045 2e50 00100100 		.4byte	0x11000
 9046 2e54 34       		.byte	0x34
 9047 2e55 69       		.byte	0x69
 9048 2e56 2C310000 		.4byte	0x312c
 9049 2e5a 08       		.uleb128 0x8
 9050 2e5b EA030000 		.4byte	.LASF622
 9051 2e5f 34       		.byte	0x34
 9052 2e60 6A       		.byte	0x6a
 9053 2e61 00010000 		.4byte	0x100
 9054 2e65 00       		.byte	0
 9055 2e66 08       		.uleb128 0x8
 9056 2e67 B80A0000 		.4byte	.LASF623
 9057 2e6b 34       		.byte	0x34
 9058 2e6c 6B       		.byte	0x6b
 9059 2e6d 00010000 		.4byte	0x100
 9060 2e71 04       		.byte	0x4
 9061 2e72 08       		.uleb128 0x8
 9062 2e73 87060000 		.4byte	.LASF624
 9063 2e77 34       		.byte	0x34
 9064 2e78 6C       		.byte	0x6c
 9065 2e79 00010000 		.4byte	0x100
 9066 2e7d 08       		.byte	0x8
 9067 2e7e 08       		.uleb128 0x8
 9068 2e7f 69210000 		.4byte	.LASF625
 9069 2e83 34       		.byte	0x34
 9070 2e84 6D       		.byte	0x6d
 9071 2e85 00010000 		.4byte	0x100
 9072 2e89 0C       		.byte	0xc
 9073 2e8a 08       		.uleb128 0x8
 9074 2e8b 9D110000 		.4byte	.LASF626
 9075 2e8f 34       		.byte	0x34
 9076 2e90 6E       		.byte	0x6e
 9077 2e91 00010000 		.4byte	0x100
 9078 2e95 10       		.byte	0x10
 9079 2e96 08       		.uleb128 0x8
 9080 2e97 430A0000 		.4byte	.LASF627
 9081 2e9b 34       		.byte	0x34
 9082 2e9c 6F       		.byte	0x6f
 9083 2e9d 00010000 		.4byte	0x100
 9084 2ea1 14       		.byte	0x14
 9085 2ea2 08       		.uleb128 0x8
 9086 2ea3 41180000 		.4byte	.LASF628
ARM GAS  /var/folders/j2/t8glr22d56s93xphj_30s8g80000gn/T//cc8l81ic.s 			page 161


 9087 2ea7 34       		.byte	0x34
 9088 2ea8 70       		.byte	0x70
 9089 2ea9 00010000 		.4byte	0x100
 9090 2ead 18       		.byte	0x18
 9091 2eae 08       		.uleb128 0x8
 9092 2eaf 04070000 		.4byte	.LASF629
 9093 2eb3 34       		.byte	0x34
 9094 2eb4 71       		.byte	0x71
 9095 2eb5 00010000 		.4byte	0x100
 9096 2eb9 1C       		.byte	0x1c
 9097 2eba 08       		.uleb128 0x8
 9098 2ebb FC060000 		.4byte	.LASF630
 9099 2ebf 34       		.byte	0x34
 9100 2ec0 73       		.byte	0x73
 9101 2ec1 00010000 		.4byte	0x100
 9102 2ec5 20       		.byte	0x20
 9103 2ec6 08       		.uleb128 0x8
 9104 2ec7 E0170000 		.4byte	.LASF631
 9105 2ecb 34       		.byte	0x34
 9106 2ecc 75       		.byte	0x75
 9107 2ecd 00010000 		.4byte	0x100
 9108 2ed1 24       		.byte	0x24
 9109 2ed2 08       		.uleb128 0x8
 9110 2ed3 78000000 		.4byte	.LASF632
 9111 2ed7 34       		.byte	0x34
 9112 2ed8 76       		.byte	0x76
 9113 2ed9 00010000 		.4byte	0x100
 9114 2edd 28       		.byte	0x28
 9115 2ede 08       		.uleb128 0x8
 9116 2edf 49180000 		.4byte	.LASF633
 9117 2ee3 34       		.byte	0x34
 9118 2ee4 78       		.byte	0x78
 9119 2ee5 00010000 		.4byte	0x100
 9120 2ee9 2C       		.byte	0x2c
 9121 2eea 08       		.uleb128 0x8
 9122 2eeb F10C0000 		.4byte	.LASF634
 9123 2eef 34       		.byte	0x34
 9124 2ef0 7A       		.byte	0x7a
 9125 2ef1 00010000 		.4byte	0x100
 9126 2ef5 30       		.byte	0x30
 9127 2ef6 08       		.uleb128 0x8
 9128 2ef7 F90C0000 		.4byte	.LASF635
 9129 2efb 34       		.byte	0x34
 9130 2efc 7B       		.byte	0x7b
 9131 2efd 00010000 		.4byte	0x100
 9132 2f01 34       		.byte	0x34
 9133 2f02 08       		.uleb128 0x8
 9134 2f03 73010000 		.4byte	.LASF636
 9135 2f07 34       		.byte	0x34
 9136 2f08 7C       		.byte	0x7c
 9137 2f09 00010000 		.4byte	0x100
 9138 2f0d 38       		.byte	0x38
 9139 2f0e 18       		.uleb128 0x18
 9140 2f0f 43494400 		.ascii	"CID\000"
 9141 2f13 34       		.byte	0x34
 9142 2f14 7D       		.byte	0x7d
 9143 2f15 00010000 		.4byte	0x100
ARM GAS  /var/folders/j2/t8glr22d56s93xphj_30s8g80000gn/T//cc8l81ic.s 			page 162


 9144 2f19 3C       		.byte	0x3c
 9145 2f1a 08       		.uleb128 0x8
 9146 2f1b 6A0F0000 		.4byte	.LASF637
 9147 2f1f 34       		.byte	0x34
 9148 2f20 7E       		.byte	0x7e
 9149 2f21 3C310000 		.4byte	0x313c
 9150 2f25 40       		.byte	0x40
 9151 2f26 27       		.uleb128 0x27
 9152 2f27 BD1E0000 		.4byte	.LASF638
 9153 2f2b 34       		.byte	0x34
 9154 2f2c 7F       		.byte	0x7f
 9155 2f2d 00010000 		.4byte	0x100
 9156 2f31 0001     		.2byte	0x100
 9157 2f33 27       		.uleb128 0x27
 9158 2f34 B9010000 		.4byte	.LASF639
 9159 2f38 34       		.byte	0x34
 9160 2f39 81       		.byte	0x81
 9161 2f3a CC0C0000 		.4byte	0xccc
 9162 2f3e 0401     		.2byte	0x104
 9163 2f40 27       		.uleb128 0x27
 9164 2f41 6C120000 		.4byte	.LASF640
 9165 2f45 34       		.byte	0x34
 9166 2f46 83       		.byte	0x83
 9167 2f47 51310000 		.4byte	0x3151
 9168 2f4b 4001     		.2byte	0x140
 9169 2f4d 27       		.uleb128 0x27
 9170 2f4e E7150000 		.4byte	.LASF641
 9171 2f52 34       		.byte	0x34
 9172 2f53 84       		.byte	0x84
 9173 2f54 00010000 		.4byte	0x100
 9174 2f58 0004     		.2byte	0x400
 9175 2f5a 27       		.uleb128 0x27
 9176 2f5b 19210000 		.4byte	.LASF642
 9177 2f5f 34       		.byte	0x34
 9178 2f60 85       		.byte	0x85
 9179 2f61 00010000 		.4byte	0x100
 9180 2f65 0404     		.2byte	0x404
 9181 2f67 27       		.uleb128 0x27
 9182 2f68 5F030000 		.4byte	.LASF643
 9183 2f6c 34       		.byte	0x34
 9184 2f6d 86       		.byte	0x86
 9185 2f6e 00010000 		.4byte	0x100
 9186 2f72 0804     		.2byte	0x408
 9187 2f74 27       		.uleb128 0x27
 9188 2f75 4A1E0000 		.4byte	.LASF644
 9189 2f79 34       		.byte	0x34
 9190 2f7a 88       		.byte	0x88
 9191 2f7b 00010000 		.4byte	0x100
 9192 2f7f 0C04     		.2byte	0x40c
 9193 2f81 27       		.uleb128 0x27
 9194 2f82 56020000 		.4byte	.LASF645
 9195 2f86 34       		.byte	0x34
 9196 2f87 89       		.byte	0x89
 9197 2f88 00010000 		.4byte	0x100
 9198 2f8c 1004     		.2byte	0x410
 9199 2f8e 27       		.uleb128 0x27
 9200 2f8f 44030000 		.4byte	.LASF646
ARM GAS  /var/folders/j2/t8glr22d56s93xphj_30s8g80000gn/T//cc8l81ic.s 			page 163


 9201 2f93 34       		.byte	0x34
 9202 2f94 8B       		.byte	0x8b
 9203 2f95 00010000 		.4byte	0x100
 9204 2f99 1404     		.2byte	0x414
 9205 2f9b 27       		.uleb128 0x27
 9206 2f9c C70A0000 		.4byte	.LASF647
 9207 2fa0 34       		.byte	0x34
 9208 2fa1 8D       		.byte	0x8d
 9209 2fa2 00010000 		.4byte	0x100
 9210 2fa6 1804     		.2byte	0x418
 9211 2fa8 27       		.uleb128 0x27
 9212 2fa9 2C1A0000 		.4byte	.LASF648
 9213 2fad 34       		.byte	0x34
 9214 2fae 8F       		.byte	0x8f
 9215 2faf 66310000 		.4byte	0x3166
 9216 2fb3 1C04     		.2byte	0x41c
 9217 2fb5 27       		.uleb128 0x27
 9218 2fb6 FC010000 		.4byte	.LASF649
 9219 2fba 34       		.byte	0x34
 9220 2fbb 90       		.byte	0x90
 9221 2fbc 00010000 		.4byte	0x100
 9222 2fc0 4004     		.2byte	0x440
 9223 2fc2 27       		.uleb128 0x27
 9224 2fc3 E01B0000 		.4byte	.LASF650
 9225 2fc7 34       		.byte	0x34
 9226 2fc8 92       		.byte	0x92
 9227 2fc9 7B310000 		.4byte	0x317b
 9228 2fcd 4404     		.2byte	0x444
 9229 2fcf 28       		.uleb128 0x28
 9230 2fd0 686300   		.ascii	"hc\000"
 9231 2fd3 34       		.byte	0x34
 9232 2fd4 93       		.byte	0x93
 9233 2fd5 80310000 		.4byte	0x3180
 9234 2fd9 0005     		.2byte	0x500
 9235 2fdb 27       		.uleb128 0x27
 9236 2fdc 891E0000 		.4byte	.LASF651
 9237 2fe0 34       		.byte	0x34
 9238 2fe1 94       		.byte	0x94
 9239 2fe2 A0310000 		.4byte	0x31a0
 9240 2fe6 0007     		.2byte	0x700
 9241 2fe8 27       		.uleb128 0x27
 9242 2fe9 33180000 		.4byte	.LASF652
 9243 2fed 34       		.byte	0x34
 9244 2fee 95       		.byte	0x95
 9245 2fef 00010000 		.4byte	0x100
 9246 2ff3 0008     		.2byte	0x800
 9247 2ff5 27       		.uleb128 0x27
 9248 2ff6 6F1F0000 		.4byte	.LASF653
 9249 2ffa 34       		.byte	0x34
 9250 2ffb 96       		.byte	0x96
 9251 2ffc 00010000 		.4byte	0x100
 9252 3000 0408     		.2byte	0x804
 9253 3002 27       		.uleb128 0x27
 9254 3003 9C040000 		.4byte	.LASF654
 9255 3007 34       		.byte	0x34
 9256 3008 97       		.byte	0x97
 9257 3009 00010000 		.4byte	0x100
ARM GAS  /var/folders/j2/t8glr22d56s93xphj_30s8g80000gn/T//cc8l81ic.s 			page 164


 9258 300d 0808     		.2byte	0x808
 9259 300f 27       		.uleb128 0x27
 9260 3010 D8030000 		.4byte	.LASF655
 9261 3014 34       		.byte	0x34
 9262 3015 98       		.byte	0x98
 9263 3016 00010000 		.4byte	0x100
 9264 301a 0C08     		.2byte	0x80c
 9265 301c 27       		.uleb128 0x27
 9266 301d B00A0000 		.4byte	.LASF656
 9267 3021 34       		.byte	0x34
 9268 3022 99       		.byte	0x99
 9269 3023 00010000 		.4byte	0x100
 9270 3027 1008     		.2byte	0x810
 9271 3029 27       		.uleb128 0x27
 9272 302a 091D0000 		.4byte	.LASF657
 9273 302e 34       		.byte	0x34
 9274 302f 9B       		.byte	0x9b
 9275 3030 00010000 		.4byte	0x100
 9276 3034 1408     		.2byte	0x814
 9277 3036 27       		.uleb128 0x27
 9278 3037 7A1D0000 		.4byte	.LASF658
 9279 303b 34       		.byte	0x34
 9280 303c 9D       		.byte	0x9d
 9281 303d 00010000 		.4byte	0x100
 9282 3041 1808     		.2byte	0x818
 9283 3043 27       		.uleb128 0x27
 9284 3044 C61A0000 		.4byte	.LASF659
 9285 3048 34       		.byte	0x34
 9286 3049 9F       		.byte	0x9f
 9287 304a 00010000 		.4byte	0x100
 9288 304e 1C08     		.2byte	0x81c
 9289 3050 27       		.uleb128 0x27
 9290 3051 1B050000 		.4byte	.LASF660
 9291 3055 34       		.byte	0x34
 9292 3056 A1       		.byte	0xa1
 9293 3057 00010000 		.4byte	0x100
 9294 305b 2008     		.2byte	0x820
 9295 305d 27       		.uleb128 0x27
 9296 305e 19040000 		.4byte	.LASF661
 9297 3062 34       		.byte	0x34
 9298 3063 A2       		.byte	0xa2
 9299 3064 00010000 		.4byte	0x100
 9300 3068 2408     		.2byte	0x824
 9301 306a 27       		.uleb128 0x27
 9302 306b 38180000 		.4byte	.LASF662
 9303 306f 34       		.byte	0x34
 9304 3070 A3       		.byte	0xa3
 9305 3071 00010000 		.4byte	0x100
 9306 3075 2808     		.2byte	0x828
 9307 3077 27       		.uleb128 0x27
 9308 3078 010D0000 		.4byte	.LASF663
 9309 307c 34       		.byte	0x34
 9310 307d A5       		.byte	0xa5
 9311 307e 00010000 		.4byte	0x100
 9312 3082 2C08     		.2byte	0x82c
 9313 3084 27       		.uleb128 0x27
 9314 3085 FC050000 		.4byte	.LASF664
ARM GAS  /var/folders/j2/t8glr22d56s93xphj_30s8g80000gn/T//cc8l81ic.s 			page 165


 9315 3089 34       		.byte	0x34
 9316 308a A7       		.byte	0xa7
 9317 308b 00010000 		.4byte	0x100
 9318 308f 3008     		.2byte	0x830
 9319 3091 27       		.uleb128 0x27
 9320 3092 3C0C0000 		.4byte	.LASF665
 9321 3096 34       		.byte	0x34
 9322 3097 A8       		.byte	0xa8
 9323 3098 00010000 		.4byte	0x100
 9324 309c 3408     		.2byte	0x834
 9325 309e 27       		.uleb128 0x27
 9326 309f 0F060000 		.4byte	.LASF666
 9327 30a3 34       		.byte	0x34
 9328 30a4 AA       		.byte	0xaa
 9329 30a5 00010000 		.4byte	0x100
 9330 30a9 3808     		.2byte	0x838
 9331 30ab 27       		.uleb128 0x27
 9332 30ac 27060000 		.4byte	.LASF667
 9333 30b0 34       		.byte	0x34
 9334 30b1 AB       		.byte	0xab
 9335 30b2 00010000 		.4byte	0x100
 9336 30b6 3C08     		.2byte	0x83c
 9337 30b8 27       		.uleb128 0x27
 9338 30b9 9D060000 		.4byte	.LASF668
 9339 30bd 34       		.byte	0x34
 9340 30be AC       		.byte	0xac
 9341 30bf B5310000 		.4byte	0x31b5
 9342 30c3 4008     		.2byte	0x840
 9343 30c5 27       		.uleb128 0x27
 9344 30c6 E60B0000 		.4byte	.LASF669
 9345 30ca 34       		.byte	0x34
 9346 30cb AD       		.byte	0xad
 9347 30cc B5310000 		.4byte	0x31b5
 9348 30d0 8008     		.2byte	0x880
 9349 30d2 27       		.uleb128 0x27
 9350 30d3 58100000 		.4byte	.LASF670
 9351 30d7 34       		.byte	0x34
 9352 30d8 AE       		.byte	0xae
 9353 30d9 B5310000 		.4byte	0x31b5
 9354 30dd C008     		.2byte	0x8c0
 9355 30df 28       		.uleb128 0x28
 9356 30e0 696500   		.ascii	"ie\000"
 9357 30e3 34       		.byte	0x34
 9358 30e4 AF       		.byte	0xaf
 9359 30e5 BA310000 		.4byte	0x31ba
 9360 30e9 0009     		.2byte	0x900
 9361 30eb 28       		.uleb128 0x28
 9362 30ec 6F6500   		.ascii	"oe\000"
 9363 30ef 34       		.byte	0x34
 9364 30f0 B0       		.byte	0xb0
 9365 30f1 CA310000 		.4byte	0x31ca
 9366 30f5 000B     		.2byte	0xb00
 9367 30f7 27       		.uleb128 0x27
 9368 30f8 2D0A0000 		.4byte	.LASF671
 9369 30fc 34       		.byte	0x34
 9370 30fd B1       		.byte	0xb1
 9371 30fe A0310000 		.4byte	0x31a0
ARM GAS  /var/folders/j2/t8glr22d56s93xphj_30s8g80000gn/T//cc8l81ic.s 			page 166


 9372 3102 000D     		.2byte	0xd00
 9373 3104 27       		.uleb128 0x27
 9374 3105 8F1F0000 		.4byte	.LASF672
 9375 3109 34       		.byte	0x34
 9376 310a B2       		.byte	0xb2
 9377 310b 00010000 		.4byte	0x100
 9378 310f 000E     		.2byte	0xe00
 9379 3111 27       		.uleb128 0x27
 9380 3112 92150000 		.4byte	.LASF673
 9381 3116 34       		.byte	0x34
 9382 3117 B4       		.byte	0xb4
 9383 3118 EA310000 		.4byte	0x31ea
 9384 311c 040E     		.2byte	0xe04
 9385 311e 27       		.uleb128 0x27
 9386 311f 72080000 		.4byte	.LASF173
 9387 3123 34       		.byte	0x34
 9388 3124 B5       		.byte	0xb5
 9389 3125 06320000 		.4byte	0x3206
 9390 3129 0010     		.2byte	0x1000
 9391 312b 00       		.byte	0
 9392 312c 13       		.uleb128 0x13
 9393 312d 00010000 		.4byte	0x100
 9394 3131 3C310000 		.4byte	0x313c
 9395 3135 14       		.uleb128 0x14
 9396 3136 37000000 		.4byte	0x37
 9397 313a 2F       		.byte	0x2f
 9398 313b 00       		.byte	0
 9399 313c 06       		.uleb128 0x6
 9400 313d 2C310000 		.4byte	0x312c
 9401 3141 13       		.uleb128 0x13
 9402 3142 00010000 		.4byte	0x100
 9403 3146 51310000 		.4byte	0x3151
 9404 314a 14       		.uleb128 0x14
 9405 314b 37000000 		.4byte	0x37
 9406 314f AF       		.byte	0xaf
 9407 3150 00       		.byte	0
 9408 3151 06       		.uleb128 0x6
 9409 3152 41310000 		.4byte	0x3141
 9410 3156 13       		.uleb128 0x13
 9411 3157 00010000 		.4byte	0x100
 9412 315b 66310000 		.4byte	0x3166
 9413 315f 14       		.uleb128 0x14
 9414 3160 37000000 		.4byte	0x37
 9415 3164 08       		.byte	0x8
 9416 3165 00       		.byte	0
 9417 3166 06       		.uleb128 0x6
 9418 3167 56310000 		.4byte	0x3156
 9419 316b 13       		.uleb128 0x13
 9420 316c 00010000 		.4byte	0x100
 9421 3170 7B310000 		.4byte	0x317b
 9422 3174 14       		.uleb128 0x14
 9423 3175 37000000 		.4byte	0x37
 9424 3179 2E       		.byte	0x2e
 9425 317a 00       		.byte	0
 9426 317b 06       		.uleb128 0x6
 9427 317c 6B310000 		.4byte	0x316b
 9428 3180 13       		.uleb128 0x13
ARM GAS  /var/folders/j2/t8glr22d56s93xphj_30s8g80000gn/T//cc8l81ic.s 			page 167


 9429 3181 5C2D0000 		.4byte	0x2d5c
 9430 3185 90310000 		.4byte	0x3190
 9431 3189 14       		.uleb128 0x14
 9432 318a 37000000 		.4byte	0x37
 9433 318e 0F       		.byte	0xf
 9434 318f 00       		.byte	0
 9435 3190 13       		.uleb128 0x13
 9436 3191 00010000 		.4byte	0x100
 9437 3195 A0310000 		.4byte	0x31a0
 9438 3199 14       		.uleb128 0x14
 9439 319a 37000000 		.4byte	0x37
 9440 319e 3F       		.byte	0x3f
 9441 319f 00       		.byte	0
 9442 31a0 06       		.uleb128 0x6
 9443 31a1 90310000 		.4byte	0x3190
 9444 31a5 13       		.uleb128 0x13
 9445 31a6 00010000 		.4byte	0x100
 9446 31aa B5310000 		.4byte	0x31b5
 9447 31ae 14       		.uleb128 0x14
 9448 31af 37000000 		.4byte	0x37
 9449 31b3 0F       		.byte	0xf
 9450 31b4 00       		.byte	0
 9451 31b5 06       		.uleb128 0x6
 9452 31b6 A5310000 		.4byte	0x31a5
 9453 31ba 13       		.uleb128 0x13
 9454 31bb D02D0000 		.4byte	0x2dd0
 9455 31bf CA310000 		.4byte	0x31ca
 9456 31c3 14       		.uleb128 0x14
 9457 31c4 37000000 		.4byte	0x37
 9458 31c8 0F       		.byte	0xf
 9459 31c9 00       		.byte	0
 9460 31ca 13       		.uleb128 0x13
 9461 31cb 442E0000 		.4byte	0x2e44
 9462 31cf DA310000 		.4byte	0x31da
 9463 31d3 14       		.uleb128 0x14
 9464 31d4 37000000 		.4byte	0x37
 9465 31d8 0F       		.byte	0xf
 9466 31d9 00       		.byte	0
 9467 31da 13       		.uleb128 0x13
 9468 31db 00010000 		.4byte	0x100
 9469 31df EA310000 		.4byte	0x31ea
 9470 31e3 14       		.uleb128 0x14
 9471 31e4 37000000 		.4byte	0x37
 9472 31e8 7E       		.byte	0x7e
 9473 31e9 00       		.byte	0
 9474 31ea 06       		.uleb128 0x6
 9475 31eb DA310000 		.4byte	0x31da
 9476 31ef 13       		.uleb128 0x13
 9477 31f0 00010000 		.4byte	0x100
 9478 31f4 06320000 		.4byte	0x3206
 9479 31f8 14       		.uleb128 0x14
 9480 31f9 37000000 		.4byte	0x37
 9481 31fd 0F       		.byte	0xf
 9482 31fe 29       		.uleb128 0x29
 9483 31ff 37000000 		.4byte	0x37
 9484 3203 FF03     		.2byte	0x3ff
 9485 3205 00       		.byte	0
ARM GAS  /var/folders/j2/t8glr22d56s93xphj_30s8g80000gn/T//cc8l81ic.s 			page 168


 9486 3206 06       		.uleb128 0x6
 9487 3207 EF310000 		.4byte	0x31ef
 9488 320b 03       		.uleb128 0x3
 9489 320c 8E210000 		.4byte	.LASF674
 9490 3210 34       		.byte	0x34
 9491 3211 B6       		.byte	0xb6
 9492 3212 4F2E0000 		.4byte	0x2e4f
 9493 3216 17       		.uleb128 0x17
 9494 3217 0C       		.byte	0xc
 9495 3218 33       		.byte	0x33
 9496 3219 C6       		.byte	0xc6
 9497 321a 43320000 		.4byte	0x3243
 9498 321e 08       		.uleb128 0x8
 9499 321f F9070000 		.4byte	.LASF675
 9500 3223 33       		.byte	0x33
 9501 3224 C7       		.byte	0xc7
 9502 3225 F5000000 		.4byte	0xf5
 9503 3229 00       		.byte	0
 9504 322a 08       		.uleb128 0x8
 9505 322b 0D0A0000 		.4byte	.LASF676
 9506 322f 33       		.byte	0x33
 9507 3230 C8       		.byte	0xc8
 9508 3231 F5000000 		.4byte	0xf5
 9509 3235 04       		.byte	0x4
 9510 3236 08       		.uleb128 0x8
 9511 3237 4A0D0000 		.4byte	.LASF677
 9512 323b 33       		.byte	0x33
 9513 323c C9       		.byte	0xc9
 9514 323d F5000000 		.4byte	0xf5
 9515 3241 08       		.byte	0x8
 9516 3242 00       		.byte	0
 9517 3243 03       		.uleb128 0x3
 9518 3244 1A0A0000 		.4byte	.LASF678
 9519 3248 33       		.byte	0x33
 9520 3249 CA       		.byte	0xca
 9521 324a 16320000 		.4byte	0x3216
 9522 324e 05       		.uleb128 0x5
 9523 324f 43320000 		.4byte	0x3243
 9524 3253 17       		.uleb128 0x17
 9525 3254 04       		.byte	0x4
 9526 3255 33       		.byte	0x33
 9527 3256 DD       		.byte	0xdd
 9528 3257 68320000 		.4byte	0x3268
 9529 325b 08       		.uleb128 0x8
 9530 325c 891F0000 		.4byte	.LASF679
 9531 3260 33       		.byte	0x33
 9532 3261 E1       		.byte	0xe1
 9533 3262 05130000 		.4byte	0x1305
 9534 3266 00       		.byte	0
 9535 3267 00       		.byte	0
 9536 3268 17       		.uleb128 0x17
 9537 3269 04       		.byte	0x4
 9538 326a 33       		.byte	0x33
 9539 326b E3       		.byte	0xe3
 9540 326c 7D320000 		.4byte	0x327d
 9541 3270 08       		.uleb128 0x8
 9542 3271 81080000 		.4byte	.LASF365
ARM GAS  /var/folders/j2/t8glr22d56s93xphj_30s8g80000gn/T//cc8l81ic.s 			page 169


 9543 3275 33       		.byte	0x33
 9544 3276 E7       		.byte	0xe7
 9545 3277 7D320000 		.4byte	0x327d
 9546 327b 00       		.byte	0
 9547 327c 00       		.byte	0
 9548 327d 0B       		.uleb128 0xb
 9549 327e 04       		.byte	0x4
 9550 327f E1120000 		.4byte	0x12e1
 9551 3283 1D       		.uleb128 0x1d
 9552 3284 04       		.byte	0x4
 9553 3285 33       		.byte	0x33
 9554 3286 DC       		.byte	0xdc
 9555 3287 A2320000 		.4byte	0x32a2
 9556 328b 2A       		.uleb128 0x2a
 9557 328c 151C0000 		.4byte	.LASF680
 9558 3290 33       		.byte	0x33
 9559 3291 E2       		.byte	0xe2
 9560 3292 53320000 		.4byte	0x3253
 9561 3296 2A       		.uleb128 0x2a
 9562 3297 121B0000 		.4byte	.LASF681
 9563 329b 33       		.byte	0x33
 9564 329c E8       		.byte	0xe8
 9565 329d 68320000 		.4byte	0x3268
 9566 32a1 00       		.byte	0
 9567 32a2 17       		.uleb128 0x17
 9568 32a3 14       		.byte	0x14
 9569 32a4 33       		.byte	0x33
 9570 32a5 CF       		.byte	0xcf
 9571 32a6 E7320000 		.4byte	0x32e7
 9572 32aa 08       		.uleb128 0x8
 9573 32ab DA060000 		.4byte	.LASF682
 9574 32af 33       		.byte	0x33
 9575 32b0 D3       		.byte	0xd3
 9576 32b1 EC140000 		.4byte	0x14ec
 9577 32b5 00       		.byte	0
 9578 32b6 08       		.uleb128 0x8
 9579 32b7 3A110000 		.4byte	.LASF683
 9580 32bb 33       		.byte	0x33
 9581 32bc D7       		.byte	0xd7
 9582 32bd 2C000000 		.4byte	0x2c
 9583 32c1 04       		.byte	0x4
 9584 32c2 08       		.uleb128 0x8
 9585 32c3 D7090000 		.4byte	.LASF684
 9586 32c7 33       		.byte	0x33
 9587 32c8 DB       		.byte	0xdb
 9588 32c9 2C000000 		.4byte	0x2c
 9589 32cd 08       		.byte	0x8
 9590 32ce 08       		.uleb128 0x8
 9591 32cf 7A070000 		.4byte	.LASF411
 9592 32d3 33       		.byte	0x33
 9593 32d4 E9       		.byte	0xe9
 9594 32d5 83320000 		.4byte	0x3283
 9595 32d9 0C       		.byte	0xc
 9596 32da 08       		.uleb128 0x8
 9597 32db 620D0000 		.4byte	.LASF685
 9598 32df 33       		.byte	0x33
 9599 32e0 ED       		.byte	0xed
ARM GAS  /var/folders/j2/t8glr22d56s93xphj_30s8g80000gn/T//cc8l81ic.s 			page 170


 9600 32e1 2C000000 		.4byte	0x2c
 9601 32e5 10       		.byte	0x10
 9602 32e6 00       		.byte	0
 9603 32e7 03       		.uleb128 0x3
 9604 32e8 720F0000 		.4byte	.LASF686
 9605 32ec 33       		.byte	0x33
 9606 32ed EE       		.byte	0xee
 9607 32ee A2320000 		.4byte	0x32a2
 9608 32f2 19       		.uleb128 0x19
 9609 32f3 04       		.byte	0x4
 9610 32f4 33       		.byte	0x33
 9611 32f5 0101     		.2byte	0x101
 9612 32f7 09330000 		.4byte	0x3309
 9613 32fb 0A       		.uleb128 0xa
 9614 32fc 3D0A0000 		.4byte	.LASF687
 9615 3300 33       		.byte	0x33
 9616 3301 0501     		.2byte	0x105
 9617 3303 D0120000 		.4byte	0x12d0
 9618 3307 00       		.byte	0
 9619 3308 00       		.byte	0
 9620 3309 19       		.uleb128 0x19
 9621 330a 04       		.byte	0x4
 9622 330b 33       		.byte	0x33
 9623 330c 0701     		.2byte	0x107
 9624 330e 20330000 		.4byte	0x3320
 9625 3312 0A       		.uleb128 0xa
 9626 3313 D01B0000 		.4byte	.LASF366
 9627 3317 33       		.byte	0x33
 9628 3318 0B01     		.2byte	0x10b
 9629 331a 20330000 		.4byte	0x3320
 9630 331e 00       		.byte	0
 9631 331f 00       		.byte	0
 9632 3320 0B       		.uleb128 0xb
 9633 3321 04       		.byte	0x4
 9634 3322 D6120000 		.4byte	0x12d6
 9635 3326 2B       		.uleb128 0x2b
 9636 3327 04       		.byte	0x4
 9637 3328 33       		.byte	0x33
 9638 3329 0001     		.2byte	0x100
 9639 332b 48330000 		.4byte	0x3348
 9640 332f 1E       		.uleb128 0x1e
 9641 3330 151C0000 		.4byte	.LASF680
 9642 3334 33       		.byte	0x33
 9643 3335 0601     		.2byte	0x106
 9644 3337 F2320000 		.4byte	0x32f2
 9645 333b 1E       		.uleb128 0x1e
 9646 333c 121B0000 		.4byte	.LASF681
 9647 3340 33       		.byte	0x33
 9648 3341 0C01     		.2byte	0x10c
 9649 3343 09330000 		.4byte	0x3309
 9650 3347 00       		.byte	0
 9651 3348 17       		.uleb128 0x17
 9652 3349 14       		.byte	0x14
 9653 334a 33       		.byte	0x33
 9654 334b F3       		.byte	0xf3
 9655 334c 8F330000 		.4byte	0x338f
 9656 3350 08       		.uleb128 0x8
ARM GAS  /var/folders/j2/t8glr22d56s93xphj_30s8g80000gn/T//cc8l81ic.s 			page 171


 9657 3351 D6040000 		.4byte	.LASF688
 9658 3355 33       		.byte	0x33
 9659 3356 F7       		.byte	0xf7
 9660 3357 EC140000 		.4byte	0x14ec
 9661 335b 00       		.byte	0
 9662 335c 08       		.uleb128 0x8
 9663 335d 04120000 		.4byte	.LASF689
 9664 3361 33       		.byte	0x33
 9665 3362 FB       		.byte	0xfb
 9666 3363 2C000000 		.4byte	0x2c
 9667 3367 04       		.byte	0x4
 9668 3368 08       		.uleb128 0x8
 9669 3369 5F070000 		.4byte	.LASF690
 9670 336d 33       		.byte	0x33
 9671 336e FF       		.byte	0xff
 9672 336f 2C000000 		.4byte	0x2c
 9673 3373 08       		.byte	0x8
 9674 3374 0A       		.uleb128 0xa
 9675 3375 7A070000 		.4byte	.LASF411
 9676 3379 33       		.byte	0x33
 9677 337a 0D01     		.2byte	0x10d
 9678 337c 26330000 		.4byte	0x3326
 9679 3380 0C       		.byte	0xc
 9680 3381 0A       		.uleb128 0xa
 9681 3382 620D0000 		.4byte	.LASF685
 9682 3386 33       		.byte	0x33
 9683 3387 1101     		.2byte	0x111
 9684 3389 2C000000 		.4byte	0x2c
 9685 338d 10       		.byte	0x10
 9686 338e 00       		.byte	0
 9687 338f 1A       		.uleb128 0x1a
 9688 3390 181A0000 		.4byte	.LASF691
 9689 3394 33       		.byte	0x33
 9690 3395 1201     		.2byte	0x112
 9691 3397 48330000 		.4byte	0x3348
 9692 339b 19       		.uleb128 0x19
 9693 339c 24       		.byte	0x24
 9694 339d 33       		.byte	0x33
 9695 339e 1801     		.2byte	0x118
 9696 33a0 27340000 		.4byte	0x3427
 9697 33a4 0A       		.uleb128 0xa
 9698 33a5 28150000 		.4byte	.LASF692
 9699 33a9 33       		.byte	0x33
 9700 33aa 1C01     		.2byte	0x11c
 9701 33ac F5000000 		.4byte	0xf5
 9702 33b0 00       		.byte	0
 9703 33b1 0A       		.uleb128 0xa
 9704 33b2 5B080000 		.4byte	.LASF693
 9705 33b6 33       		.byte	0x33
 9706 33b7 2701     		.2byte	0x127
 9707 33b9 582C0000 		.4byte	0x2c58
 9708 33bd 04       		.byte	0x4
 9709 33be 0A       		.uleb128 0xa
 9710 33bf 2D160000 		.4byte	.LASF694
 9711 33c3 33       		.byte	0x33
 9712 33c4 2D01     		.2byte	0x12d
 9713 33c6 582C0000 		.4byte	0x2c58
ARM GAS  /var/folders/j2/t8glr22d56s93xphj_30s8g80000gn/T//cc8l81ic.s 			page 172


 9714 33ca 08       		.byte	0x8
 9715 33cb 0A       		.uleb128 0xa
 9716 33cc C00A0000 		.4byte	.LASF695
 9717 33d0 33       		.byte	0x33
 9718 33d1 3301     		.2byte	0x133
 9719 33d3 582C0000 		.4byte	0x2c58
 9720 33d7 0C       		.byte	0xc
 9721 33d8 0A       		.uleb128 0xa
 9722 33d9 D4210000 		.4byte	.LASF696
 9723 33dd 33       		.byte	0x33
 9724 33de 3901     		.2byte	0x139
 9725 33e0 DA000000 		.4byte	0xda
 9726 33e4 10       		.byte	0x10
 9727 33e5 0A       		.uleb128 0xa
 9728 33e6 0C0B0000 		.4byte	.LASF697
 9729 33ea 33       		.byte	0x33
 9730 33eb 3F01     		.2byte	0x13f
 9731 33ed DA000000 		.4byte	0xda
 9732 33f1 12       		.byte	0x12
 9733 33f2 0A       		.uleb128 0xa
 9734 33f3 A6200000 		.4byte	.LASF698
 9735 33f7 33       		.byte	0x33
 9736 33f8 4401     		.2byte	0x144
 9737 33fa 27340000 		.4byte	0x3427
 9738 33fe 14       		.byte	0x14
 9739 33ff 0A       		.uleb128 0xa
 9740 3400 7D0C0000 		.4byte	.LASF699
 9741 3404 33       		.byte	0x33
 9742 3405 4901     		.2byte	0x149
 9743 3407 2D340000 		.4byte	0x342d
 9744 340b 18       		.byte	0x18
 9745 340c 0A       		.uleb128 0xa
 9746 340d BB100000 		.4byte	.LASF700
 9747 3411 33       		.byte	0x33
 9748 3412 5001     		.2byte	0x150
 9749 3414 DA000000 		.4byte	0xda
 9750 3418 1C       		.byte	0x1c
 9751 3419 0A       		.uleb128 0xa
 9752 341a E51F0000 		.4byte	.LASF701
 9753 341e 33       		.byte	0x33
 9754 341f 5601     		.2byte	0x156
 9755 3421 D0120000 		.4byte	0x12d0
 9756 3425 20       		.byte	0x20
 9757 3426 00       		.byte	0
 9758 3427 0B       		.uleb128 0xb
 9759 3428 04       		.byte	0x4
 9760 3429 E7320000 		.4byte	0x32e7
 9761 342d 0B       		.uleb128 0xb
 9762 342e 04       		.byte	0x4
 9763 342f 8F330000 		.4byte	0x338f
 9764 3433 1A       		.uleb128 0x1a
 9765 3434 A01B0000 		.4byte	.LASF702
 9766 3438 33       		.byte	0x33
 9767 3439 5701     		.2byte	0x157
 9768 343b 9B330000 		.4byte	0x339b
 9769 343f 05       		.uleb128 0x5
 9770 3440 33340000 		.4byte	0x3433
ARM GAS  /var/folders/j2/t8glr22d56s93xphj_30s8g80000gn/T//cc8l81ic.s 			page 173


 9771 3444 19       		.uleb128 0x19
 9772 3445 10       		.byte	0x10
 9773 3446 33       		.byte	0x33
 9774 3447 5C01     		.2byte	0x15c
 9775 3449 82340000 		.4byte	0x3482
 9776 344d 0A       		.uleb128 0xa
 9777 344e E1030000 		.4byte	.LASF703
 9778 3452 33       		.byte	0x33
 9779 3453 6101     		.2byte	0x161
 9780 3455 7A2C0000 		.4byte	0x2c7a
 9781 3459 00       		.byte	0
 9782 345a 0A       		.uleb128 0xa
 9783 345b 1C1F0000 		.4byte	.LASF704
 9784 345f 33       		.byte	0x33
 9785 3460 6601     		.2byte	0x166
 9786 3462 BD2C0000 		.4byte	0x2cbd
 9787 3466 04       		.byte	0x4
 9788 3467 0A       		.uleb128 0xa
 9789 3468 1B110000 		.4byte	.LASF705
 9790 346c 33       		.byte	0x33
 9791 346d 6C01     		.2byte	0x16c
 9792 346f 9C2C0000 		.4byte	0x2c9c
 9793 3473 08       		.byte	0x8
 9794 3474 0A       		.uleb128 0xa
 9795 3475 9F010000 		.4byte	.LASF706
 9796 3479 33       		.byte	0x33
 9797 347a 7001     		.2byte	0x170
 9798 347c 352C0000 		.4byte	0x2c35
 9799 3480 0C       		.byte	0xc
 9800 3481 00       		.byte	0
 9801 3482 1A       		.uleb128 0x1a
 9802 3483 61100000 		.4byte	.LASF707
 9803 3487 33       		.byte	0x33
 9804 3488 7201     		.2byte	0x172
 9805 348a 44340000 		.4byte	0x3444
 9806 348e 05       		.uleb128 0x5
 9807 348f 82340000 		.4byte	0x3482
 9808 3493 0B       		.uleb128 0xb
 9809 3494 04       		.byte	0x4
 9810 3495 8E340000 		.4byte	0x348e
 9811 3499 13       		.uleb128 0x13
 9812 349a A9340000 		.4byte	0x34a9
 9813 349e A9340000 		.4byte	0x34a9
 9814 34a2 14       		.uleb128 0x14
 9815 34a3 37000000 		.4byte	0x37
 9816 34a7 03       		.byte	0x3
 9817 34a8 00       		.byte	0
 9818 34a9 0B       		.uleb128 0xb
 9819 34aa 04       		.byte	0x4
 9820 34ab 3F340000 		.4byte	0x343f
 9821 34af 13       		.uleb128 0x13
 9822 34b0 BA030000 		.4byte	0x3ba
 9823 34b4 BF340000 		.4byte	0x34bf
 9824 34b8 14       		.uleb128 0x14
 9825 34b9 37000000 		.4byte	0x37
 9826 34bd 02       		.byte	0x2
 9827 34be 00       		.byte	0
ARM GAS  /var/folders/j2/t8glr22d56s93xphj_30s8g80000gn/T//cc8l81ic.s 			page 174


 9828 34bf 0B       		.uleb128 0xb
 9829 34c0 04       		.byte	0x4
 9830 34c1 0B320000 		.4byte	0x320b
 9831 34c5 0B       		.uleb128 0xb
 9832 34c6 04       		.byte	0x4
 9833 34c7 4E320000 		.4byte	0x324e
 9834 34cb 13       		.uleb128 0x13
 9835 34cc DC0C0000 		.4byte	0xcdc
 9836 34d0 DB340000 		.4byte	0x34db
 9837 34d4 14       		.uleb128 0x14
 9838 34d5 37000000 		.4byte	0x37
 9839 34d9 3E       		.byte	0x3e
 9840 34da 00       		.byte	0
 9841 34db 15       		.uleb128 0x15
 9842 34dc 81000000 		.4byte	.LASF708
 9843 34e0 33       		.byte	0x33
 9844 34e1 0602     		.2byte	0x206
 9845 34e3 012A0000 		.4byte	0x2a01
 9846 34e7 21       		.uleb128 0x21
 9847 34e8 07       		.byte	0x7
 9848 34e9 01       		.byte	0x1
 9849 34ea 5E000000 		.4byte	0x5e
 9850 34ee 35       		.byte	0x35
 9851 34ef 16       		.byte	0x16
 9852 34f0 13350000 		.4byte	0x3513
 9853 34f4 22       		.uleb128 0x22
 9854 34f5 60180000 		.4byte	.LASF709
 9855 34f9 00       		.byte	0
 9856 34fa 22       		.uleb128 0x22
 9857 34fb 65180000 		.4byte	.LASF710
 9858 34ff 01       		.byte	0x1
 9859 3500 22       		.uleb128 0x22
 9860 3501 6A180000 		.4byte	.LASF711
 9861 3505 02       		.byte	0x2
 9862 3506 22       		.uleb128 0x22
 9863 3507 6F180000 		.4byte	.LASF712
 9864 350b 03       		.byte	0x3
 9865 350c 22       		.uleb128 0x22
 9866 350d 451F0000 		.4byte	.LASF713
 9867 3511 04       		.byte	0x4
 9868 3512 00       		.byte	0
 9869 3513 2C       		.uleb128 0x2c
 9870 3514 02140000 		.4byte	.LASF714
 9871 3518 01       		.byte	0x1
 9872 3519 0B       		.byte	0xb
 9873 351a 25000000 		.4byte	0x25
 9874 351e 05       		.uleb128 0x5
 9875 351f 03       		.byte	0x3
 9876 3520 00000000 		.4byte	cligno
 9877 3524 2C       		.uleb128 0x2c
 9878 3525 A1100000 		.4byte	.LASF715
 9879 3529 01       		.byte	0x1
 9880 352a 0C       		.byte	0xc
 9881 352b 25000000 		.4byte	0x25
 9882 352f 05       		.uleb128 0x5
 9883 3530 03       		.byte	0x3
 9884 3531 00000000 		.4byte	mobile
ARM GAS  /var/folders/j2/t8glr22d56s93xphj_30s8g80000gn/T//cc8l81ic.s 			page 175


 9885 3535 13       		.uleb128 0x13
 9886 3536 CA000000 		.4byte	0xca
 9887 353a 45350000 		.4byte	0x3545
 9888 353e 14       		.uleb128 0x14
 9889 353f 37000000 		.4byte	0x37
 9890 3543 03       		.byte	0x3
 9891 3544 00       		.byte	0
 9892 3545 05       		.uleb128 0x5
 9893 3546 35350000 		.4byte	0x3535
 9894 354a 2C       		.uleb128 0x2c
 9895 354b 41110000 		.4byte	.LASF716
 9896 354f 01       		.byte	0x1
 9897 3550 0E       		.byte	0xe
 9898 3551 45350000 		.4byte	0x3545
 9899 3555 05       		.uleb128 0x5
 9900 3556 03       		.byte	0x3
 9901 3557 00000000 		.4byte	step_halt
 9902 355b 13       		.uleb128 0x13
 9903 355c CA000000 		.4byte	0xca
 9904 3560 71350000 		.4byte	0x3571
 9905 3564 14       		.uleb128 0x14
 9906 3565 37000000 		.4byte	0x37
 9907 3569 07       		.byte	0x7
 9908 356a 14       		.uleb128 0x14
 9909 356b 37000000 		.4byte	0x37
 9910 356f 03       		.byte	0x3
 9911 3570 00       		.byte	0
 9912 3571 05       		.uleb128 0x5
 9913 3572 5B350000 		.4byte	0x355b
 9914 3576 2C       		.uleb128 0x2c
 9915 3577 680B0000 		.4byte	.LASF717
 9916 357b 01       		.byte	0x1
 9917 357c 12       		.byte	0x12
 9918 357d 71350000 		.4byte	0x3571
 9919 3581 05       		.uleb128 0x5
 9920 3582 03       		.byte	0x3
 9921 3583 00000000 		.4byte	step_table
 9922 3587 21       		.uleb128 0x21
 9923 3588 07       		.byte	0x7
 9924 3589 01       		.byte	0x1
 9925 358a 5E000000 		.4byte	0x5e
 9926 358e 01       		.byte	0x1
 9927 358f 1E       		.byte	0x1e
 9928 3590 A7350000 		.4byte	0x35a7
 9929 3594 22       		.uleb128 0x22
 9930 3595 D6140000 		.4byte	.LASF718
 9931 3599 00       		.byte	0
 9932 359a 22       		.uleb128 0x22
 9933 359b 0A1B0000 		.4byte	.LASF719
 9934 359f 01       		.byte	0x1
 9935 35a0 22       		.uleb128 0x22
 9936 35a1 B5090000 		.4byte	.LASF720
 9937 35a5 02       		.byte	0x2
 9938 35a6 00       		.byte	0
 9939 35a7 07       		.uleb128 0x7
 9940 35a8 3D070000 		.4byte	.LASF721
 9941 35ac 18       		.byte	0x18
ARM GAS  /var/folders/j2/t8glr22d56s93xphj_30s8g80000gn/T//cc8l81ic.s 			page 176


 9942 35ad 01       		.byte	0x1
 9943 35ae 1D       		.byte	0x1d
 9944 35af 08360000 		.4byte	0x3608
 9945 35b3 08       		.uleb128 0x8
 9946 35b4 30080000 		.4byte	.LASF722
 9947 35b8 01       		.byte	0x1
 9948 35b9 22       		.byte	0x22
 9949 35ba 87350000 		.4byte	0x3587
 9950 35be 00       		.byte	0
 9951 35bf 08       		.uleb128 0x8
 9952 35c0 2A1D0000 		.4byte	.LASF723
 9953 35c4 01       		.byte	0x1
 9954 35c5 23       		.byte	0x23
 9955 35c6 BF000000 		.4byte	0xbf
 9956 35ca 01       		.byte	0x1
 9957 35cb 08       		.uleb128 0x8
 9958 35cc 50130000 		.4byte	.LASF724
 9959 35d0 01       		.byte	0x1
 9960 35d1 24       		.byte	0x24
 9961 35d2 E5000000 		.4byte	0xe5
 9962 35d6 04       		.byte	0x4
 9963 35d7 08       		.uleb128 0x8
 9964 35d8 060A0000 		.4byte	.LASF725
 9965 35dc 01       		.byte	0x1
 9966 35dd 25       		.byte	0x25
 9967 35de 13360000 		.4byte	0x3613
 9968 35e2 08       		.byte	0x8
 9969 35e3 08       		.uleb128 0x8
 9970 35e4 80130000 		.4byte	.LASF726
 9971 35e8 01       		.byte	0x1
 9972 35e9 26       		.byte	0x26
 9973 35ea 1A360000 		.4byte	0x361a
 9974 35ee 0C       		.byte	0xc
 9975 35ef 08       		.uleb128 0x8
 9976 35f0 C1210000 		.4byte	.LASF727
 9977 35f4 01       		.byte	0x1
 9978 35f5 27       		.byte	0x27
 9979 35f6 1A360000 		.4byte	0x361a
 9980 35fa 10       		.byte	0x10
 9981 35fb 08       		.uleb128 0x8
 9982 35fc 83110000 		.4byte	.LASF728
 9983 3600 01       		.byte	0x1
 9984 3601 28       		.byte	0x28
 9985 3602 AB240000 		.4byte	0x24ab
 9986 3606 14       		.byte	0x14
 9987 3607 00       		.byte	0
 9988 3608 0D       		.uleb128 0xd
 9989 3609 13360000 		.4byte	0x3613
 9990 360d 0E       		.uleb128 0xe
 9991 360e 05130000 		.4byte	0x1305
 9992 3612 00       		.byte	0
 9993 3613 0B       		.uleb128 0xb
 9994 3614 04       		.byte	0x4
 9995 3615 08360000 		.4byte	0x3608
 9996 3619 2D       		.uleb128 0x2d
 9997 361a 0B       		.uleb128 0xb
 9998 361b 04       		.byte	0x4
ARM GAS  /var/folders/j2/t8glr22d56s93xphj_30s8g80000gn/T//cc8l81ic.s 			page 177


 9999 361c 19360000 		.4byte	0x3619
 10000 3620 2E       		.uleb128 0x2e
 10001 3621 D00F0000 		.4byte	.LASF729
 10002 3625 01       		.byte	0x1
 10003 3626 2B       		.byte	0x2b
 10004 3627 A7350000 		.4byte	0x35a7
 10005 362b 05       		.uleb128 0x5
 10006 362c 03       		.byte	0x3
 10007 362d 00000000 		.4byte	right_motor
 10008 3631 2E       		.uleb128 0x2e
 10009 3632 2F130000 		.4byte	.LASF730
 10010 3636 01       		.byte	0x1
 10011 3637 2C       		.byte	0x2c
 10012 3638 A7350000 		.4byte	0x35a7
 10013 363c 05       		.uleb128 0x5
 10014 363d 03       		.byte	0x3
 10015 363e 00000000 		.4byte	left_motor
 10016 3642 2F       		.uleb128 0x2f
 10017 3643 0C1A0000 		.4byte	.LASF731
 10018 3647 01       		.byte	0x1
 10019 3648 4301     		.2byte	0x143
 10020 364a CB340000 		.4byte	0x34cb
 10021 364e 05       		.uleb128 0x5
 10022 364f 03       		.byte	0x3
 10023 3650 00000000 		.4byte	waManoeuvre
 10024 3654 2F       		.uleb128 0x2f
 10025 3655 59010000 		.4byte	.LASF732
 10026 3659 01       		.byte	0x1
 10027 365a 7801     		.2byte	0x178
 10028 365c CB340000 		.4byte	0x34cb
 10029 3660 05       		.uleb128 0x5
 10030 3661 03       		.byte	0x3
 10031 3662 00000000 		.4byte	waClignotant
 10032 3666 2F       		.uleb128 0x2f
 10033 3667 8F110000 		.4byte	.LASF733
 10034 366b 01       		.byte	0x1
 10035 366c A501     		.2byte	0x1a5
 10036 366e CB340000 		.4byte	0x34cb
 10037 3672 05       		.uleb128 0x5
 10038 3673 03       		.byte	0x3
 10039 3674 00000000 		.4byte	waDepassement
 10040 3678 2F       		.uleb128 0x2f
 10041 3679 DF040000 		.4byte	.LASF734
 10042 367d 01       		.byte	0x1
 10043 367e FF01     		.2byte	0x1ff
 10044 3680 CB340000 		.4byte	0x34cb
 10045 3684 05       		.uleb128 0x5
 10046 3685 03       		.byte	0x3
 10047 3686 00000000 		.4byte	waDeplacement
 10048 368a 30       		.uleb128 0x30
 10049 368b 21180000 		.4byte	.LASF735
 10050 368f 01       		.byte	0x1
 10051 3690 2902     		.2byte	0x229
 10052 3692 00000000 		.4byte	.LFB281
 10053 3696 38000000 		.4byte	.LFE281-.LFB281
 10054 369a 01       		.uleb128 0x1
 10055 369b 9C       		.byte	0x9c
ARM GAS  /var/folders/j2/t8glr22d56s93xphj_30s8g80000gn/T//cc8l81ic.s 			page 178


 10056 369c DD360000 		.4byte	0x36dd
 10057 36a0 31       		.uleb128 0x31
 10058 36a1 1C000000 		.4byte	.LVL226
 10059 36a5 F4500000 		.4byte	0x50f4
 10060 36a9 D3360000 		.4byte	0x36d3
 10061 36ad 32       		.uleb128 0x32
 10062 36ae 01       		.uleb128 0x1
 10063 36af 50       		.byte	0x50
 10064 36b0 05       		.uleb128 0x5
 10065 36b1 03       		.byte	0x3
 10066 36b2 00000000 		.4byte	.LANCHOR16
 10067 36b6 32       		.uleb128 0x32
 10068 36b7 01       		.uleb128 0x1
 10069 36b8 51       		.byte	0x51
 10070 36b9 03       		.uleb128 0x3
 10071 36ba 0A       		.byte	0xa
 10072 36bb F801     		.2byte	0x1f8
 10073 36bd 32       		.uleb128 0x32
 10074 36be 01       		.uleb128 0x1
 10075 36bf 52       		.byte	0x52
 10076 36c0 02       		.uleb128 0x2
 10077 36c1 08       		.byte	0x8
 10078 36c2 40       		.byte	0x40
 10079 36c3 32       		.uleb128 0x32
 10080 36c4 01       		.uleb128 0x1
 10081 36c5 53       		.byte	0x53
 10082 36c6 05       		.uleb128 0x5
 10083 36c7 03       		.byte	0x3
 10084 36c8 00000000 		.4byte	Deplacement
 10085 36cc 32       		.uleb128 0x32
 10086 36cd 02       		.uleb128 0x2
 10087 36ce 7D       		.byte	0x7d
 10088 36cf 00       		.sleb128 0
 10089 36d0 01       		.uleb128 0x1
 10090 36d1 30       		.byte	0x30
 10091 36d2 00       		.byte	0
 10092 36d3 33       		.uleb128 0x33
 10093 36d4 2C000000 		.4byte	.LVL227
 10094 36d8 FF500000 		.4byte	0x50ff
 10095 36dc 00       		.byte	0
 10096 36dd 30       		.uleb128 0x30
 10097 36de 7D0A0000 		.4byte	.LASF736
 10098 36e2 01       		.byte	0x1
 10099 36e3 2402     		.2byte	0x224
 10100 36e5 00000000 		.4byte	.LFB280
 10101 36e9 38000000 		.4byte	.LFE280-.LFB280
 10102 36ed 01       		.uleb128 0x1
 10103 36ee 9C       		.byte	0x9c
 10104 36ef 30370000 		.4byte	0x3730
 10105 36f3 31       		.uleb128 0x31
 10106 36f4 1C000000 		.4byte	.LVL224
 10107 36f8 F4500000 		.4byte	0x50f4
 10108 36fc 26370000 		.4byte	0x3726
 10109 3700 32       		.uleb128 0x32
 10110 3701 01       		.uleb128 0x1
 10111 3702 50       		.byte	0x50
 10112 3703 05       		.uleb128 0x5
ARM GAS  /var/folders/j2/t8glr22d56s93xphj_30s8g80000gn/T//cc8l81ic.s 			page 179


 10113 3704 03       		.byte	0x3
 10114 3705 00000000 		.4byte	.LANCHOR15
 10115 3709 32       		.uleb128 0x32
 10116 370a 01       		.uleb128 0x1
 10117 370b 51       		.byte	0x51
 10118 370c 03       		.uleb128 0x3
 10119 370d 0A       		.byte	0xa
 10120 370e F801     		.2byte	0x1f8
 10121 3710 32       		.uleb128 0x32
 10122 3711 01       		.uleb128 0x1
 10123 3712 52       		.byte	0x52
 10124 3713 02       		.uleb128 0x2
 10125 3714 08       		.byte	0x8
 10126 3715 41       		.byte	0x41
 10127 3716 32       		.uleb128 0x32
 10128 3717 01       		.uleb128 0x1
 10129 3718 53       		.byte	0x53
 10130 3719 05       		.uleb128 0x5
 10131 371a 03       		.byte	0x3
 10132 371b 00000000 		.4byte	Manoeuvre
 10133 371f 32       		.uleb128 0x32
 10134 3720 02       		.uleb128 0x2
 10135 3721 7D       		.byte	0x7d
 10136 3722 00       		.sleb128 0
 10137 3723 01       		.uleb128 0x1
 10138 3724 30       		.byte	0x30
 10139 3725 00       		.byte	0
 10140 3726 33       		.uleb128 0x33
 10141 3727 2C000000 		.4byte	.LVL225
 10142 372b FF500000 		.4byte	0x50ff
 10143 372f 00       		.byte	0
 10144 3730 30       		.uleb128 0x30
 10145 3731 42150000 		.4byte	.LASF737
 10146 3735 01       		.byte	0x1
 10147 3736 1F02     		.2byte	0x21f
 10148 3738 00000000 		.4byte	.LFB279
 10149 373c 38000000 		.4byte	.LFE279-.LFB279
 10150 3740 01       		.uleb128 0x1
 10151 3741 9C       		.byte	0x9c
 10152 3742 83370000 		.4byte	0x3783
 10153 3746 31       		.uleb128 0x31
 10154 3747 1C000000 		.4byte	.LVL222
 10155 374b F4500000 		.4byte	0x50f4
 10156 374f 79370000 		.4byte	0x3779
 10157 3753 32       		.uleb128 0x32
 10158 3754 01       		.uleb128 0x1
 10159 3755 50       		.byte	0x50
 10160 3756 05       		.uleb128 0x5
 10161 3757 03       		.byte	0x3
 10162 3758 00000000 		.4byte	.LANCHOR14
 10163 375c 32       		.uleb128 0x32
 10164 375d 01       		.uleb128 0x1
 10165 375e 51       		.byte	0x51
 10166 375f 03       		.uleb128 0x3
 10167 3760 0A       		.byte	0xa
 10168 3761 F801     		.2byte	0x1f8
 10169 3763 32       		.uleb128 0x32
ARM GAS  /var/folders/j2/t8glr22d56s93xphj_30s8g80000gn/T//cc8l81ic.s 			page 180


 10170 3764 01       		.uleb128 0x1
 10171 3765 52       		.byte	0x52
 10172 3766 02       		.uleb128 0x2
 10173 3767 08       		.byte	0x8
 10174 3768 7F       		.byte	0x7f
 10175 3769 32       		.uleb128 0x32
 10176 376a 01       		.uleb128 0x1
 10177 376b 53       		.byte	0x53
 10178 376c 05       		.uleb128 0x5
 10179 376d 03       		.byte	0x3
 10180 376e 00000000 		.4byte	Depassement
 10181 3772 32       		.uleb128 0x32
 10182 3773 02       		.uleb128 0x2
 10183 3774 7D       		.byte	0x7d
 10184 3775 00       		.sleb128 0
 10185 3776 01       		.uleb128 0x1
 10186 3777 30       		.byte	0x30
 10187 3778 00       		.byte	0
 10188 3779 33       		.uleb128 0x33
 10189 377a 2C000000 		.4byte	.LVL223
 10190 377e FF500000 		.4byte	0x50ff
 10191 3782 00       		.byte	0
 10192 3783 30       		.uleb128 0x30
 10193 3784 25090000 		.4byte	.LASF738
 10194 3788 01       		.byte	0x1
 10195 3789 1A02     		.2byte	0x21a
 10196 378b 00000000 		.4byte	.LFB278
 10197 378f 38000000 		.4byte	.LFE278-.LFB278
 10198 3793 01       		.uleb128 0x1
 10199 3794 9C       		.byte	0x9c
 10200 3795 D6370000 		.4byte	0x37d6
 10201 3799 31       		.uleb128 0x31
 10202 379a 1C000000 		.4byte	.LVL220
 10203 379e F4500000 		.4byte	0x50f4
 10204 37a2 CC370000 		.4byte	0x37cc
 10205 37a6 32       		.uleb128 0x32
 10206 37a7 01       		.uleb128 0x1
 10207 37a8 50       		.byte	0x50
 10208 37a9 05       		.uleb128 0x5
 10209 37aa 03       		.byte	0x3
 10210 37ab 00000000 		.4byte	.LANCHOR13
 10211 37af 32       		.uleb128 0x32
 10212 37b0 01       		.uleb128 0x1
 10213 37b1 51       		.byte	0x51
 10214 37b2 03       		.uleb128 0x3
 10215 37b3 0A       		.byte	0xa
 10216 37b4 F801     		.2byte	0x1f8
 10217 37b6 32       		.uleb128 0x32
 10218 37b7 01       		.uleb128 0x1
 10219 37b8 52       		.byte	0x52
 10220 37b9 02       		.uleb128 0x2
 10221 37ba 08       		.byte	0x8
 10222 37bb 40       		.byte	0x40
 10223 37bc 32       		.uleb128 0x32
 10224 37bd 01       		.uleb128 0x1
 10225 37be 53       		.byte	0x53
 10226 37bf 05       		.uleb128 0x5
ARM GAS  /var/folders/j2/t8glr22d56s93xphj_30s8g80000gn/T//cc8l81ic.s 			page 181


 10227 37c0 03       		.byte	0x3
 10228 37c1 00000000 		.4byte	Clignotant
 10229 37c5 32       		.uleb128 0x32
 10230 37c6 02       		.uleb128 0x2
 10231 37c7 7D       		.byte	0x7d
 10232 37c8 00       		.sleb128 0
 10233 37c9 01       		.uleb128 0x1
 10234 37ca 30       		.byte	0x30
 10235 37cb 00       		.byte	0
 10236 37cc 33       		.uleb128 0x33
 10237 37cd 2C000000 		.4byte	.LVL221
 10238 37d1 FF500000 		.4byte	0x50ff
 10239 37d5 00       		.byte	0
 10240 37d6 34       		.uleb128 0x34
 10241 37d7 DC0F0000 		.4byte	.LASF741
 10242 37db 01       		.byte	0x1
 10243 37dc 0002     		.2byte	0x200
 10244 37de 00000000 		.4byte	.LFB277
 10245 37e2 AC000000 		.4byte	.LFE277-.LFB277
 10246 37e6 01       		.uleb128 0x1
 10247 37e7 9C       		.byte	0x9c
 10248 37e8 C0390000 		.4byte	0x39c0
 10249 37ec 35       		.uleb128 0x35
 10250 37ed 61726700 		.ascii	"arg\000"
 10251 37f1 01       		.byte	0x1
 10252 37f2 0002     		.2byte	0x200
 10253 37f4 BA030000 		.4byte	0x3ba
 10254 37f8 00000000 		.4byte	.LLST51
 10255 37fc 36       		.uleb128 0x36
 10256 37fd A3050000 		.4byte	.LASF739
 10257 3801 D0390000 		.4byte	0x39d0
 10258 3805 05       		.uleb128 0x5
 10259 3806 03       		.byte	0x3
 10260 3807 00000000 		.4byte	__FUNCTION__.10027
 10261 380b 37       		.uleb128 0x37
 10262 380c 0B150000 		.4byte	.LASF740
 10263 3810 01       		.byte	0x1
 10264 3811 0502     		.2byte	0x205
 10265 3813 99010000 		.4byte	0x199
 10266 3817 38       		.uleb128 0x38
 10267 3818 694E0000 		.4byte	0x4e69
 10268 381c 04000000 		.4byte	.LBB417
 10269 3820 38010000 		.4byte	.Ldebug_ranges0+0x138
 10270 3824 01       		.byte	0x1
 10271 3825 0202     		.2byte	0x202
 10272 3827 38380000 		.4byte	0x3838
 10273 382b 39       		.uleb128 0x39
 10274 382c 754E0000 		.4byte	0x4e75
 10275 3830 06       		.uleb128 0x6
 10276 3831 F2       		.byte	0xf2
 10277 3832 08510000 		.4byte	.Ldebug_info0+20744
 10278 3836 00       		.sleb128 0
 10279 3837 00       		.byte	0
 10280 3838 38       		.uleb128 0x38
 10281 3839 814E0000 		.4byte	0x4e81
 10282 383d 10000000 		.4byte	.LBB422
 10283 3841 58010000 		.4byte	.Ldebug_ranges0+0x158
ARM GAS  /var/folders/j2/t8glr22d56s93xphj_30s8g80000gn/T//cc8l81ic.s 			page 182


 10284 3845 01       		.byte	0x1
 10285 3846 0902     		.2byte	0x209
 10286 3848 2C390000 		.4byte	0x392c
 10287 384c 3A       		.uleb128 0x3a
 10288 384d 58010000 		.4byte	.Ldebug_ranges0+0x158
 10289 3851 3B       		.uleb128 0x3b
 10290 3852 914E0000 		.4byte	0x4e91
 10291 3856 3C       		.uleb128 0x3c
 10292 3857 A94E0000 		.4byte	0x4ea9
 10293 385b 10000000 		.4byte	.LBB424
 10294 385f 70010000 		.4byte	.Ldebug_ranges0+0x170
 10295 3863 05       		.byte	0x5
 10296 3864 FC       		.byte	0xfc
 10297 3865 C6380000 		.4byte	0x38c6
 10298 3869 3A       		.uleb128 0x3a
 10299 386a 70010000 		.4byte	.Ldebug_ranges0+0x170
 10300 386e 3B       		.uleb128 0x3b
 10301 386f B64E0000 		.4byte	0x4eb6
 10302 3873 3D       		.uleb128 0x3d
 10303 3874 CD4E0000 		.4byte	0x4ecd
 10304 3878 70000000 		.4byte	.LBB426
 10305 387c 06000000 		.4byte	.LBE426-.LBB426
 10306 3880 03       		.byte	0x3
 10307 3881 7301     		.2byte	0x173
 10308 3883 A2380000 		.4byte	0x38a2
 10309 3887 3E       		.uleb128 0x3e
 10310 3888 DF4E0000 		.4byte	0x4edf
 10311 388c 70000000 		.4byte	.LBB427
 10312 3890 06000000 		.4byte	.LBE427-.LBB427
 10313 3894 10       		.byte	0x10
 10314 3895 CD01     		.2byte	0x1cd
 10315 3897 3F       		.uleb128 0x3f
 10316 3898 EC4E0000 		.4byte	0x4eec
 10317 389c 21000000 		.4byte	.LLST52
 10318 38a0 00       		.byte	0
 10319 38a1 00       		.byte	0
 10320 38a2 33       		.uleb128 0x33
 10321 38a3 56000000 		.4byte	.LVL161
 10322 38a7 18510000 		.4byte	0x5118
 10323 38ab 33       		.uleb128 0x33
 10324 38ac 5A000000 		.4byte	.LVL162
 10325 38b0 23510000 		.4byte	0x5123
 10326 38b4 40       		.uleb128 0x40
 10327 38b5 70000000 		.4byte	.LVL163
 10328 38b9 2E510000 		.4byte	0x512e
 10329 38bd 32       		.uleb128 0x32
 10330 38be 01       		.uleb128 0x1
 10331 38bf 50       		.byte	0x50
 10332 38c0 02       		.uleb128 0x2
 10333 38c1 79       		.byte	0x79
 10334 38c2 00       		.sleb128 0
 10335 38c3 00       		.byte	0
 10336 38c4 00       		.byte	0
 10337 38c5 00       		.byte	0
 10338 38c6 41       		.uleb128 0x41
 10339 38c7 C44E0000 		.4byte	0x4ec4
 10340 38cb 42000000 		.4byte	.LBB430
ARM GAS  /var/folders/j2/t8glr22d56s93xphj_30s8g80000gn/T//cc8l81ic.s 			page 183


 10341 38cf 0E000000 		.4byte	.LBE430-.LBB430
 10342 38d3 05       		.byte	0x5
 10343 38d4 FA       		.byte	0xfa
 10344 38d5 1B390000 		.4byte	0x391b
 10345 38d9 3D       		.uleb128 0x3d
 10346 38da D64E0000 		.4byte	0x4ed6
 10347 38de 42000000 		.4byte	.LBB432
 10348 38e2 06000000 		.4byte	.LBE432-.LBB432
 10349 38e6 03       		.byte	0x3
 10350 38e7 5C01     		.2byte	0x15c
 10351 38e9 08390000 		.4byte	0x3908
 10352 38ed 3E       		.uleb128 0x3e
 10353 38ee DF4E0000 		.4byte	0x4edf
 10354 38f2 42000000 		.4byte	.LBB433
 10355 38f6 06000000 		.4byte	.LBE433-.LBB433
 10356 38fa 10       		.byte	0x10
 10357 38fb BF01     		.2byte	0x1bf
 10358 38fd 3F       		.uleb128 0x3f
 10359 38fe EC4E0000 		.4byte	0x4eec
 10360 3902 35000000 		.4byte	.LLST53
 10361 3906 00       		.byte	0
 10362 3907 00       		.byte	0
 10363 3908 33       		.uleb128 0x33
 10364 3909 4C000000 		.4byte	.LVL159
 10365 390d 3A510000 		.4byte	0x513a
 10366 3911 33       		.uleb128 0x33
 10367 3912 50000000 		.4byte	.LVL160
 10368 3916 45510000 		.4byte	0x5145
 10369 391a 00       		.byte	0
 10370 391b 42       		.uleb128 0x42
 10371 391c 9D4E0000 		.4byte	0x4e9d
 10372 3920 50000000 		.4byte	.LBB435
 10373 3924 02000000 		.4byte	.LBE435-.LBB435
 10374 3928 05       		.byte	0x5
 10375 3929 FB       		.byte	0xfb
 10376 392a 00       		.byte	0
 10377 392b 00       		.byte	0
 10378 392c 38       		.uleb128 0x38
 10379 392d 044C0000 		.4byte	0x4c04
 10380 3931 18000000 		.4byte	.LBB440
 10381 3935 88010000 		.4byte	.Ldebug_ranges0+0x188
 10382 3939 01       		.byte	0x1
 10383 393a 1002     		.2byte	0x210
 10384 393c 61390000 		.4byte	0x3961
 10385 3940 3F       		.uleb128 0x3f
 10386 3941 104C0000 		.4byte	0x4c10
 10387 3945 4A000000 		.4byte	.LLST54
 10388 3949 40       		.uleb128 0x40
 10389 394a 2E000000 		.4byte	.LVL155
 10390 394e 1C4C0000 		.4byte	0x4c1c
 10391 3952 32       		.uleb128 0x32
 10392 3953 01       		.uleb128 0x1
 10393 3954 50       		.byte	0x50
 10394 3955 02       		.uleb128 0x2
 10395 3956 78       		.byte	0x78
 10396 3957 00       		.sleb128 0
 10397 3958 32       		.uleb128 0x32
ARM GAS  /var/folders/j2/t8glr22d56s93xphj_30s8g80000gn/T//cc8l81ic.s 			page 184


 10398 3959 01       		.uleb128 0x1
 10399 395a 51       		.byte	0x51
 10400 395b 03       		.uleb128 0x3
 10401 395c 0A       		.byte	0xa
 10402 395d E803     		.2byte	0x3e8
 10403 395f 00       		.byte	0
 10404 3960 00       		.byte	0
 10405 3961 38       		.uleb128 0x38
 10406 3962 EC4B0000 		.4byte	0x4bec
 10407 3966 1C000000 		.4byte	.LBB443
 10408 396a A0010000 		.4byte	.Ldebug_ranges0+0x1a0
 10409 396e 01       		.byte	0x1
 10410 396f 1102     		.2byte	0x211
 10411 3971 96390000 		.4byte	0x3996
 10412 3975 3F       		.uleb128 0x3f
 10413 3976 F84B0000 		.4byte	0x4bf8
 10414 397a 60000000 		.4byte	.LLST55
 10415 397e 40       		.uleb128 0x40
 10416 397f 38000000 		.4byte	.LVL156
 10417 3983 1C4C0000 		.4byte	0x4c1c
 10418 3987 32       		.uleb128 0x32
 10419 3988 01       		.uleb128 0x1
 10420 3989 50       		.byte	0x50
 10421 398a 02       		.uleb128 0x2
 10422 398b 77       		.byte	0x77
 10423 398c 00       		.sleb128 0
 10424 398d 32       		.uleb128 0x32
 10425 398e 01       		.uleb128 0x1
 10426 398f 51       		.byte	0x51
 10427 3990 03       		.uleb128 0x3
 10428 3991 0A       		.byte	0xa
 10429 3992 E803     		.2byte	0x3e8
 10430 3994 00       		.byte	0
 10431 3995 00       		.byte	0
 10432 3996 31       		.uleb128 0x31
 10433 3997 42000000 		.4byte	.LVL157
 10434 399b 50510000 		.4byte	0x5150
 10435 399f B0390000 		.4byte	0x39b0
 10436 39a3 32       		.uleb128 0x32
 10437 39a4 01       		.uleb128 0x1
 10438 39a5 50       		.byte	0x50
 10439 39a6 02       		.uleb128 0x2
 10440 39a7 75       		.byte	0x75
 10441 39a8 00       		.sleb128 0
 10442 39a9 32       		.uleb128 0x32
 10443 39aa 01       		.uleb128 0x1
 10444 39ab 51       		.byte	0x51
 10445 39ac 02       		.uleb128 0x2
 10446 39ad 75       		.byte	0x75
 10447 39ae 0A       		.sleb128 10
 10448 39af 00       		.byte	0
 10449 39b0 40       		.uleb128 0x40
 10450 39b1 7C000000 		.4byte	.LVL165
 10451 39b5 5B510000 		.4byte	0x515b
 10452 39b9 32       		.uleb128 0x32
 10453 39ba 01       		.uleb128 0x1
 10454 39bb 50       		.byte	0x50
ARM GAS  /var/folders/j2/t8glr22d56s93xphj_30s8g80000gn/T//cc8l81ic.s 			page 185


 10455 39bc 01       		.uleb128 0x1
 10456 39bd 34       		.byte	0x34
 10457 39be 00       		.byte	0
 10458 39bf 00       		.byte	0
 10459 39c0 13       		.uleb128 0x13
 10460 39c1 6F100000 		.4byte	0x106f
 10461 39c5 D0390000 		.4byte	0x39d0
 10462 39c9 14       		.uleb128 0x14
 10463 39ca 37000000 		.4byte	0x37
 10464 39ce 0B       		.byte	0xb
 10465 39cf 00       		.byte	0
 10466 39d0 05       		.uleb128 0x5
 10467 39d1 C0390000 		.4byte	0x39c0
 10468 39d5 34       		.uleb128 0x34
 10469 39d6 03130000 		.4byte	.LASF742
 10470 39da 01       		.byte	0x1
 10471 39db A601     		.2byte	0x1a6
 10472 39dd 00000000 		.4byte	.LFB276
 10473 39e1 54020000 		.4byte	.LFE276-.LFB276
 10474 39e5 01       		.uleb128 0x1
 10475 39e6 9C       		.byte	0x9c
 10476 39e7 41430000 		.4byte	0x4341
 10477 39eb 35       		.uleb128 0x35
 10478 39ec 61726700 		.ascii	"arg\000"
 10479 39f0 01       		.byte	0x1
 10480 39f1 A601     		.2byte	0x1a6
 10481 39f3 BA030000 		.4byte	0x3ba
 10482 39f7 76000000 		.4byte	.LLST16
 10483 39fb 36       		.uleb128 0x36
 10484 39fc A3050000 		.4byte	.LASF739
 10485 3a00 D0390000 		.4byte	0x39d0
 10486 3a04 05       		.uleb128 0x5
 10487 3a05 03       		.byte	0x3
 10488 3a06 00000000 		.4byte	__FUNCTION__.10020
 10489 3a0a 37       		.uleb128 0x37
 10490 3a0b 0B150000 		.4byte	.LASF740
 10491 3a0f 01       		.byte	0x1
 10492 3a10 AD01     		.2byte	0x1ad
 10493 3a12 99010000 		.4byte	0x199
 10494 3a16 38       		.uleb128 0x38
 10495 3a17 694E0000 		.4byte	0x4e69
 10496 3a1b 04000000 		.4byte	.LBB303
 10497 3a1f B0000000 		.4byte	.Ldebug_ranges0+0xb0
 10498 3a23 01       		.byte	0x1
 10499 3a24 AA01     		.2byte	0x1aa
 10500 3a26 373A0000 		.4byte	0x3a37
 10501 3a2a 39       		.uleb128 0x39
 10502 3a2b 754E0000 		.4byte	0x4e75
 10503 3a2f 06       		.uleb128 0x6
 10504 3a30 F2       		.byte	0xf2
 10505 3a31 66510000 		.4byte	.Ldebug_info0+20838
 10506 3a35 00       		.sleb128 0
 10507 3a36 00       		.byte	0
 10508 3a37 38       		.uleb128 0x38
 10509 3a38 044C0000 		.4byte	0x4c04
 10510 3a3c 1A000000 		.4byte	.LBB309
 10511 3a40 D0000000 		.4byte	.Ldebug_ranges0+0xd0
ARM GAS  /var/folders/j2/t8glr22d56s93xphj_30s8g80000gn/T//cc8l81ic.s 			page 186


 10512 3a44 01       		.byte	0x1
 10513 3a45 B701     		.2byte	0x1b7
 10514 3a47 6B3A0000 		.4byte	0x3a6b
 10515 3a4b 3F       		.uleb128 0x3f
 10516 3a4c 104C0000 		.4byte	0x4c10
 10517 3a50 97000000 		.4byte	.LLST17
 10518 3a54 40       		.uleb128 0x40
 10519 3a55 96000000 		.4byte	.LVL101
 10520 3a59 1C4C0000 		.4byte	0x4c1c
 10521 3a5d 32       		.uleb128 0x32
 10522 3a5e 01       		.uleb128 0x1
 10523 3a5f 50       		.byte	0x50
 10524 3a60 02       		.uleb128 0x2
 10525 3a61 78       		.byte	0x78
 10526 3a62 00       		.sleb128 0
 10527 3a63 32       		.uleb128 0x32
 10528 3a64 01       		.uleb128 0x1
 10529 3a65 51       		.byte	0x51
 10530 3a66 02       		.uleb128 0x2
 10531 3a67 75       		.byte	0x75
 10532 3a68 00       		.sleb128 0
 10533 3a69 00       		.byte	0
 10534 3a6a 00       		.byte	0
 10535 3a6b 38       		.uleb128 0x38
 10536 3a6c EC4B0000 		.4byte	0x4bec
 10537 3a70 1E000000 		.4byte	.LBB313
 10538 3a74 F0000000 		.4byte	.Ldebug_ranges0+0xf0
 10539 3a78 01       		.byte	0x1
 10540 3a79 B801     		.2byte	0x1b8
 10541 3a7b 9F3A0000 		.4byte	0x3a9f
 10542 3a7f 3F       		.uleb128 0x3f
 10543 3a80 F84B0000 		.4byte	0x4bf8
 10544 3a84 AB000000 		.4byte	.LLST18
 10545 3a88 40       		.uleb128 0x40
 10546 3a89 9E000000 		.4byte	.LVL102
 10547 3a8d 1C4C0000 		.4byte	0x4c1c
 10548 3a91 32       		.uleb128 0x32
 10549 3a92 01       		.uleb128 0x1
 10550 3a93 50       		.byte	0x50
 10551 3a94 02       		.uleb128 0x2
 10552 3a95 77       		.byte	0x77
 10553 3a96 00       		.sleb128 0
 10554 3a97 32       		.uleb128 0x32
 10555 3a98 01       		.uleb128 0x1
 10556 3a99 51       		.byte	0x51
 10557 3a9a 02       		.uleb128 0x2
 10558 3a9b 75       		.byte	0x75
 10559 3a9c 00       		.sleb128 0
 10560 3a9d 00       		.byte	0
 10561 3a9e 00       		.byte	0
 10562 3a9f 3D       		.uleb128 0x3d
 10563 3aa0 814E0000 		.4byte	0x4e81
 10564 3aa4 38000000 		.4byte	.LBB316
 10565 3aa8 34000000 		.4byte	.LBE316-.LBB316
 10566 3aac 01       		.byte	0x1
 10567 3aad B101     		.2byte	0x1b1
 10568 3aaf 9A3B0000 		.4byte	0x3b9a
ARM GAS  /var/folders/j2/t8glr22d56s93xphj_30s8g80000gn/T//cc8l81ic.s 			page 187


 10569 3ab3 43       		.uleb128 0x43
 10570 3ab4 38000000 		.4byte	.LBB317
 10571 3ab8 34000000 		.4byte	.LBE317-.LBB317
 10572 3abc 3B       		.uleb128 0x3b
 10573 3abd 914E0000 		.4byte	0x4e91
 10574 3ac1 41       		.uleb128 0x41
 10575 3ac2 C44E0000 		.4byte	0x4ec4
 10576 3ac6 38000000 		.4byte	.LBB318
 10577 3aca 0E000000 		.4byte	.LBE318-.LBB318
 10578 3ace 05       		.byte	0x5
 10579 3acf FA       		.byte	0xfa
 10580 3ad0 163B0000 		.4byte	0x3b16
 10581 3ad4 3D       		.uleb128 0x3d
 10582 3ad5 D64E0000 		.4byte	0x4ed6
 10583 3ad9 38000000 		.4byte	.LBB320
 10584 3add 06000000 		.4byte	.LBE320-.LBB320
 10585 3ae1 03       		.byte	0x3
 10586 3ae2 5C01     		.2byte	0x15c
 10587 3ae4 033B0000 		.4byte	0x3b03
 10588 3ae8 3E       		.uleb128 0x3e
 10589 3ae9 DF4E0000 		.4byte	0x4edf
 10590 3aed 38000000 		.4byte	.LBB321
 10591 3af1 06000000 		.4byte	.LBE321-.LBB321
 10592 3af5 10       		.byte	0x10
 10593 3af6 BF01     		.2byte	0x1bf
 10594 3af8 3F       		.uleb128 0x3f
 10595 3af9 EC4E0000 		.4byte	0x4eec
 10596 3afd BF000000 		.4byte	.LLST19
 10597 3b01 00       		.byte	0
 10598 3b02 00       		.byte	0
 10599 3b03 33       		.uleb128 0x33
 10600 3b04 42000000 		.4byte	.LVL92
 10601 3b08 3A510000 		.4byte	0x513a
 10602 3b0c 33       		.uleb128 0x33
 10603 3b0d 46000000 		.4byte	.LVL93
 10604 3b11 45510000 		.4byte	0x5145
 10605 3b15 00       		.byte	0
 10606 3b16 42       		.uleb128 0x42
 10607 3b17 9D4E0000 		.4byte	0x4e9d
 10608 3b1b 46000000 		.4byte	.LBB323
 10609 3b1f 02000000 		.4byte	.LBE323-.LBB323
 10610 3b23 05       		.byte	0x5
 10611 3b24 FB       		.byte	0xfb
 10612 3b25 44       		.uleb128 0x44
 10613 3b26 A94E0000 		.4byte	0x4ea9
 10614 3b2a 48000000 		.4byte	.LBB325
 10615 3b2e 24000000 		.4byte	.LBE325-.LBB325
 10616 3b32 05       		.byte	0x5
 10617 3b33 FC       		.byte	0xfc
 10618 3b34 43       		.uleb128 0x43
 10619 3b35 48000000 		.4byte	.LBB326
 10620 3b39 24000000 		.4byte	.LBE326-.LBB326
 10621 3b3d 3B       		.uleb128 0x3b
 10622 3b3e B64E0000 		.4byte	0x4eb6
 10623 3b42 3D       		.uleb128 0x3d
 10624 3b43 CD4E0000 		.4byte	0x4ecd
 10625 3b47 66000000 		.4byte	.LBB327
ARM GAS  /var/folders/j2/t8glr22d56s93xphj_30s8g80000gn/T//cc8l81ic.s 			page 188


 10626 3b4b 06000000 		.4byte	.LBE327-.LBB327
 10627 3b4f 03       		.byte	0x3
 10628 3b50 7301     		.2byte	0x173
 10629 3b52 713B0000 		.4byte	0x3b71
 10630 3b56 3E       		.uleb128 0x3e
 10631 3b57 DF4E0000 		.4byte	0x4edf
 10632 3b5b 66000000 		.4byte	.LBB328
 10633 3b5f 06000000 		.4byte	.LBE328-.LBB328
 10634 3b63 10       		.byte	0x10
 10635 3b64 CD01     		.2byte	0x1cd
 10636 3b66 3F       		.uleb128 0x3f
 10637 3b67 EC4E0000 		.4byte	0x4eec
 10638 3b6b D4000000 		.4byte	.LLST20
 10639 3b6f 00       		.byte	0
 10640 3b70 00       		.byte	0
 10641 3b71 33       		.uleb128 0x33
 10642 3b72 4C000000 		.4byte	.LVL94
 10643 3b76 18510000 		.4byte	0x5118
 10644 3b7a 33       		.uleb128 0x33
 10645 3b7b 50000000 		.4byte	.LVL95
 10646 3b7f 23510000 		.4byte	0x5123
 10647 3b83 40       		.uleb128 0x40
 10648 3b84 66000000 		.4byte	.LVL96
 10649 3b88 2E510000 		.4byte	0x512e
 10650 3b8c 32       		.uleb128 0x32
 10651 3b8d 01       		.uleb128 0x1
 10652 3b8e 50       		.byte	0x50
 10653 3b8f 05       		.uleb128 0x5
 10654 3b90 03       		.byte	0x3
 10655 3b91 00000000 		.4byte	.LANCHOR5
 10656 3b95 00       		.byte	0
 10657 3b96 00       		.byte	0
 10658 3b97 00       		.byte	0
 10659 3b98 00       		.byte	0
 10660 3b99 00       		.byte	0
 10661 3b9a 3D       		.uleb128 0x3d
 10662 3b9b 044C0000 		.4byte	0x4c04
 10663 3b9f AC000000 		.4byte	.LBB333
 10664 3ba3 08000000 		.4byte	.LBE333-.LBB333
 10665 3ba7 01       		.byte	0x1
 10666 3ba8 BC01     		.2byte	0x1bc
 10667 3baa CE3B0000 		.4byte	0x3bce
 10668 3bae 3F       		.uleb128 0x3f
 10669 3baf 104C0000 		.4byte	0x4c10
 10670 3bb3 E8000000 		.4byte	.LLST21
 10671 3bb7 40       		.uleb128 0x40
 10672 3bb8 B4000000 		.4byte	.LVL104
 10673 3bbc 1C4C0000 		.4byte	0x4c1c
 10674 3bc0 32       		.uleb128 0x32
 10675 3bc1 01       		.uleb128 0x1
 10676 3bc2 50       		.byte	0x50
 10677 3bc3 02       		.uleb128 0x2
 10678 3bc4 78       		.byte	0x78
 10679 3bc5 00       		.sleb128 0
 10680 3bc6 32       		.uleb128 0x32
 10681 3bc7 01       		.uleb128 0x1
 10682 3bc8 51       		.byte	0x51
ARM GAS  /var/folders/j2/t8glr22d56s93xphj_30s8g80000gn/T//cc8l81ic.s 			page 189


 10683 3bc9 02       		.uleb128 0x2
 10684 3bca 75       		.byte	0x75
 10685 3bcb 00       		.sleb128 0
 10686 3bcc 00       		.byte	0
 10687 3bcd 00       		.byte	0
 10688 3bce 3D       		.uleb128 0x3d
 10689 3bcf EC4B0000 		.4byte	0x4bec
 10690 3bd3 B4000000 		.4byte	.LBB335
 10691 3bd7 08000000 		.4byte	.LBE335-.LBB335
 10692 3bdb 01       		.byte	0x1
 10693 3bdc BD01     		.2byte	0x1bd
 10694 3bde 023C0000 		.4byte	0x3c02
 10695 3be2 3F       		.uleb128 0x3f
 10696 3be3 F84B0000 		.4byte	0x4bf8
 10697 3be7 FC000000 		.4byte	.LLST22
 10698 3beb 40       		.uleb128 0x40
 10699 3bec BC000000 		.4byte	.LVL105
 10700 3bf0 1C4C0000 		.4byte	0x4c1c
 10701 3bf4 32       		.uleb128 0x32
 10702 3bf5 01       		.uleb128 0x1
 10703 3bf6 50       		.byte	0x50
 10704 3bf7 02       		.uleb128 0x2
 10705 3bf8 77       		.byte	0x77
 10706 3bf9 00       		.sleb128 0
 10707 3bfa 32       		.uleb128 0x32
 10708 3bfb 01       		.uleb128 0x1
 10709 3bfc 51       		.byte	0x51
 10710 3bfd 02       		.uleb128 0x2
 10711 3bfe 75       		.byte	0x75
 10712 3bff 00       		.sleb128 0
 10713 3c00 00       		.byte	0
 10714 3c01 00       		.byte	0
 10715 3c02 3D       		.uleb128 0x3d
 10716 3c03 044C0000 		.4byte	0x4c04
 10717 3c07 C2000000 		.4byte	.LBB337
 10718 3c0b 08000000 		.4byte	.LBE337-.LBB337
 10719 3c0f 01       		.byte	0x1
 10720 3c10 BF01     		.2byte	0x1bf
 10721 3c12 373C0000 		.4byte	0x3c37
 10722 3c16 3F       		.uleb128 0x3f
 10723 3c17 104C0000 		.4byte	0x4c10
 10724 3c1b 10010000 		.4byte	.LLST23
 10725 3c1f 40       		.uleb128 0x40
 10726 3c20 CA000000 		.4byte	.LVL107
 10727 3c24 1C4C0000 		.4byte	0x4c1c
 10728 3c28 32       		.uleb128 0x32
 10729 3c29 01       		.uleb128 0x1
 10730 3c2a 50       		.byte	0x50
 10731 3c2b 02       		.uleb128 0x2
 10732 3c2c 78       		.byte	0x78
 10733 3c2d 00       		.sleb128 0
 10734 3c2e 32       		.uleb128 0x32
 10735 3c2f 01       		.uleb128 0x1
 10736 3c30 51       		.byte	0x51
 10737 3c31 03       		.uleb128 0x3
 10738 3c32 0B       		.byte	0xb
 10739 3c33 18FC     		.2byte	0xfc18
ARM GAS  /var/folders/j2/t8glr22d56s93xphj_30s8g80000gn/T//cc8l81ic.s 			page 190


 10740 3c35 00       		.byte	0
 10741 3c36 00       		.byte	0
 10742 3c37 3D       		.uleb128 0x3d
 10743 3c38 EC4B0000 		.4byte	0x4bec
 10744 3c3c CA000000 		.4byte	.LBB339
 10745 3c40 0A000000 		.4byte	.LBE339-.LBB339
 10746 3c44 01       		.byte	0x1
 10747 3c45 C001     		.2byte	0x1c0
 10748 3c47 6C3C0000 		.4byte	0x3c6c
 10749 3c4b 3F       		.uleb128 0x3f
 10750 3c4c F84B0000 		.4byte	0x4bf8
 10751 3c50 26010000 		.4byte	.LLST24
 10752 3c54 40       		.uleb128 0x40
 10753 3c55 D4000000 		.4byte	.LVL108
 10754 3c59 1C4C0000 		.4byte	0x4c1c
 10755 3c5d 32       		.uleb128 0x32
 10756 3c5e 01       		.uleb128 0x1
 10757 3c5f 50       		.byte	0x50
 10758 3c60 02       		.uleb128 0x2
 10759 3c61 77       		.byte	0x77
 10760 3c62 00       		.sleb128 0
 10761 3c63 32       		.uleb128 0x32
 10762 3c64 01       		.uleb128 0x1
 10763 3c65 51       		.byte	0x51
 10764 3c66 03       		.uleb128 0x3
 10765 3c67 0A       		.byte	0xa
 10766 3c68 E803     		.2byte	0x3e8
 10767 3c6a 00       		.byte	0
 10768 3c6b 00       		.byte	0
 10769 3c6c 3D       		.uleb128 0x3d
 10770 3c6d 044C0000 		.4byte	0x4c04
 10771 3c71 DC000000 		.4byte	.LBB341
 10772 3c75 08000000 		.4byte	.LBE341-.LBB341
 10773 3c79 01       		.byte	0x1
 10774 3c7a C301     		.2byte	0x1c3
 10775 3c7c A03C0000 		.4byte	0x3ca0
 10776 3c80 3F       		.uleb128 0x3f
 10777 3c81 104C0000 		.4byte	0x4c10
 10778 3c85 3C010000 		.4byte	.LLST25
 10779 3c89 40       		.uleb128 0x40
 10780 3c8a E4000000 		.4byte	.LVL110
 10781 3c8e 1C4C0000 		.4byte	0x4c1c
 10782 3c92 32       		.uleb128 0x32
 10783 3c93 01       		.uleb128 0x1
 10784 3c94 50       		.byte	0x50
 10785 3c95 02       		.uleb128 0x2
 10786 3c96 78       		.byte	0x78
 10787 3c97 00       		.sleb128 0
 10788 3c98 32       		.uleb128 0x32
 10789 3c99 01       		.uleb128 0x1
 10790 3c9a 51       		.byte	0x51
 10791 3c9b 02       		.uleb128 0x2
 10792 3c9c 75       		.byte	0x75
 10793 3c9d 00       		.sleb128 0
 10794 3c9e 00       		.byte	0
 10795 3c9f 00       		.byte	0
 10796 3ca0 3D       		.uleb128 0x3d
ARM GAS  /var/folders/j2/t8glr22d56s93xphj_30s8g80000gn/T//cc8l81ic.s 			page 191


 10797 3ca1 EC4B0000 		.4byte	0x4bec
 10798 3ca5 E4000000 		.4byte	.LBB343
 10799 3ca9 08000000 		.4byte	.LBE343-.LBB343
 10800 3cad 01       		.byte	0x1
 10801 3cae C401     		.2byte	0x1c4
 10802 3cb0 D43C0000 		.4byte	0x3cd4
 10803 3cb4 3F       		.uleb128 0x3f
 10804 3cb5 F84B0000 		.4byte	0x4bf8
 10805 3cb9 50010000 		.4byte	.LLST26
 10806 3cbd 40       		.uleb128 0x40
 10807 3cbe EC000000 		.4byte	.LVL111
 10808 3cc2 1C4C0000 		.4byte	0x4c1c
 10809 3cc6 32       		.uleb128 0x32
 10810 3cc7 01       		.uleb128 0x1
 10811 3cc8 50       		.byte	0x50
 10812 3cc9 02       		.uleb128 0x2
 10813 3cca 77       		.byte	0x77
 10814 3ccb 00       		.sleb128 0
 10815 3ccc 32       		.uleb128 0x32
 10816 3ccd 01       		.uleb128 0x1
 10817 3cce 51       		.byte	0x51
 10818 3ccf 02       		.uleb128 0x2
 10819 3cd0 75       		.byte	0x75
 10820 3cd1 00       		.sleb128 0
 10821 3cd2 00       		.byte	0
 10822 3cd3 00       		.byte	0
 10823 3cd4 3D       		.uleb128 0x3d
 10824 3cd5 044C0000 		.4byte	0x4c04
 10825 3cd9 F2000000 		.4byte	.LBB345
 10826 3cdd 0A000000 		.4byte	.LBE345-.LBB345
 10827 3ce1 01       		.byte	0x1
 10828 3ce2 C601     		.2byte	0x1c6
 10829 3ce4 093D0000 		.4byte	0x3d09
 10830 3ce8 3F       		.uleb128 0x3f
 10831 3ce9 104C0000 		.4byte	0x4c10
 10832 3ced 64010000 		.4byte	.LLST27
 10833 3cf1 40       		.uleb128 0x40
 10834 3cf2 FC000000 		.4byte	.LVL113
 10835 3cf6 1C4C0000 		.4byte	0x4c1c
 10836 3cfa 32       		.uleb128 0x32
 10837 3cfb 01       		.uleb128 0x1
 10838 3cfc 50       		.byte	0x50
 10839 3cfd 02       		.uleb128 0x2
 10840 3cfe 78       		.byte	0x78
 10841 3cff 00       		.sleb128 0
 10842 3d00 32       		.uleb128 0x32
 10843 3d01 01       		.uleb128 0x1
 10844 3d02 51       		.byte	0x51
 10845 3d03 03       		.uleb128 0x3
 10846 3d04 0A       		.byte	0xa
 10847 3d05 E803     		.2byte	0x3e8
 10848 3d07 00       		.byte	0
 10849 3d08 00       		.byte	0
 10850 3d09 3D       		.uleb128 0x3d
 10851 3d0a EC4B0000 		.4byte	0x4bec
 10852 3d0e FC000000 		.4byte	.LBB347
 10853 3d12 0A000000 		.4byte	.LBE347-.LBB347
ARM GAS  /var/folders/j2/t8glr22d56s93xphj_30s8g80000gn/T//cc8l81ic.s 			page 192


 10854 3d16 01       		.byte	0x1
 10855 3d17 C701     		.2byte	0x1c7
 10856 3d19 3E3D0000 		.4byte	0x3d3e
 10857 3d1d 3F       		.uleb128 0x3f
 10858 3d1e F84B0000 		.4byte	0x4bf8
 10859 3d22 7A010000 		.4byte	.LLST28
 10860 3d26 40       		.uleb128 0x40
 10861 3d27 06010000 		.4byte	.LVL114
 10862 3d2b 1C4C0000 		.4byte	0x4c1c
 10863 3d2f 32       		.uleb128 0x32
 10864 3d30 01       		.uleb128 0x1
 10865 3d31 50       		.byte	0x50
 10866 3d32 02       		.uleb128 0x2
 10867 3d33 77       		.byte	0x77
 10868 3d34 00       		.sleb128 0
 10869 3d35 32       		.uleb128 0x32
 10870 3d36 01       		.uleb128 0x1
 10871 3d37 51       		.byte	0x51
 10872 3d38 03       		.uleb128 0x3
 10873 3d39 0A       		.byte	0xa
 10874 3d3a E803     		.2byte	0x3e8
 10875 3d3c 00       		.byte	0
 10876 3d3d 00       		.byte	0
 10877 3d3e 3D       		.uleb128 0x3d
 10878 3d3f 044C0000 		.4byte	0x4c04
 10879 3d43 0E010000 		.4byte	.LBB349
 10880 3d47 08000000 		.4byte	.LBE349-.LBB349
 10881 3d4b 01       		.byte	0x1
 10882 3d4c CB01     		.2byte	0x1cb
 10883 3d4e 723D0000 		.4byte	0x3d72
 10884 3d52 3F       		.uleb128 0x3f
 10885 3d53 104C0000 		.4byte	0x4c10
 10886 3d57 90010000 		.4byte	.LLST29
 10887 3d5b 40       		.uleb128 0x40
 10888 3d5c 16010000 		.4byte	.LVL116
 10889 3d60 1C4C0000 		.4byte	0x4c1c
 10890 3d64 32       		.uleb128 0x32
 10891 3d65 01       		.uleb128 0x1
 10892 3d66 50       		.byte	0x50
 10893 3d67 02       		.uleb128 0x2
 10894 3d68 78       		.byte	0x78
 10895 3d69 00       		.sleb128 0
 10896 3d6a 32       		.uleb128 0x32
 10897 3d6b 01       		.uleb128 0x1
 10898 3d6c 51       		.byte	0x51
 10899 3d6d 02       		.uleb128 0x2
 10900 3d6e 75       		.byte	0x75
 10901 3d6f 00       		.sleb128 0
 10902 3d70 00       		.byte	0
 10903 3d71 00       		.byte	0
 10904 3d72 3D       		.uleb128 0x3d
 10905 3d73 EC4B0000 		.4byte	0x4bec
 10906 3d77 16010000 		.4byte	.LBB351
 10907 3d7b 08000000 		.4byte	.LBE351-.LBB351
 10908 3d7f 01       		.byte	0x1
 10909 3d80 CC01     		.2byte	0x1cc
 10910 3d82 A63D0000 		.4byte	0x3da6
ARM GAS  /var/folders/j2/t8glr22d56s93xphj_30s8g80000gn/T//cc8l81ic.s 			page 193


 10911 3d86 3F       		.uleb128 0x3f
 10912 3d87 F84B0000 		.4byte	0x4bf8
 10913 3d8b A4010000 		.4byte	.LLST30
 10914 3d8f 40       		.uleb128 0x40
 10915 3d90 1E010000 		.4byte	.LVL117
 10916 3d94 1C4C0000 		.4byte	0x4c1c
 10917 3d98 32       		.uleb128 0x32
 10918 3d99 01       		.uleb128 0x1
 10919 3d9a 50       		.byte	0x50
 10920 3d9b 02       		.uleb128 0x2
 10921 3d9c 77       		.byte	0x77
 10922 3d9d 00       		.sleb128 0
 10923 3d9e 32       		.uleb128 0x32
 10924 3d9f 01       		.uleb128 0x1
 10925 3da0 51       		.byte	0x51
 10926 3da1 02       		.uleb128 0x2
 10927 3da2 75       		.byte	0x75
 10928 3da3 00       		.sleb128 0
 10929 3da4 00       		.byte	0
 10930 3da5 00       		.byte	0
 10931 3da6 3D       		.uleb128 0x3d
 10932 3da7 044C0000 		.4byte	0x4c04
 10933 3dab 24010000 		.4byte	.LBB353
 10934 3daf 0A000000 		.4byte	.LBE353-.LBB353
 10935 3db3 01       		.byte	0x1
 10936 3db4 CE01     		.2byte	0x1ce
 10937 3db6 DB3D0000 		.4byte	0x3ddb
 10938 3dba 3F       		.uleb128 0x3f
 10939 3dbb 104C0000 		.4byte	0x4c10
 10940 3dbf B8010000 		.4byte	.LLST31
 10941 3dc3 40       		.uleb128 0x40
 10942 3dc4 2E010000 		.4byte	.LVL119
 10943 3dc8 1C4C0000 		.4byte	0x4c1c
 10944 3dcc 32       		.uleb128 0x32
 10945 3dcd 01       		.uleb128 0x1
 10946 3dce 50       		.byte	0x50
 10947 3dcf 02       		.uleb128 0x2
 10948 3dd0 78       		.byte	0x78
 10949 3dd1 00       		.sleb128 0
 10950 3dd2 32       		.uleb128 0x32
 10951 3dd3 01       		.uleb128 0x1
 10952 3dd4 51       		.byte	0x51
 10953 3dd5 03       		.uleb128 0x3
 10954 3dd6 0A       		.byte	0xa
 10955 3dd7 E803     		.2byte	0x3e8
 10956 3dd9 00       		.byte	0
 10957 3dda 00       		.byte	0
 10958 3ddb 3D       		.uleb128 0x3d
 10959 3ddc EC4B0000 		.4byte	0x4bec
 10960 3de0 2E010000 		.4byte	.LBB355
 10961 3de4 08000000 		.4byte	.LBE355-.LBB355
 10962 3de8 01       		.byte	0x1
 10963 3de9 CF01     		.2byte	0x1cf
 10964 3deb 103E0000 		.4byte	0x3e10
 10965 3def 3F       		.uleb128 0x3f
 10966 3df0 F84B0000 		.4byte	0x4bf8
 10967 3df4 CE010000 		.4byte	.LLST32
ARM GAS  /var/folders/j2/t8glr22d56s93xphj_30s8g80000gn/T//cc8l81ic.s 			page 194


 10968 3df8 40       		.uleb128 0x40
 10969 3df9 36010000 		.4byte	.LVL120
 10970 3dfd 1C4C0000 		.4byte	0x4c1c
 10971 3e01 32       		.uleb128 0x32
 10972 3e02 01       		.uleb128 0x1
 10973 3e03 50       		.byte	0x50
 10974 3e04 02       		.uleb128 0x2
 10975 3e05 77       		.byte	0x77
 10976 3e06 00       		.sleb128 0
 10977 3e07 32       		.uleb128 0x32
 10978 3e08 01       		.uleb128 0x1
 10979 3e09 51       		.byte	0x51
 10980 3e0a 03       		.uleb128 0x3
 10981 3e0b 0B       		.byte	0xb
 10982 3e0c 18FC     		.2byte	0xfc18
 10983 3e0e 00       		.byte	0
 10984 3e0f 00       		.byte	0
 10985 3e10 38       		.uleb128 0x38
 10986 3e11 044C0000 		.4byte	0x4c04
 10987 3e15 3E010000 		.4byte	.LBB357
 10988 3e19 08010000 		.4byte	.Ldebug_ranges0+0x108
 10989 3e1d 01       		.byte	0x1
 10990 3e1e D301     		.2byte	0x1d3
 10991 3e20 443E0000 		.4byte	0x3e44
 10992 3e24 3F       		.uleb128 0x3f
 10993 3e25 104C0000 		.4byte	0x4c10
 10994 3e29 E4010000 		.4byte	.LLST33
 10995 3e2d 40       		.uleb128 0x40
 10996 3e2e 4A010000 		.4byte	.LVL123
 10997 3e32 1C4C0000 		.4byte	0x4c1c
 10998 3e36 32       		.uleb128 0x32
 10999 3e37 01       		.uleb128 0x1
 11000 3e38 50       		.byte	0x50
 11001 3e39 02       		.uleb128 0x2
 11002 3e3a 78       		.byte	0x78
 11003 3e3b 00       		.sleb128 0
 11004 3e3c 32       		.uleb128 0x32
 11005 3e3d 01       		.uleb128 0x1
 11006 3e3e 51       		.byte	0x51
 11007 3e3f 02       		.uleb128 0x2
 11008 3e40 75       		.byte	0x75
 11009 3e41 00       		.sleb128 0
 11010 3e42 00       		.byte	0
 11011 3e43 00       		.byte	0
 11012 3e44 3D       		.uleb128 0x3d
 11013 3e45 EC4B0000 		.4byte	0x4bec
 11014 3e49 4A010000 		.4byte	.LBB361
 11015 3e4d 08000000 		.4byte	.LBE361-.LBB361
 11016 3e51 01       		.byte	0x1
 11017 3e52 D401     		.2byte	0x1d4
 11018 3e54 783E0000 		.4byte	0x3e78
 11019 3e58 3F       		.uleb128 0x3f
 11020 3e59 F84B0000 		.4byte	0x4bf8
 11021 3e5d F8010000 		.4byte	.LLST34
 11022 3e61 40       		.uleb128 0x40
 11023 3e62 52010000 		.4byte	.LVL124
 11024 3e66 1C4C0000 		.4byte	0x4c1c
ARM GAS  /var/folders/j2/t8glr22d56s93xphj_30s8g80000gn/T//cc8l81ic.s 			page 195


 11025 3e6a 32       		.uleb128 0x32
 11026 3e6b 01       		.uleb128 0x1
 11027 3e6c 50       		.byte	0x50
 11028 3e6d 02       		.uleb128 0x2
 11029 3e6e 77       		.byte	0x77
 11030 3e6f 00       		.sleb128 0
 11031 3e70 32       		.uleb128 0x32
 11032 3e71 01       		.uleb128 0x1
 11033 3e72 51       		.byte	0x51
 11034 3e73 02       		.uleb128 0x2
 11035 3e74 75       		.byte	0x75
 11036 3e75 00       		.sleb128 0
 11037 3e76 00       		.byte	0
 11038 3e77 00       		.byte	0
 11039 3e78 3D       		.uleb128 0x3d
 11040 3e79 044C0000 		.4byte	0x4c04
 11041 3e7d 58010000 		.4byte	.LBB363
 11042 3e81 0A000000 		.4byte	.LBE363-.LBB363
 11043 3e85 01       		.byte	0x1
 11044 3e86 D601     		.2byte	0x1d6
 11045 3e88 AD3E0000 		.4byte	0x3ead
 11046 3e8c 3F       		.uleb128 0x3f
 11047 3e8d 104C0000 		.4byte	0x4c10
 11048 3e91 0C020000 		.4byte	.LLST35
 11049 3e95 40       		.uleb128 0x40
 11050 3e96 62010000 		.4byte	.LVL126
 11051 3e9a 1C4C0000 		.4byte	0x4c1c
 11052 3e9e 32       		.uleb128 0x32
 11053 3e9f 01       		.uleb128 0x1
 11054 3ea0 50       		.byte	0x50
 11055 3ea1 02       		.uleb128 0x2
 11056 3ea2 78       		.byte	0x78
 11057 3ea3 00       		.sleb128 0
 11058 3ea4 32       		.uleb128 0x32
 11059 3ea5 01       		.uleb128 0x1
 11060 3ea6 51       		.byte	0x51
 11061 3ea7 03       		.uleb128 0x3
 11062 3ea8 0A       		.byte	0xa
 11063 3ea9 E803     		.2byte	0x3e8
 11064 3eab 00       		.byte	0
 11065 3eac 00       		.byte	0
 11066 3ead 3D       		.uleb128 0x3d
 11067 3eae EC4B0000 		.4byte	0x4bec
 11068 3eb2 62010000 		.4byte	.LBB365
 11069 3eb6 0A000000 		.4byte	.LBE365-.LBB365
 11070 3eba 01       		.byte	0x1
 11071 3ebb D701     		.2byte	0x1d7
 11072 3ebd E23E0000 		.4byte	0x3ee2
 11073 3ec1 3F       		.uleb128 0x3f
 11074 3ec2 F84B0000 		.4byte	0x4bf8
 11075 3ec6 22020000 		.4byte	.LLST36
 11076 3eca 40       		.uleb128 0x40
 11077 3ecb 6C010000 		.4byte	.LVL127
 11078 3ecf 1C4C0000 		.4byte	0x4c1c
 11079 3ed3 32       		.uleb128 0x32
 11080 3ed4 01       		.uleb128 0x1
 11081 3ed5 50       		.byte	0x50
ARM GAS  /var/folders/j2/t8glr22d56s93xphj_30s8g80000gn/T//cc8l81ic.s 			page 196


 11082 3ed6 02       		.uleb128 0x2
 11083 3ed7 77       		.byte	0x77
 11084 3ed8 00       		.sleb128 0
 11085 3ed9 32       		.uleb128 0x32
 11086 3eda 01       		.uleb128 0x1
 11087 3edb 51       		.byte	0x51
 11088 3edc 03       		.uleb128 0x3
 11089 3edd 0A       		.byte	0xa
 11090 3ede E803     		.2byte	0x3e8
 11091 3ee0 00       		.byte	0
 11092 3ee1 00       		.byte	0
 11093 3ee2 38       		.uleb128 0x38
 11094 3ee3 044C0000 		.4byte	0x4c04
 11095 3ee7 74010000 		.4byte	.LBB367
 11096 3eeb 20010000 		.4byte	.Ldebug_ranges0+0x120
 11097 3eef 01       		.byte	0x1
 11098 3ef0 DA01     		.2byte	0x1da
 11099 3ef2 173F0000 		.4byte	0x3f17
 11100 3ef6 3F       		.uleb128 0x3f
 11101 3ef7 104C0000 		.4byte	0x4c10
 11102 3efb 38020000 		.4byte	.LLST37
 11103 3eff 40       		.uleb128 0x40
 11104 3f00 82010000 		.4byte	.LVL130
 11105 3f04 1C4C0000 		.4byte	0x4c1c
 11106 3f08 32       		.uleb128 0x32
 11107 3f09 01       		.uleb128 0x1
 11108 3f0a 50       		.byte	0x50
 11109 3f0b 02       		.uleb128 0x2
 11110 3f0c 78       		.byte	0x78
 11111 3f0d 00       		.sleb128 0
 11112 3f0e 32       		.uleb128 0x32
 11113 3f0f 01       		.uleb128 0x1
 11114 3f10 51       		.byte	0x51
 11115 3f11 03       		.uleb128 0x3
 11116 3f12 0A       		.byte	0xa
 11117 3f13 E803     		.2byte	0x3e8
 11118 3f15 00       		.byte	0
 11119 3f16 00       		.byte	0
 11120 3f17 3D       		.uleb128 0x3d
 11121 3f18 EC4B0000 		.4byte	0x4bec
 11122 3f1c 82010000 		.4byte	.LBB371
 11123 3f20 0A000000 		.4byte	.LBE371-.LBB371
 11124 3f24 01       		.byte	0x1
 11125 3f25 DB01     		.2byte	0x1db
 11126 3f27 4C3F0000 		.4byte	0x3f4c
 11127 3f2b 3F       		.uleb128 0x3f
 11128 3f2c F84B0000 		.4byte	0x4bf8
 11129 3f30 4E020000 		.4byte	.LLST38
 11130 3f34 40       		.uleb128 0x40
 11131 3f35 8C010000 		.4byte	.LVL131
 11132 3f39 1C4C0000 		.4byte	0x4c1c
 11133 3f3d 32       		.uleb128 0x32
 11134 3f3e 01       		.uleb128 0x1
 11135 3f3f 50       		.byte	0x50
 11136 3f40 02       		.uleb128 0x2
 11137 3f41 77       		.byte	0x77
 11138 3f42 00       		.sleb128 0
ARM GAS  /var/folders/j2/t8glr22d56s93xphj_30s8g80000gn/T//cc8l81ic.s 			page 197


 11139 3f43 32       		.uleb128 0x32
 11140 3f44 01       		.uleb128 0x1
 11141 3f45 51       		.byte	0x51
 11142 3f46 03       		.uleb128 0x3
 11143 3f47 0A       		.byte	0xa
 11144 3f48 E803     		.2byte	0x3e8
 11145 3f4a 00       		.byte	0
 11146 3f4b 00       		.byte	0
 11147 3f4c 3D       		.uleb128 0x3d
 11148 3f4d 044C0000 		.4byte	0x4c04
 11149 3f51 94010000 		.4byte	.LBB373
 11150 3f55 08000000 		.4byte	.LBE373-.LBB373
 11151 3f59 01       		.byte	0x1
 11152 3f5a DF01     		.2byte	0x1df
 11153 3f5c 803F0000 		.4byte	0x3f80
 11154 3f60 3F       		.uleb128 0x3f
 11155 3f61 104C0000 		.4byte	0x4c10
 11156 3f65 64020000 		.4byte	.LLST39
 11157 3f69 40       		.uleb128 0x40
 11158 3f6a 9C010000 		.4byte	.LVL133
 11159 3f6e 1C4C0000 		.4byte	0x4c1c
 11160 3f72 32       		.uleb128 0x32
 11161 3f73 01       		.uleb128 0x1
 11162 3f74 50       		.byte	0x50
 11163 3f75 02       		.uleb128 0x2
 11164 3f76 78       		.byte	0x78
 11165 3f77 00       		.sleb128 0
 11166 3f78 32       		.uleb128 0x32
 11167 3f79 01       		.uleb128 0x1
 11168 3f7a 51       		.byte	0x51
 11169 3f7b 02       		.uleb128 0x2
 11170 3f7c 75       		.byte	0x75
 11171 3f7d 00       		.sleb128 0
 11172 3f7e 00       		.byte	0
 11173 3f7f 00       		.byte	0
 11174 3f80 3D       		.uleb128 0x3d
 11175 3f81 EC4B0000 		.4byte	0x4bec
 11176 3f85 9C010000 		.4byte	.LBB375
 11177 3f89 08000000 		.4byte	.LBE375-.LBB375
 11178 3f8d 01       		.byte	0x1
 11179 3f8e E001     		.2byte	0x1e0
 11180 3f90 B43F0000 		.4byte	0x3fb4
 11181 3f94 3F       		.uleb128 0x3f
 11182 3f95 F84B0000 		.4byte	0x4bf8
 11183 3f99 78020000 		.4byte	.LLST40
 11184 3f9d 40       		.uleb128 0x40
 11185 3f9e A4010000 		.4byte	.LVL134
 11186 3fa2 1C4C0000 		.4byte	0x4c1c
 11187 3fa6 32       		.uleb128 0x32
 11188 3fa7 01       		.uleb128 0x1
 11189 3fa8 50       		.byte	0x50
 11190 3fa9 02       		.uleb128 0x2
 11191 3faa 77       		.byte	0x77
 11192 3fab 00       		.sleb128 0
 11193 3fac 32       		.uleb128 0x32
 11194 3fad 01       		.uleb128 0x1
 11195 3fae 51       		.byte	0x51
ARM GAS  /var/folders/j2/t8glr22d56s93xphj_30s8g80000gn/T//cc8l81ic.s 			page 198


 11196 3faf 02       		.uleb128 0x2
 11197 3fb0 75       		.byte	0x75
 11198 3fb1 00       		.sleb128 0
 11199 3fb2 00       		.byte	0
 11200 3fb3 00       		.byte	0
 11201 3fb4 3D       		.uleb128 0x3d
 11202 3fb5 044C0000 		.4byte	0x4c04
 11203 3fb9 AA010000 		.4byte	.LBB377
 11204 3fbd 0A000000 		.4byte	.LBE377-.LBB377
 11205 3fc1 01       		.byte	0x1
 11206 3fc2 E201     		.2byte	0x1e2
 11207 3fc4 E93F0000 		.4byte	0x3fe9
 11208 3fc8 3F       		.uleb128 0x3f
 11209 3fc9 104C0000 		.4byte	0x4c10
 11210 3fcd 8C020000 		.4byte	.LLST41
 11211 3fd1 40       		.uleb128 0x40
 11212 3fd2 B4010000 		.4byte	.LVL136
 11213 3fd6 1C4C0000 		.4byte	0x4c1c
 11214 3fda 32       		.uleb128 0x32
 11215 3fdb 01       		.uleb128 0x1
 11216 3fdc 50       		.byte	0x50
 11217 3fdd 02       		.uleb128 0x2
 11218 3fde 78       		.byte	0x78
 11219 3fdf 00       		.sleb128 0
 11220 3fe0 32       		.uleb128 0x32
 11221 3fe1 01       		.uleb128 0x1
 11222 3fe2 51       		.byte	0x51
 11223 3fe3 03       		.uleb128 0x3
 11224 3fe4 0A       		.byte	0xa
 11225 3fe5 E803     		.2byte	0x3e8
 11226 3fe7 00       		.byte	0
 11227 3fe8 00       		.byte	0
 11228 3fe9 3D       		.uleb128 0x3d
 11229 3fea EC4B0000 		.4byte	0x4bec
 11230 3fee B4010000 		.4byte	.LBB379
 11231 3ff2 08000000 		.4byte	.LBE379-.LBB379
 11232 3ff6 01       		.byte	0x1
 11233 3ff7 E301     		.2byte	0x1e3
 11234 3ff9 1E400000 		.4byte	0x401e
 11235 3ffd 3F       		.uleb128 0x3f
 11236 3ffe F84B0000 		.4byte	0x4bf8
 11237 4002 A2020000 		.4byte	.LLST42
 11238 4006 40       		.uleb128 0x40
 11239 4007 BC010000 		.4byte	.LVL137
 11240 400b 1C4C0000 		.4byte	0x4c1c
 11241 400f 32       		.uleb128 0x32
 11242 4010 01       		.uleb128 0x1
 11243 4011 50       		.byte	0x50
 11244 4012 02       		.uleb128 0x2
 11245 4013 77       		.byte	0x77
 11246 4014 00       		.sleb128 0
 11247 4015 32       		.uleb128 0x32
 11248 4016 01       		.uleb128 0x1
 11249 4017 51       		.byte	0x51
 11250 4018 03       		.uleb128 0x3
 11251 4019 0B       		.byte	0xb
 11252 401a 18FC     		.2byte	0xfc18
ARM GAS  /var/folders/j2/t8glr22d56s93xphj_30s8g80000gn/T//cc8l81ic.s 			page 199


 11253 401c 00       		.byte	0
 11254 401d 00       		.byte	0
 11255 401e 3D       		.uleb128 0x3d
 11256 401f 044C0000 		.4byte	0x4c04
 11257 4023 C4010000 		.4byte	.LBB381
 11258 4027 08000000 		.4byte	.LBE381-.LBB381
 11259 402b 01       		.byte	0x1
 11260 402c E701     		.2byte	0x1e7
 11261 402e 52400000 		.4byte	0x4052
 11262 4032 3F       		.uleb128 0x3f
 11263 4033 104C0000 		.4byte	0x4c10
 11264 4037 B8020000 		.4byte	.LLST43
 11265 403b 40       		.uleb128 0x40
 11266 403c CC010000 		.4byte	.LVL139
 11267 4040 1C4C0000 		.4byte	0x4c1c
 11268 4044 32       		.uleb128 0x32
 11269 4045 01       		.uleb128 0x1
 11270 4046 50       		.byte	0x50
 11271 4047 02       		.uleb128 0x2
 11272 4048 78       		.byte	0x78
 11273 4049 00       		.sleb128 0
 11274 404a 32       		.uleb128 0x32
 11275 404b 01       		.uleb128 0x1
 11276 404c 51       		.byte	0x51
 11277 404d 02       		.uleb128 0x2
 11278 404e 75       		.byte	0x75
 11279 404f 00       		.sleb128 0
 11280 4050 00       		.byte	0
 11281 4051 00       		.byte	0
 11282 4052 3D       		.uleb128 0x3d
 11283 4053 EC4B0000 		.4byte	0x4bec
 11284 4057 CC010000 		.4byte	.LBB383
 11285 405b 08000000 		.4byte	.LBE383-.LBB383
 11286 405f 01       		.byte	0x1
 11287 4060 E801     		.2byte	0x1e8
 11288 4062 86400000 		.4byte	0x4086
 11289 4066 3F       		.uleb128 0x3f
 11290 4067 F84B0000 		.4byte	0x4bf8
 11291 406b CC020000 		.4byte	.LLST44
 11292 406f 40       		.uleb128 0x40
 11293 4070 D4010000 		.4byte	.LVL140
 11294 4074 1C4C0000 		.4byte	0x4c1c
 11295 4078 32       		.uleb128 0x32
 11296 4079 01       		.uleb128 0x1
 11297 407a 50       		.byte	0x50
 11298 407b 02       		.uleb128 0x2
 11299 407c 77       		.byte	0x77
 11300 407d 00       		.sleb128 0
 11301 407e 32       		.uleb128 0x32
 11302 407f 01       		.uleb128 0x1
 11303 4080 51       		.byte	0x51
 11304 4081 02       		.uleb128 0x2
 11305 4082 75       		.byte	0x75
 11306 4083 00       		.sleb128 0
 11307 4084 00       		.byte	0
 11308 4085 00       		.byte	0
 11309 4086 3D       		.uleb128 0x3d
ARM GAS  /var/folders/j2/t8glr22d56s93xphj_30s8g80000gn/T//cc8l81ic.s 			page 200


 11310 4087 044C0000 		.4byte	0x4c04
 11311 408b DA010000 		.4byte	.LBB385
 11312 408f 0A000000 		.4byte	.LBE385-.LBB385
 11313 4093 01       		.byte	0x1
 11314 4094 EA01     		.2byte	0x1ea
 11315 4096 BB400000 		.4byte	0x40bb
 11316 409a 3F       		.uleb128 0x3f
 11317 409b 104C0000 		.4byte	0x4c10
 11318 409f E0020000 		.4byte	.LLST45
 11319 40a3 40       		.uleb128 0x40
 11320 40a4 E4010000 		.4byte	.LVL142
 11321 40a8 1C4C0000 		.4byte	0x4c1c
 11322 40ac 32       		.uleb128 0x32
 11323 40ad 01       		.uleb128 0x1
 11324 40ae 50       		.byte	0x50
 11325 40af 02       		.uleb128 0x2
 11326 40b0 78       		.byte	0x78
 11327 40b1 00       		.sleb128 0
 11328 40b2 32       		.uleb128 0x32
 11329 40b3 01       		.uleb128 0x1
 11330 40b4 51       		.byte	0x51
 11331 40b5 03       		.uleb128 0x3
 11332 40b6 0A       		.byte	0xa
 11333 40b7 E803     		.2byte	0x3e8
 11334 40b9 00       		.byte	0
 11335 40ba 00       		.byte	0
 11336 40bb 3D       		.uleb128 0x3d
 11337 40bc EC4B0000 		.4byte	0x4bec
 11338 40c0 E4010000 		.4byte	.LBB387
 11339 40c4 0A000000 		.4byte	.LBE387-.LBB387
 11340 40c8 01       		.byte	0x1
 11341 40c9 EB01     		.2byte	0x1eb
 11342 40cb F0400000 		.4byte	0x40f0
 11343 40cf 3F       		.uleb128 0x3f
 11344 40d0 F84B0000 		.4byte	0x4bf8
 11345 40d4 F6020000 		.4byte	.LLST46
 11346 40d8 40       		.uleb128 0x40
 11347 40d9 EE010000 		.4byte	.LVL143
 11348 40dd 1C4C0000 		.4byte	0x4c1c
 11349 40e1 32       		.uleb128 0x32
 11350 40e2 01       		.uleb128 0x1
 11351 40e3 50       		.byte	0x50
 11352 40e4 02       		.uleb128 0x2
 11353 40e5 77       		.byte	0x77
 11354 40e6 00       		.sleb128 0
 11355 40e7 32       		.uleb128 0x32
 11356 40e8 01       		.uleb128 0x1
 11357 40e9 51       		.byte	0x51
 11358 40ea 03       		.uleb128 0x3
 11359 40eb 0A       		.byte	0xa
 11360 40ec E803     		.2byte	0x3e8
 11361 40ee 00       		.byte	0
 11362 40ef 00       		.byte	0
 11363 40f0 3D       		.uleb128 0x3d
 11364 40f1 044C0000 		.4byte	0x4c04
 11365 40f5 F6010000 		.4byte	.LBB389
 11366 40f9 08000000 		.4byte	.LBE389-.LBB389
ARM GAS  /var/folders/j2/t8glr22d56s93xphj_30s8g80000gn/T//cc8l81ic.s 			page 201


 11367 40fd 01       		.byte	0x1
 11368 40fe EE01     		.2byte	0x1ee
 11369 4100 24410000 		.4byte	0x4124
 11370 4104 3F       		.uleb128 0x3f
 11371 4105 104C0000 		.4byte	0x4c10
 11372 4109 0C030000 		.4byte	.LLST47
 11373 410d 40       		.uleb128 0x40
 11374 410e FE010000 		.4byte	.LVL145
 11375 4112 1C4C0000 		.4byte	0x4c1c
 11376 4116 32       		.uleb128 0x32
 11377 4117 01       		.uleb128 0x1
 11378 4118 50       		.byte	0x50
 11379 4119 02       		.uleb128 0x2
 11380 411a 78       		.byte	0x78
 11381 411b 00       		.sleb128 0
 11382 411c 32       		.uleb128 0x32
 11383 411d 01       		.uleb128 0x1
 11384 411e 51       		.byte	0x51
 11385 411f 02       		.uleb128 0x2
 11386 4120 75       		.byte	0x75
 11387 4121 00       		.sleb128 0
 11388 4122 00       		.byte	0
 11389 4123 00       		.byte	0
 11390 4124 3D       		.uleb128 0x3d
 11391 4125 EC4B0000 		.4byte	0x4bec
 11392 4129 FE010000 		.4byte	.LBB391
 11393 412d 08000000 		.4byte	.LBE391-.LBB391
 11394 4131 01       		.byte	0x1
 11395 4132 EF01     		.2byte	0x1ef
 11396 4134 58410000 		.4byte	0x4158
 11397 4138 3F       		.uleb128 0x3f
 11398 4139 F84B0000 		.4byte	0x4bf8
 11399 413d 20030000 		.4byte	.LLST48
 11400 4141 40       		.uleb128 0x40
 11401 4142 06020000 		.4byte	.LVL146
 11402 4146 1C4C0000 		.4byte	0x4c1c
 11403 414a 32       		.uleb128 0x32
 11404 414b 01       		.uleb128 0x1
 11405 414c 50       		.byte	0x50
 11406 414d 02       		.uleb128 0x2
 11407 414e 77       		.byte	0x77
 11408 414f 00       		.sleb128 0
 11409 4150 32       		.uleb128 0x32
 11410 4151 01       		.uleb128 0x1
 11411 4152 51       		.byte	0x51
 11412 4153 02       		.uleb128 0x2
 11413 4154 75       		.byte	0x75
 11414 4155 00       		.sleb128 0
 11415 4156 00       		.byte	0
 11416 4157 00       		.byte	0
 11417 4158 3D       		.uleb128 0x3d
 11418 4159 044C0000 		.4byte	0x4c04
 11419 415d 0C020000 		.4byte	.LBB393
 11420 4161 08000000 		.4byte	.LBE393-.LBB393
 11421 4165 01       		.byte	0x1
 11422 4166 F101     		.2byte	0x1f1
 11423 4168 8D410000 		.4byte	0x418d
ARM GAS  /var/folders/j2/t8glr22d56s93xphj_30s8g80000gn/T//cc8l81ic.s 			page 202


 11424 416c 3F       		.uleb128 0x3f
 11425 416d 104C0000 		.4byte	0x4c10
 11426 4171 34030000 		.4byte	.LLST49
 11427 4175 40       		.uleb128 0x40
 11428 4176 14020000 		.4byte	.LVL148
 11429 417a 1C4C0000 		.4byte	0x4c1c
 11430 417e 32       		.uleb128 0x32
 11431 417f 01       		.uleb128 0x1
 11432 4180 50       		.byte	0x50
 11433 4181 02       		.uleb128 0x2
 11434 4182 78       		.byte	0x78
 11435 4183 00       		.sleb128 0
 11436 4184 32       		.uleb128 0x32
 11437 4185 01       		.uleb128 0x1
 11438 4186 51       		.byte	0x51
 11439 4187 03       		.uleb128 0x3
 11440 4188 0B       		.byte	0xb
 11441 4189 18FC     		.2byte	0xfc18
 11442 418b 00       		.byte	0
 11443 418c 00       		.byte	0
 11444 418d 3D       		.uleb128 0x3d
 11445 418e EC4B0000 		.4byte	0x4bec
 11446 4192 14020000 		.4byte	.LBB395
 11447 4196 0A000000 		.4byte	.LBE395-.LBB395
 11448 419a 01       		.byte	0x1
 11449 419b F201     		.2byte	0x1f2
 11450 419d C2410000 		.4byte	0x41c2
 11451 41a1 3F       		.uleb128 0x3f
 11452 41a2 F84B0000 		.4byte	0x4bf8
 11453 41a6 4A030000 		.4byte	.LLST50
 11454 41aa 40       		.uleb128 0x40
 11455 41ab 1E020000 		.4byte	.LVL149
 11456 41af 1C4C0000 		.4byte	0x4c1c
 11457 41b3 32       		.uleb128 0x32
 11458 41b4 01       		.uleb128 0x1
 11459 41b5 50       		.byte	0x50
 11460 41b6 02       		.uleb128 0x2
 11461 41b7 77       		.byte	0x77
 11462 41b8 00       		.sleb128 0
 11463 41b9 32       		.uleb128 0x32
 11464 41ba 01       		.uleb128 0x1
 11465 41bb 51       		.byte	0x51
 11466 41bc 03       		.uleb128 0x3
 11467 41bd 0A       		.byte	0xa
 11468 41be E803     		.2byte	0x3e8
 11469 41c0 00       		.byte	0
 11470 41c1 00       		.byte	0
 11471 41c2 31       		.uleb128 0x31
 11472 41c3 38000000 		.4byte	.LVL90
 11473 41c7 50510000 		.4byte	0x5150
 11474 41cb DC410000 		.4byte	0x41dc
 11475 41cf 32       		.uleb128 0x32
 11476 41d0 01       		.uleb128 0x1
 11477 41d1 50       		.byte	0x50
 11478 41d2 02       		.uleb128 0x2
 11479 41d3 76       		.byte	0x76
 11480 41d4 00       		.sleb128 0
ARM GAS  /var/folders/j2/t8glr22d56s93xphj_30s8g80000gn/T//cc8l81ic.s 			page 203


 11481 41d5 32       		.uleb128 0x32
 11482 41d6 01       		.uleb128 0x1
 11483 41d7 51       		.byte	0x51
 11484 41d8 02       		.uleb128 0x2
 11485 41d9 76       		.byte	0x76
 11486 41da 0A       		.sleb128 10
 11487 41db 00       		.byte	0
 11488 41dc 31       		.uleb128 0x31
 11489 41dd 70000000 		.4byte	.LVL98
 11490 41e1 5B510000 		.4byte	0x515b
 11491 41e5 EF410000 		.4byte	0x41ef
 11492 41e9 32       		.uleb128 0x32
 11493 41ea 01       		.uleb128 0x1
 11494 41eb 50       		.byte	0x50
 11495 41ec 01       		.uleb128 0x1
 11496 41ed 30       		.byte	0x30
 11497 41ee 00       		.byte	0
 11498 41ef 31       		.uleb128 0x31
 11499 41f0 7A000000 		.4byte	.LVL99
 11500 41f4 5B510000 		.4byte	0x515b
 11501 41f8 02420000 		.4byte	0x4202
 11502 41fc 32       		.uleb128 0x32
 11503 41fd 01       		.uleb128 0x1
 11504 41fe 50       		.byte	0x50
 11505 41ff 01       		.uleb128 0x1
 11506 4200 37       		.byte	0x37
 11507 4201 00       		.byte	0
 11508 4202 31       		.uleb128 0x31
 11509 4203 AC000000 		.4byte	.LVL103
 11510 4207 76510000 		.4byte	0x5176
 11511 420b 17420000 		.4byte	0x4217
 11512 420f 32       		.uleb128 0x32
 11513 4210 01       		.uleb128 0x1
 11514 4211 50       		.byte	0x50
 11515 4212 03       		.uleb128 0x3
 11516 4213 0A       		.byte	0xa
 11517 4214 F401     		.2byte	0x1f4
 11518 4216 00       		.byte	0
 11519 4217 31       		.uleb128 0x31
 11520 4218 C2000000 		.4byte	.LVL106
 11521 421c 76510000 		.4byte	0x5176
 11522 4220 2A420000 		.4byte	0x422a
 11523 4224 32       		.uleb128 0x32
 11524 4225 01       		.uleb128 0x1
 11525 4226 50       		.byte	0x50
 11526 4227 01       		.uleb128 0x1
 11527 4228 3A       		.byte	0x3a
 11528 4229 00       		.byte	0
 11529 422a 31       		.uleb128 0x31
 11530 422b DC000000 		.4byte	.LVL109
 11531 422f 76510000 		.4byte	0x5176
 11532 4233 3F420000 		.4byte	0x423f
 11533 4237 32       		.uleb128 0x32
 11534 4238 01       		.uleb128 0x1
 11535 4239 50       		.byte	0x50
 11536 423a 03       		.uleb128 0x3
 11537 423b 0A       		.byte	0xa
ARM GAS  /var/folders/j2/t8glr22d56s93xphj_30s8g80000gn/T//cc8l81ic.s 			page 204


 11538 423c 4501     		.2byte	0x145
 11539 423e 00       		.byte	0
 11540 423f 31       		.uleb128 0x31
 11541 4240 F2000000 		.4byte	.LVL112
 11542 4244 76510000 		.4byte	0x5176
 11543 4248 52420000 		.4byte	0x4252
 11544 424c 32       		.uleb128 0x32
 11545 424d 01       		.uleb128 0x1
 11546 424e 50       		.byte	0x50
 11547 424f 01       		.uleb128 0x1
 11548 4250 3A       		.byte	0x3a
 11549 4251 00       		.byte	0
 11550 4252 31       		.uleb128 0x31
 11551 4253 0E010000 		.4byte	.LVL115
 11552 4257 76510000 		.4byte	0x5176
 11553 425b 67420000 		.4byte	0x4267
 11554 425f 32       		.uleb128 0x32
 11555 4260 01       		.uleb128 0x1
 11556 4261 50       		.byte	0x50
 11557 4262 03       		.uleb128 0x3
 11558 4263 0A       		.byte	0xa
 11559 4264 EE02     		.2byte	0x2ee
 11560 4266 00       		.byte	0
 11561 4267 31       		.uleb128 0x31
 11562 4268 24010000 		.4byte	.LVL118
 11563 426c 76510000 		.4byte	0x5176
 11564 4270 7A420000 		.4byte	0x427a
 11565 4274 32       		.uleb128 0x32
 11566 4275 01       		.uleb128 0x1
 11567 4276 50       		.byte	0x50
 11568 4277 01       		.uleb128 0x1
 11569 4278 3A       		.byte	0x3a
 11570 4279 00       		.byte	0
 11571 427a 31       		.uleb128 0x31
 11572 427b 3E010000 		.4byte	.LVL121
 11573 427f 76510000 		.4byte	0x5176
 11574 4283 8F420000 		.4byte	0x428f
 11575 4287 32       		.uleb128 0x32
 11576 4288 01       		.uleb128 0x1
 11577 4289 50       		.byte	0x50
 11578 428a 03       		.uleb128 0x3
 11579 428b 0A       		.byte	0xa
 11580 428c 4501     		.2byte	0x145
 11581 428e 00       		.byte	0
 11582 428f 31       		.uleb128 0x31
 11583 4290 58010000 		.4byte	.LVL125
 11584 4294 76510000 		.4byte	0x5176
 11585 4298 A2420000 		.4byte	0x42a2
 11586 429c 32       		.uleb128 0x32
 11587 429d 01       		.uleb128 0x1
 11588 429e 50       		.byte	0x50
 11589 429f 01       		.uleb128 0x1
 11590 42a0 3A       		.byte	0x3a
 11591 42a1 00       		.byte	0
 11592 42a2 31       		.uleb128 0x31
 11593 42a3 74010000 		.4byte	.LVL128
 11594 42a7 76510000 		.4byte	0x5176
ARM GAS  /var/folders/j2/t8glr22d56s93xphj_30s8g80000gn/T//cc8l81ic.s 			page 205


 11595 42ab B7420000 		.4byte	0x42b7
 11596 42af 32       		.uleb128 0x32
 11597 42b0 01       		.uleb128 0x1
 11598 42b1 50       		.byte	0x50
 11599 42b2 03       		.uleb128 0x3
 11600 42b3 0A       		.byte	0xa
 11601 42b4 DC05     		.2byte	0x5dc
 11602 42b6 00       		.byte	0
 11603 42b7 31       		.uleb128 0x31
 11604 42b8 94010000 		.4byte	.LVL132
 11605 42bc 76510000 		.4byte	0x5176
 11606 42c0 CC420000 		.4byte	0x42cc
 11607 42c4 32       		.uleb128 0x32
 11608 42c5 01       		.uleb128 0x1
 11609 42c6 50       		.byte	0x50
 11610 42c7 03       		.uleb128 0x3
 11611 42c8 0A       		.byte	0xa
 11612 42c9 E803     		.2byte	0x3e8
 11613 42cb 00       		.byte	0
 11614 42cc 31       		.uleb128 0x31
 11615 42cd AA010000 		.4byte	.LVL135
 11616 42d1 76510000 		.4byte	0x5176
 11617 42d5 DF420000 		.4byte	0x42df
 11618 42d9 32       		.uleb128 0x32
 11619 42da 01       		.uleb128 0x1
 11620 42db 50       		.byte	0x50
 11621 42dc 01       		.uleb128 0x1
 11622 42dd 3A       		.byte	0x3a
 11623 42de 00       		.byte	0
 11624 42df 31       		.uleb128 0x31
 11625 42e0 C4010000 		.4byte	.LVL138
 11626 42e4 76510000 		.4byte	0x5176
 11627 42e8 F4420000 		.4byte	0x42f4
 11628 42ec 32       		.uleb128 0x32
 11629 42ed 01       		.uleb128 0x1
 11630 42ee 50       		.byte	0x50
 11631 42ef 03       		.uleb128 0x3
 11632 42f0 0A       		.byte	0xa
 11633 42f1 4501     		.2byte	0x145
 11634 42f3 00       		.byte	0
 11635 42f4 31       		.uleb128 0x31
 11636 42f5 DA010000 		.4byte	.LVL141
 11637 42f9 76510000 		.4byte	0x5176
 11638 42fd 07430000 		.4byte	0x4307
 11639 4301 32       		.uleb128 0x32
 11640 4302 01       		.uleb128 0x1
 11641 4303 50       		.byte	0x50
 11642 4304 01       		.uleb128 0x1
 11643 4305 3A       		.byte	0x3a
 11644 4306 00       		.byte	0
 11645 4307 31       		.uleb128 0x31
 11646 4308 F6010000 		.4byte	.LVL144
 11647 430c 76510000 		.4byte	0x5176
 11648 4310 1C430000 		.4byte	0x431c
 11649 4314 32       		.uleb128 0x32
 11650 4315 01       		.uleb128 0x1
 11651 4316 50       		.byte	0x50
ARM GAS  /var/folders/j2/t8glr22d56s93xphj_30s8g80000gn/T//cc8l81ic.s 			page 206


 11652 4317 03       		.uleb128 0x3
 11653 4318 0A       		.byte	0xa
 11654 4319 EE02     		.2byte	0x2ee
 11655 431b 00       		.byte	0
 11656 431c 31       		.uleb128 0x31
 11657 431d 0C020000 		.4byte	.LVL147
 11658 4321 76510000 		.4byte	0x5176
 11659 4325 2F430000 		.4byte	0x432f
 11660 4329 32       		.uleb128 0x32
 11661 432a 01       		.uleb128 0x1
 11662 432b 50       		.byte	0x50
 11663 432c 01       		.uleb128 0x1
 11664 432d 3A       		.byte	0x3a
 11665 432e 00       		.byte	0
 11666 432f 40       		.uleb128 0x40
 11667 4330 26020000 		.4byte	.LVL150
 11668 4334 76510000 		.4byte	0x5176
 11669 4338 32       		.uleb128 0x32
 11670 4339 01       		.uleb128 0x1
 11671 433a 50       		.byte	0x50
 11672 433b 03       		.uleb128 0x3
 11673 433c 0A       		.byte	0xa
 11674 433d 4501     		.2byte	0x145
 11675 433f 00       		.byte	0
 11676 4340 00       		.byte	0
 11677 4341 34       		.uleb128 0x34
 11678 4342 65020000 		.4byte	.LASF743
 11679 4346 01       		.byte	0x1
 11680 4347 7901     		.2byte	0x179
 11681 4349 00000000 		.4byte	.LFB275
 11682 434d 00010000 		.4byte	.LFE275-.LFB275
 11683 4351 01       		.uleb128 0x1
 11684 4352 9C       		.byte	0x9c
 11685 4353 1D460000 		.4byte	0x461d
 11686 4357 35       		.uleb128 0x35
 11687 4358 61726700 		.ascii	"arg\000"
 11688 435c 01       		.byte	0x1
 11689 435d 7901     		.2byte	0x179
 11690 435f BA030000 		.4byte	0x3ba
 11691 4363 60030000 		.4byte	.LLST10
 11692 4367 36       		.uleb128 0x36
 11693 4368 A3050000 		.4byte	.LASF739
 11694 436c 2D460000 		.4byte	0x462d
 11695 4370 05       		.uleb128 0x5
 11696 4371 03       		.byte	0x3
 11697 4372 00000000 		.4byte	__FUNCTION__.10013
 11698 4376 37       		.uleb128 0x37
 11699 4377 0B150000 		.4byte	.LASF740
 11700 437b 01       		.byte	0x1
 11701 437c 7E01     		.2byte	0x17e
 11702 437e 99010000 		.4byte	0x199
 11703 4382 38       		.uleb128 0x38
 11704 4383 694E0000 		.4byte	0x4e69
 11705 4387 04000000 		.4byte	.LBB185
 11706 438b 00000000 		.4byte	.Ldebug_ranges0+0
 11707 438f 01       		.byte	0x1
 11708 4390 7B01     		.2byte	0x17b
ARM GAS  /var/folders/j2/t8glr22d56s93xphj_30s8g80000gn/T//cc8l81ic.s 			page 207


 11709 4392 A3430000 		.4byte	0x43a3
 11710 4396 39       		.uleb128 0x39
 11711 4397 754E0000 		.4byte	0x4e75
 11712 439b 06       		.uleb128 0x6
 11713 439c F2       		.byte	0xf2
 11714 439d 81510000 		.4byte	.Ldebug_info0+20865
 11715 43a1 00       		.sleb128 0
 11716 43a2 00       		.byte	0
 11717 43a3 38       		.uleb128 0x38
 11718 43a4 814E0000 		.4byte	0x4e81
 11719 43a8 12000000 		.4byte	.LBB190
 11720 43ac 20000000 		.4byte	.Ldebug_ranges0+0x20
 11721 43b0 01       		.byte	0x1
 11722 43b1 8201     		.2byte	0x182
 11723 43b3 97440000 		.4byte	0x4497
 11724 43b7 3A       		.uleb128 0x3a
 11725 43b8 20000000 		.4byte	.Ldebug_ranges0+0x20
 11726 43bc 3B       		.uleb128 0x3b
 11727 43bd 914E0000 		.4byte	0x4e91
 11728 43c1 3C       		.uleb128 0x3c
 11729 43c2 A94E0000 		.4byte	0x4ea9
 11730 43c6 12000000 		.4byte	.LBB192
 11731 43ca 48000000 		.4byte	.Ldebug_ranges0+0x48
 11732 43ce 05       		.byte	0x5
 11733 43cf FC       		.byte	0xfc
 11734 43d0 31440000 		.4byte	0x4431
 11735 43d4 3A       		.uleb128 0x3a
 11736 43d5 48000000 		.4byte	.Ldebug_ranges0+0x48
 11737 43d9 3B       		.uleb128 0x3b
 11738 43da B64E0000 		.4byte	0x4eb6
 11739 43de 38       		.uleb128 0x38
 11740 43df CD4E0000 		.4byte	0x4ecd
 11741 43e3 20000000 		.4byte	.LBB194
 11742 43e7 68000000 		.4byte	.Ldebug_ranges0+0x68
 11743 43eb 03       		.byte	0x3
 11744 43ec 7301     		.2byte	0x173
 11745 43ee 0D440000 		.4byte	0x440d
 11746 43f2 45       		.uleb128 0x45
 11747 43f3 DF4E0000 		.4byte	0x4edf
 11748 43f7 20000000 		.4byte	.LBB195
 11749 43fb 68000000 		.4byte	.Ldebug_ranges0+0x68
 11750 43ff 10       		.byte	0x10
 11751 4400 CD01     		.2byte	0x1cd
 11752 4402 3F       		.uleb128 0x3f
 11753 4403 EC4E0000 		.4byte	0x4eec
 11754 4407 81030000 		.4byte	.LLST11
 11755 440b 00       		.byte	0
 11756 440c 00       		.byte	0
 11757 440d 33       		.uleb128 0x33
 11758 440e 68000000 		.4byte	.LVL57
 11759 4412 18510000 		.4byte	0x5118
 11760 4416 33       		.uleb128 0x33
 11761 4417 6C000000 		.4byte	.LVL58
 11762 441b 23510000 		.4byte	0x5123
 11763 441f 40       		.uleb128 0x40
 11764 4420 82000000 		.4byte	.LVL59
 11765 4424 2E510000 		.4byte	0x512e
ARM GAS  /var/folders/j2/t8glr22d56s93xphj_30s8g80000gn/T//cc8l81ic.s 			page 208


 11766 4428 32       		.uleb128 0x32
 11767 4429 01       		.uleb128 0x1
 11768 442a 50       		.byte	0x50
 11769 442b 02       		.uleb128 0x2
 11770 442c 7A       		.byte	0x7a
 11771 442d 00       		.sleb128 0
 11772 442e 00       		.byte	0
 11773 442f 00       		.byte	0
 11774 4430 00       		.byte	0
 11775 4431 3C       		.uleb128 0x3c
 11776 4432 C44E0000 		.4byte	0x4ec4
 11777 4436 1A000000 		.4byte	.LBB202
 11778 443a 80000000 		.4byte	.Ldebug_ranges0+0x80
 11779 443e 05       		.byte	0x5
 11780 443f FA       		.byte	0xfa
 11781 4440 86440000 		.4byte	0x4486
 11782 4444 38       		.uleb128 0x38
 11783 4445 D64E0000 		.4byte	0x4ed6
 11784 4449 1A000000 		.4byte	.LBB204
 11785 444d 98000000 		.4byte	.Ldebug_ranges0+0x98
 11786 4451 03       		.byte	0x3
 11787 4452 5C01     		.2byte	0x15c
 11788 4454 73440000 		.4byte	0x4473
 11789 4458 45       		.uleb128 0x45
 11790 4459 DF4E0000 		.4byte	0x4edf
 11791 445d 1A000000 		.4byte	.LBB205
 11792 4461 98000000 		.4byte	.Ldebug_ranges0+0x98
 11793 4465 10       		.byte	0x10
 11794 4466 BF01     		.2byte	0x1bf
 11795 4468 3F       		.uleb128 0x3f
 11796 4469 EC4E0000 		.4byte	0x4eec
 11797 446d 95030000 		.4byte	.LLST12
 11798 4471 00       		.byte	0
 11799 4472 00       		.byte	0
 11800 4473 33       		.uleb128 0x33
 11801 4474 5E000000 		.4byte	.LVL55
 11802 4478 3A510000 		.4byte	0x513a
 11803 447c 33       		.uleb128 0x33
 11804 447d 62000000 		.4byte	.LVL56
 11805 4481 45510000 		.4byte	0x5145
 11806 4485 00       		.byte	0
 11807 4486 42       		.uleb128 0x42
 11808 4487 9D4E0000 		.4byte	0x4e9d
 11809 448b 62000000 		.4byte	.LBB213
 11810 448f 02000000 		.4byte	.LBE213-.LBB213
 11811 4493 05       		.byte	0x5
 11812 4494 FB       		.byte	0xfb
 11813 4495 00       		.byte	0
 11814 4496 00       		.byte	0
 11815 4497 33       		.uleb128 0x33
 11816 4498 28000000 		.4byte	.LVL49
 11817 449c 90510000 		.4byte	0x5190
 11818 44a0 31       		.uleb128 0x31
 11819 44a1 34000000 		.4byte	.LVL50
 11820 44a5 90510000 		.4byte	0x5190
 11821 44a9 C5440000 		.4byte	0x44c5
 11822 44ad 32       		.uleb128 0x32
ARM GAS  /var/folders/j2/t8glr22d56s93xphj_30s8g80000gn/T//cc8l81ic.s 			page 209


 11823 44ae 01       		.uleb128 0x1
 11824 44af 50       		.byte	0x50
 11825 44b0 01       		.uleb128 0x1
 11826 44b1 31       		.byte	0x31
 11827 44b2 32       		.uleb128 0x32
 11828 44b3 01       		.uleb128 0x1
 11829 44b4 51       		.byte	0x51
 11830 44b5 02       		.uleb128 0x2
 11831 44b6 77       		.byte	0x77
 11832 44b7 00       		.sleb128 0
 11833 44b8 32       		.uleb128 0x32
 11834 44b9 01       		.uleb128 0x1
 11835 44ba 52       		.byte	0x52
 11836 44bb 02       		.uleb128 0x2
 11837 44bc 77       		.byte	0x77
 11838 44bd 00       		.sleb128 0
 11839 44be 32       		.uleb128 0x32
 11840 44bf 01       		.uleb128 0x1
 11841 44c0 53       		.byte	0x53
 11842 44c1 02       		.uleb128 0x2
 11843 44c2 77       		.byte	0x77
 11844 44c3 00       		.sleb128 0
 11845 44c4 00       		.byte	0
 11846 44c5 31       		.uleb128 0x31
 11847 44c6 40000000 		.4byte	.LVL51
 11848 44ca 90510000 		.4byte	0x5190
 11849 44ce EA440000 		.4byte	0x44ea
 11850 44d2 32       		.uleb128 0x32
 11851 44d3 01       		.uleb128 0x1
 11852 44d4 50       		.byte	0x50
 11853 44d5 01       		.uleb128 0x1
 11854 44d6 32       		.byte	0x32
 11855 44d7 32       		.uleb128 0x32
 11856 44d8 01       		.uleb128 0x1
 11857 44d9 51       		.byte	0x51
 11858 44da 02       		.uleb128 0x2
 11859 44db 77       		.byte	0x77
 11860 44dc 00       		.sleb128 0
 11861 44dd 32       		.uleb128 0x32
 11862 44de 01       		.uleb128 0x1
 11863 44df 52       		.byte	0x52
 11864 44e0 02       		.uleb128 0x2
 11865 44e1 77       		.byte	0x77
 11866 44e2 00       		.sleb128 0
 11867 44e3 32       		.uleb128 0x32
 11868 44e4 01       		.uleb128 0x1
 11869 44e5 53       		.byte	0x53
 11870 44e6 02       		.uleb128 0x2
 11871 44e7 77       		.byte	0x77
 11872 44e8 00       		.sleb128 0
 11873 44e9 00       		.byte	0
 11874 44ea 31       		.uleb128 0x31
 11875 44eb 4C000000 		.4byte	.LVL52
 11876 44ef 90510000 		.4byte	0x5190
 11877 44f3 0F450000 		.4byte	0x450f
 11878 44f7 32       		.uleb128 0x32
 11879 44f8 01       		.uleb128 0x1
ARM GAS  /var/folders/j2/t8glr22d56s93xphj_30s8g80000gn/T//cc8l81ic.s 			page 210


 11880 44f9 50       		.byte	0x50
 11881 44fa 01       		.uleb128 0x1
 11882 44fb 33       		.byte	0x33
 11883 44fc 32       		.uleb128 0x32
 11884 44fd 01       		.uleb128 0x1
 11885 44fe 51       		.byte	0x51
 11886 44ff 02       		.uleb128 0x2
 11887 4500 77       		.byte	0x77
 11888 4501 00       		.sleb128 0
 11889 4502 32       		.uleb128 0x32
 11890 4503 01       		.uleb128 0x1
 11891 4504 52       		.byte	0x52
 11892 4505 02       		.uleb128 0x2
 11893 4506 77       		.byte	0x77
 11894 4507 00       		.sleb128 0
 11895 4508 32       		.uleb128 0x32
 11896 4509 01       		.uleb128 0x1
 11897 450a 53       		.byte	0x53
 11898 450b 02       		.uleb128 0x2
 11899 450c 77       		.byte	0x77
 11900 450d 00       		.sleb128 0
 11901 450e 00       		.byte	0
 11902 450f 31       		.uleb128 0x31
 11903 4510 56000000 		.4byte	.LVL53
 11904 4514 50510000 		.4byte	0x5150
 11905 4518 2A450000 		.4byte	0x452a
 11906 451c 32       		.uleb128 0x32
 11907 451d 01       		.uleb128 0x1
 11908 451e 50       		.byte	0x50
 11909 451f 02       		.uleb128 0x2
 11910 4520 76       		.byte	0x76
 11911 4521 00       		.sleb128 0
 11912 4522 32       		.uleb128 0x32
 11913 4523 01       		.uleb128 0x1
 11914 4524 51       		.byte	0x51
 11915 4525 03       		.uleb128 0x3
 11916 4526 76       		.byte	0x76
 11917 4527 FA01     		.sleb128 250
 11918 4529 00       		.byte	0
 11919 452a 31       		.uleb128 0x31
 11920 452b A4000000 		.4byte	.LVL61
 11921 452f 9B510000 		.4byte	0x519b
 11922 4533 4A450000 		.4byte	0x454a
 11923 4537 32       		.uleb128 0x32
 11924 4538 01       		.uleb128 0x1
 11925 4539 50       		.byte	0x50
 11926 453a 02       		.uleb128 0x2
 11927 453b 74       		.byte	0x74
 11928 453c 00       		.sleb128 0
 11929 453d 32       		.uleb128 0x32
 11930 453e 01       		.uleb128 0x1
 11931 453f 51       		.byte	0x51
 11932 4540 02       		.uleb128 0x2
 11933 4541 77       		.byte	0x77
 11934 4542 00       		.sleb128 0
 11935 4543 32       		.uleb128 0x32
 11936 4544 01       		.uleb128 0x1
ARM GAS  /var/folders/j2/t8glr22d56s93xphj_30s8g80000gn/T//cc8l81ic.s 			page 211


 11937 4545 52       		.byte	0x52
 11938 4546 02       		.uleb128 0x2
 11939 4547 09       		.byte	0x9
 11940 4548 FF       		.byte	0xff
 11941 4549 00       		.byte	0
 11942 454a 31       		.uleb128 0x31
 11943 454b AE000000 		.4byte	.LVL62
 11944 454f 9B510000 		.4byte	0x519b
 11945 4553 69450000 		.4byte	0x4569
 11946 4557 32       		.uleb128 0x32
 11947 4558 01       		.uleb128 0x1
 11948 4559 50       		.byte	0x50
 11949 455a 02       		.uleb128 0x2
 11950 455b 74       		.byte	0x74
 11951 455c 00       		.sleb128 0
 11952 455d 32       		.uleb128 0x32
 11953 455e 01       		.uleb128 0x1
 11954 455f 51       		.byte	0x51
 11955 4560 01       		.uleb128 0x1
 11956 4561 31       		.byte	0x31
 11957 4562 32       		.uleb128 0x32
 11958 4563 01       		.uleb128 0x1
 11959 4564 52       		.byte	0x52
 11960 4565 02       		.uleb128 0x2
 11961 4566 09       		.byte	0x9
 11962 4567 A5       		.byte	0xa5
 11963 4568 00       		.byte	0
 11964 4569 31       		.uleb128 0x31
 11965 456a B8000000 		.4byte	.LVL63
 11966 456e 9B510000 		.4byte	0x519b
 11967 4572 88450000 		.4byte	0x4588
 11968 4576 32       		.uleb128 0x32
 11969 4577 01       		.uleb128 0x1
 11970 4578 50       		.byte	0x50
 11971 4579 01       		.uleb128 0x1
 11972 457a 33       		.byte	0x33
 11973 457b 32       		.uleb128 0x32
 11974 457c 01       		.uleb128 0x1
 11975 457d 51       		.byte	0x51
 11976 457e 02       		.uleb128 0x2
 11977 457f 77       		.byte	0x77
 11978 4580 00       		.sleb128 0
 11979 4581 32       		.uleb128 0x32
 11980 4582 01       		.uleb128 0x1
 11981 4583 52       		.byte	0x52
 11982 4584 02       		.uleb128 0x2
 11983 4585 09       		.byte	0x9
 11984 4586 FF       		.byte	0xff
 11985 4587 00       		.byte	0
 11986 4588 31       		.uleb128 0x31
 11987 4589 C2000000 		.4byte	.LVL64
 11988 458d 9B510000 		.4byte	0x519b
 11989 4591 A6450000 		.4byte	0x45a6
 11990 4595 32       		.uleb128 0x32
 11991 4596 01       		.uleb128 0x1
 11992 4597 50       		.byte	0x50
 11993 4598 01       		.uleb128 0x1
ARM GAS  /var/folders/j2/t8glr22d56s93xphj_30s8g80000gn/T//cc8l81ic.s 			page 212


 11994 4599 33       		.byte	0x33
 11995 459a 32       		.uleb128 0x32
 11996 459b 01       		.uleb128 0x1
 11997 459c 51       		.byte	0x51
 11998 459d 01       		.uleb128 0x1
 11999 459e 31       		.byte	0x31
 12000 459f 32       		.uleb128 0x32
 12001 45a0 01       		.uleb128 0x1
 12002 45a1 52       		.byte	0x52
 12003 45a2 02       		.uleb128 0x2
 12004 45a3 09       		.byte	0x9
 12005 45a4 A5       		.byte	0xa5
 12006 45a5 00       		.byte	0
 12007 45a6 31       		.uleb128 0x31
 12008 45a7 CC000000 		.4byte	.LVL65
 12009 45ab 9B510000 		.4byte	0x519b
 12010 45af C0450000 		.4byte	0x45c0
 12011 45b3 32       		.uleb128 0x32
 12012 45b4 01       		.uleb128 0x1
 12013 45b5 50       		.byte	0x50
 12014 45b6 02       		.uleb128 0x2
 12015 45b7 74       		.byte	0x74
 12016 45b8 00       		.sleb128 0
 12017 45b9 32       		.uleb128 0x32
 12018 45ba 01       		.uleb128 0x1
 12019 45bb 52       		.byte	0x52
 12020 45bc 02       		.uleb128 0x2
 12021 45bd 09       		.byte	0x9
 12022 45be FF       		.byte	0xff
 12023 45bf 00       		.byte	0
 12024 45c0 31       		.uleb128 0x31
 12025 45c1 D6000000 		.4byte	.LVL66
 12026 45c5 9B510000 		.4byte	0x519b
 12027 45c9 E0450000 		.4byte	0x45e0
 12028 45cd 32       		.uleb128 0x32
 12029 45ce 01       		.uleb128 0x1
 12030 45cf 50       		.byte	0x50
 12031 45d0 02       		.uleb128 0x2
 12032 45d1 74       		.byte	0x74
 12033 45d2 00       		.sleb128 0
 12034 45d3 32       		.uleb128 0x32
 12035 45d4 01       		.uleb128 0x1
 12036 45d5 51       		.byte	0x51
 12037 45d6 02       		.uleb128 0x2
 12038 45d7 74       		.byte	0x74
 12039 45d8 00       		.sleb128 0
 12040 45d9 32       		.uleb128 0x32
 12041 45da 01       		.uleb128 0x1
 12042 45db 52       		.byte	0x52
 12043 45dc 02       		.uleb128 0x2
 12044 45dd 09       		.byte	0x9
 12045 45de A5       		.byte	0xa5
 12046 45df 00       		.byte	0
 12047 45e0 31       		.uleb128 0x31
 12048 45e1 E0000000 		.4byte	.LVL67
 12049 45e5 9B510000 		.4byte	0x519b
 12050 45e9 00460000 		.4byte	0x4600
ARM GAS  /var/folders/j2/t8glr22d56s93xphj_30s8g80000gn/T//cc8l81ic.s 			page 213


 12051 45ed 32       		.uleb128 0x32
 12052 45ee 01       		.uleb128 0x1
 12053 45ef 50       		.byte	0x50
 12054 45f0 02       		.uleb128 0x2
 12055 45f1 77       		.byte	0x77
 12056 45f2 00       		.sleb128 0
 12057 45f3 32       		.uleb128 0x32
 12058 45f4 01       		.uleb128 0x1
 12059 45f5 51       		.byte	0x51
 12060 45f6 02       		.uleb128 0x2
 12061 45f7 77       		.byte	0x77
 12062 45f8 00       		.sleb128 0
 12063 45f9 32       		.uleb128 0x32
 12064 45fa 01       		.uleb128 0x1
 12065 45fb 52       		.byte	0x52
 12066 45fc 02       		.uleb128 0x2
 12067 45fd 09       		.byte	0x9
 12068 45fe FF       		.byte	0xff
 12069 45ff 00       		.byte	0
 12070 4600 40       		.uleb128 0x40
 12071 4601 EA000000 		.4byte	.LVL68
 12072 4605 9B510000 		.4byte	0x519b
 12073 4609 32       		.uleb128 0x32
 12074 460a 01       		.uleb128 0x1
 12075 460b 50       		.byte	0x50
 12076 460c 02       		.uleb128 0x2
 12077 460d 77       		.byte	0x77
 12078 460e 00       		.sleb128 0
 12079 460f 32       		.uleb128 0x32
 12080 4610 01       		.uleb128 0x1
 12081 4611 51       		.byte	0x51
 12082 4612 02       		.uleb128 0x2
 12083 4613 74       		.byte	0x74
 12084 4614 00       		.sleb128 0
 12085 4615 32       		.uleb128 0x32
 12086 4616 01       		.uleb128 0x1
 12087 4617 52       		.byte	0x52
 12088 4618 02       		.uleb128 0x2
 12089 4619 09       		.byte	0x9
 12090 461a A5       		.byte	0xa5
 12091 461b 00       		.byte	0
 12092 461c 00       		.byte	0
 12093 461d 13       		.uleb128 0x13
 12094 461e 6F100000 		.4byte	0x106f
 12095 4622 2D460000 		.4byte	0x462d
 12096 4626 14       		.uleb128 0x14
 12097 4627 37000000 		.4byte	0x37
 12098 462b 0A       		.byte	0xa
 12099 462c 00       		.byte	0
 12100 462d 05       		.uleb128 0x5
 12101 462e 1D460000 		.4byte	0x461d
 12102 4632 34       		.uleb128 0x34
 12103 4633 CD090000 		.4byte	.LASF744
 12104 4637 01       		.byte	0x1
 12105 4638 4401     		.2byte	0x144
 12106 463a 00000000 		.4byte	.LFB274
 12107 463e 40010000 		.4byte	.LFE274-.LFB274
ARM GAS  /var/folders/j2/t8glr22d56s93xphj_30s8g80000gn/T//cc8l81ic.s 			page 214


 12108 4642 01       		.uleb128 0x1
 12109 4643 9C       		.byte	0x9c
 12110 4644 954A0000 		.4byte	0x4a95
 12111 4648 35       		.uleb128 0x35
 12112 4649 61726700 		.ascii	"arg\000"
 12113 464d 01       		.byte	0x1
 12114 464e 4401     		.2byte	0x144
 12115 4650 BA030000 		.4byte	0x3ba
 12116 4654 AA030000 		.4byte	.LLST56
 12117 4658 36       		.uleb128 0x36
 12118 4659 A3050000 		.4byte	.LASF739
 12119 465d A54A0000 		.4byte	0x4aa5
 12120 4661 05       		.uleb128 0x5
 12121 4662 03       		.byte	0x3
 12122 4663 00000000 		.4byte	__FUNCTION__.10003
 12123 4667 37       		.uleb128 0x37
 12124 4668 0B150000 		.4byte	.LASF740
 12125 466c 01       		.byte	0x1
 12126 466d 4901     		.2byte	0x149
 12127 466f 99010000 		.4byte	0x199
 12128 4673 38       		.uleb128 0x38
 12129 4674 694E0000 		.4byte	0x4e69
 12130 4678 04000000 		.4byte	.LBB493
 12131 467c B8010000 		.4byte	.Ldebug_ranges0+0x1b8
 12132 4680 01       		.byte	0x1
 12133 4681 4601     		.2byte	0x146
 12134 4683 94460000 		.4byte	0x4694
 12135 4687 39       		.uleb128 0x39
 12136 4688 754E0000 		.4byte	0x4e75
 12137 468c 06       		.uleb128 0x6
 12138 468d F2       		.byte	0xf2
 12139 468e A6510000 		.4byte	.Ldebug_info0+20902
 12140 4692 00       		.sleb128 0
 12141 4693 00       		.byte	0
 12142 4694 38       		.uleb128 0x38
 12143 4695 EC4B0000 		.4byte	0x4bec
 12144 4699 1A000000 		.4byte	.LBB499
 12145 469d D8010000 		.4byte	.Ldebug_ranges0+0x1d8
 12146 46a1 01       		.byte	0x1
 12147 46a2 5401     		.2byte	0x154
 12148 46a4 C8460000 		.4byte	0x46c8
 12149 46a8 3F       		.uleb128 0x3f
 12150 46a9 F84B0000 		.4byte	0x4bf8
 12151 46ad CB030000 		.4byte	.LLST57
 12152 46b1 40       		.uleb128 0x40
 12153 46b2 8A000000 		.4byte	.LVL180
 12154 46b6 1C4C0000 		.4byte	0x4c1c
 12155 46ba 32       		.uleb128 0x32
 12156 46bb 01       		.uleb128 0x1
 12157 46bc 50       		.byte	0x50
 12158 46bd 02       		.uleb128 0x2
 12159 46be 77       		.byte	0x77
 12160 46bf 00       		.sleb128 0
 12161 46c0 32       		.uleb128 0x32
 12162 46c1 01       		.uleb128 0x1
 12163 46c2 51       		.byte	0x51
 12164 46c3 02       		.uleb128 0x2
ARM GAS  /var/folders/j2/t8glr22d56s93xphj_30s8g80000gn/T//cc8l81ic.s 			page 215


 12165 46c4 7B       		.byte	0x7b
 12166 46c5 00       		.sleb128 0
 12167 46c6 00       		.byte	0
 12168 46c7 00       		.byte	0
 12169 46c8 38       		.uleb128 0x38
 12170 46c9 044C0000 		.4byte	0x4c04
 12171 46cd 1E000000 		.4byte	.LBB502
 12172 46d1 F0010000 		.4byte	.Ldebug_ranges0+0x1f0
 12173 46d5 01       		.byte	0x1
 12174 46d6 5301     		.2byte	0x153
 12175 46d8 FC460000 		.4byte	0x46fc
 12176 46dc 3F       		.uleb128 0x3f
 12177 46dd 104C0000 		.4byte	0x4c10
 12178 46e1 DF030000 		.4byte	.LLST58
 12179 46e5 40       		.uleb128 0x40
 12180 46e6 82000000 		.4byte	.LVL179
 12181 46ea 1C4C0000 		.4byte	0x4c1c
 12182 46ee 32       		.uleb128 0x32
 12183 46ef 01       		.uleb128 0x1
 12184 46f0 50       		.byte	0x50
 12185 46f1 02       		.uleb128 0x2
 12186 46f2 76       		.byte	0x76
 12187 46f3 00       		.sleb128 0
 12188 46f4 32       		.uleb128 0x32
 12189 46f5 01       		.uleb128 0x1
 12190 46f6 51       		.byte	0x51
 12191 46f7 02       		.uleb128 0x2
 12192 46f8 7B       		.byte	0x7b
 12193 46f9 00       		.sleb128 0
 12194 46fa 00       		.byte	0
 12195 46fb 00       		.byte	0
 12196 46fc 3D       		.uleb128 0x3d
 12197 46fd 814E0000 		.4byte	0x4e81
 12198 4701 2C000000 		.4byte	.LBB506
 12199 4705 36000000 		.4byte	.LBE506-.LBB506
 12200 4709 01       		.byte	0x1
 12201 470a 4D01     		.2byte	0x14d
 12202 470c F7470000 		.4byte	0x47f7
 12203 4710 43       		.uleb128 0x43
 12204 4711 2C000000 		.4byte	.LBB507
 12205 4715 36000000 		.4byte	.LBE507-.LBB507
 12206 4719 3B       		.uleb128 0x3b
 12207 471a 914E0000 		.4byte	0x4e91
 12208 471e 41       		.uleb128 0x41
 12209 471f C44E0000 		.4byte	0x4ec4
 12210 4723 2C000000 		.4byte	.LBB508
 12211 4727 0E000000 		.4byte	.LBE508-.LBB508
 12212 472b 05       		.byte	0x5
 12213 472c FA       		.byte	0xfa
 12214 472d 73470000 		.4byte	0x4773
 12215 4731 3D       		.uleb128 0x3d
 12216 4732 D64E0000 		.4byte	0x4ed6
 12217 4736 2C000000 		.4byte	.LBB510
 12218 473a 06000000 		.4byte	.LBE510-.LBB510
 12219 473e 03       		.byte	0x3
 12220 473f 5C01     		.2byte	0x15c
 12221 4741 60470000 		.4byte	0x4760
ARM GAS  /var/folders/j2/t8glr22d56s93xphj_30s8g80000gn/T//cc8l81ic.s 			page 216


 12222 4745 3E       		.uleb128 0x3e
 12223 4746 DF4E0000 		.4byte	0x4edf
 12224 474a 2C000000 		.4byte	.LBB511
 12225 474e 06000000 		.4byte	.LBE511-.LBB511
 12226 4752 10       		.byte	0x10
 12227 4753 BF01     		.2byte	0x1bf
 12228 4755 3F       		.uleb128 0x3f
 12229 4756 EC4E0000 		.4byte	0x4eec
 12230 475a F3030000 		.4byte	.LLST59
 12231 475e 00       		.byte	0
 12232 475f 00       		.byte	0
 12233 4760 33       		.uleb128 0x33
 12234 4761 36000000 		.4byte	.LVL171
 12235 4765 3A510000 		.4byte	0x513a
 12236 4769 33       		.uleb128 0x33
 12237 476a 3A000000 		.4byte	.LVL172
 12238 476e 45510000 		.4byte	0x5145
 12239 4772 00       		.byte	0
 12240 4773 42       		.uleb128 0x42
 12241 4774 9D4E0000 		.4byte	0x4e9d
 12242 4778 3A000000 		.4byte	.LBB513
 12243 477c 02000000 		.4byte	.LBE513-.LBB513
 12244 4780 05       		.byte	0x5
 12245 4781 FB       		.byte	0xfb
 12246 4782 44       		.uleb128 0x44
 12247 4783 A94E0000 		.4byte	0x4ea9
 12248 4787 3C000000 		.4byte	.LBB515
 12249 478b 26000000 		.4byte	.LBE515-.LBB515
 12250 478f 05       		.byte	0x5
 12251 4790 FC       		.byte	0xfc
 12252 4791 43       		.uleb128 0x43
 12253 4792 3C000000 		.4byte	.LBB516
 12254 4796 26000000 		.4byte	.LBE516-.LBB516
 12255 479a 3B       		.uleb128 0x3b
 12256 479b B64E0000 		.4byte	0x4eb6
 12257 479f 3D       		.uleb128 0x3d
 12258 47a0 CD4E0000 		.4byte	0x4ecd
 12259 47a4 5A000000 		.4byte	.LBB517
 12260 47a8 08000000 		.4byte	.LBE517-.LBB517
 12261 47ac 03       		.byte	0x3
 12262 47ad 7301     		.2byte	0x173
 12263 47af CE470000 		.4byte	0x47ce
 12264 47b3 3E       		.uleb128 0x3e
 12265 47b4 DF4E0000 		.4byte	0x4edf
 12266 47b8 5A000000 		.4byte	.LBB518
 12267 47bc 08000000 		.4byte	.LBE518-.LBB518
 12268 47c0 10       		.byte	0x10
 12269 47c1 CD01     		.2byte	0x1cd
 12270 47c3 3F       		.uleb128 0x3f
 12271 47c4 EC4E0000 		.4byte	0x4eec
 12272 47c8 08040000 		.4byte	.LLST60
 12273 47cc 00       		.byte	0
 12274 47cd 00       		.byte	0
 12275 47ce 33       		.uleb128 0x33
 12276 47cf 40000000 		.4byte	.LVL173
 12277 47d3 18510000 		.4byte	0x5118
 12278 47d7 33       		.uleb128 0x33
ARM GAS  /var/folders/j2/t8glr22d56s93xphj_30s8g80000gn/T//cc8l81ic.s 			page 217


 12279 47d8 44000000 		.4byte	.LVL174
 12280 47dc 23510000 		.4byte	0x5123
 12281 47e0 40       		.uleb128 0x40
 12282 47e1 5A000000 		.4byte	.LVL175
 12283 47e5 2E510000 		.4byte	0x512e
 12284 47e9 32       		.uleb128 0x32
 12285 47ea 01       		.uleb128 0x1
 12286 47eb 50       		.byte	0x50
 12287 47ec 05       		.uleb128 0x5
 12288 47ed 03       		.byte	0x3
 12289 47ee 00000000 		.4byte	.LANCHOR5
 12290 47f2 00       		.byte	0
 12291 47f3 00       		.byte	0
 12292 47f4 00       		.byte	0
 12293 47f5 00       		.byte	0
 12294 47f6 00       		.byte	0
 12295 47f7 38       		.uleb128 0x38
 12296 47f8 044C0000 		.4byte	0x4c04
 12297 47fc 98000000 		.4byte	.LBB523
 12298 4800 10020000 		.4byte	.Ldebug_ranges0+0x210
 12299 4804 01       		.byte	0x1
 12300 4805 5901     		.2byte	0x159
 12301 4807 2B480000 		.4byte	0x482b
 12302 480b 3F       		.uleb128 0x3f
 12303 480c 104C0000 		.4byte	0x4c10
 12304 4810 1C040000 		.4byte	.LLST61
 12305 4814 40       		.uleb128 0x40
 12306 4815 A2000000 		.4byte	.LVL182
 12307 4819 1C4C0000 		.4byte	0x4c1c
 12308 481d 32       		.uleb128 0x32
 12309 481e 01       		.uleb128 0x1
 12310 481f 50       		.byte	0x50
 12311 4820 02       		.uleb128 0x2
 12312 4821 76       		.byte	0x76
 12313 4822 00       		.sleb128 0
 12314 4823 32       		.uleb128 0x32
 12315 4824 01       		.uleb128 0x1
 12316 4825 51       		.byte	0x51
 12317 4826 02       		.uleb128 0x2
 12318 4827 7A       		.byte	0x7a
 12319 4828 00       		.sleb128 0
 12320 4829 00       		.byte	0
 12321 482a 00       		.byte	0
 12322 482b 38       		.uleb128 0x38
 12323 482c EC4B0000 		.4byte	0x4bec
 12324 4830 9C000000 		.4byte	.LBB526
 12325 4834 28020000 		.4byte	.Ldebug_ranges0+0x228
 12326 4838 01       		.byte	0x1
 12327 4839 6C01     		.2byte	0x16c
 12328 483b 5D480000 		.4byte	0x485d
 12329 483f 46       		.uleb128 0x46
 12330 4840 F84B0000 		.4byte	0x4bf8
 12331 4844 9878     		.sleb128 -1000
 12332 4846 40       		.uleb128 0x40
 12333 4847 00010000 		.4byte	.LVL193
 12334 484b 1C4C0000 		.4byte	0x4c1c
 12335 484f 32       		.uleb128 0x32
ARM GAS  /var/folders/j2/t8glr22d56s93xphj_30s8g80000gn/T//cc8l81ic.s 			page 218


 12336 4850 01       		.uleb128 0x1
 12337 4851 50       		.byte	0x50
 12338 4852 02       		.uleb128 0x2
 12339 4853 77       		.byte	0x77
 12340 4854 00       		.sleb128 0
 12341 4855 32       		.uleb128 0x32
 12342 4856 01       		.uleb128 0x1
 12343 4857 51       		.byte	0x51
 12344 4858 02       		.uleb128 0x2
 12345 4859 7A       		.byte	0x7a
 12346 485a 00       		.sleb128 0
 12347 485b 00       		.byte	0
 12348 485c 00       		.byte	0
 12349 485d 3D       		.uleb128 0x3d
 12350 485e EC4B0000 		.4byte	0x4bec
 12351 4862 A2000000 		.4byte	.LBB530
 12352 4866 08000000 		.4byte	.LBE530-.LBB530
 12353 486a 01       		.byte	0x1
 12354 486b 5A01     		.2byte	0x15a
 12355 486d 91480000 		.4byte	0x4891
 12356 4871 3F       		.uleb128 0x3f
 12357 4872 F84B0000 		.4byte	0x4bf8
 12358 4876 32040000 		.4byte	.LLST62
 12359 487a 40       		.uleb128 0x40
 12360 487b AA000000 		.4byte	.LVL183
 12361 487f 1C4C0000 		.4byte	0x4c1c
 12362 4883 32       		.uleb128 0x32
 12363 4884 01       		.uleb128 0x1
 12364 4885 50       		.byte	0x50
 12365 4886 02       		.uleb128 0x2
 12366 4887 77       		.byte	0x77
 12367 4888 00       		.sleb128 0
 12368 4889 32       		.uleb128 0x32
 12369 488a 01       		.uleb128 0x1
 12370 488b 51       		.byte	0x51
 12371 488c 02       		.uleb128 0x2
 12372 488d 7A       		.byte	0x7a
 12373 488e 00       		.sleb128 0
 12374 488f 00       		.byte	0
 12375 4890 00       		.byte	0
 12376 4891 3D       		.uleb128 0x3d
 12377 4892 044C0000 		.4byte	0x4c04
 12378 4896 B2000000 		.4byte	.LBB532
 12379 489a 08000000 		.4byte	.LBE532-.LBB532
 12380 489e 01       		.byte	0x1
 12381 489f 5D01     		.2byte	0x15d
 12382 48a1 C5480000 		.4byte	0x48c5
 12383 48a5 3F       		.uleb128 0x3f
 12384 48a6 104C0000 		.4byte	0x4c10
 12385 48aa 48040000 		.4byte	.LLST63
 12386 48ae 40       		.uleb128 0x40
 12387 48af BA000000 		.4byte	.LVL185
 12388 48b3 1C4C0000 		.4byte	0x4c1c
 12389 48b7 32       		.uleb128 0x32
 12390 48b8 01       		.uleb128 0x1
 12391 48b9 50       		.byte	0x50
 12392 48ba 02       		.uleb128 0x2
ARM GAS  /var/folders/j2/t8glr22d56s93xphj_30s8g80000gn/T//cc8l81ic.s 			page 219


 12393 48bb 76       		.byte	0x76
 12394 48bc 00       		.sleb128 0
 12395 48bd 32       		.uleb128 0x32
 12396 48be 01       		.uleb128 0x1
 12397 48bf 51       		.byte	0x51
 12398 48c0 02       		.uleb128 0x2
 12399 48c1 7A       		.byte	0x7a
 12400 48c2 00       		.sleb128 0
 12401 48c3 00       		.byte	0
 12402 48c4 00       		.byte	0
 12403 48c5 3D       		.uleb128 0x3d
 12404 48c6 EC4B0000 		.4byte	0x4bec
 12405 48ca BA000000 		.4byte	.LBB534
 12406 48ce 0A000000 		.4byte	.LBE534-.LBB534
 12407 48d2 01       		.byte	0x1
 12408 48d3 5E01     		.2byte	0x15e
 12409 48d5 FA480000 		.4byte	0x48fa
 12410 48d9 3F       		.uleb128 0x3f
 12411 48da F84B0000 		.4byte	0x4bf8
 12412 48de 5E040000 		.4byte	.LLST64
 12413 48e2 40       		.uleb128 0x40
 12414 48e3 C4000000 		.4byte	.LVL186
 12415 48e7 1C4C0000 		.4byte	0x4c1c
 12416 48eb 32       		.uleb128 0x32
 12417 48ec 01       		.uleb128 0x1
 12418 48ed 50       		.byte	0x50
 12419 48ee 02       		.uleb128 0x2
 12420 48ef 77       		.byte	0x77
 12421 48f0 00       		.sleb128 0
 12422 48f1 32       		.uleb128 0x32
 12423 48f2 01       		.uleb128 0x1
 12424 48f3 51       		.byte	0x51
 12425 48f4 03       		.uleb128 0x3
 12426 48f5 0A       		.byte	0xa
 12427 48f6 E803     		.2byte	0x3e8
 12428 48f8 00       		.byte	0
 12429 48f9 00       		.byte	0
 12430 48fa 3D       		.uleb128 0x3d
 12431 48fb 044C0000 		.4byte	0x4c04
 12432 48ff CC000000 		.4byte	.LBB536
 12433 4903 08000000 		.4byte	.LBE536-.LBB536
 12434 4907 01       		.byte	0x1
 12435 4908 6101     		.2byte	0x161
 12436 490a 2E490000 		.4byte	0x492e
 12437 490e 3F       		.uleb128 0x3f
 12438 490f 104C0000 		.4byte	0x4c10
 12439 4913 74040000 		.4byte	.LLST65
 12440 4917 40       		.uleb128 0x40
 12441 4918 D4000000 		.4byte	.LVL188
 12442 491c 1C4C0000 		.4byte	0x4c1c
 12443 4920 32       		.uleb128 0x32
 12444 4921 01       		.uleb128 0x1
 12445 4922 50       		.byte	0x50
 12446 4923 02       		.uleb128 0x2
 12447 4924 76       		.byte	0x76
 12448 4925 00       		.sleb128 0
 12449 4926 32       		.uleb128 0x32
ARM GAS  /var/folders/j2/t8glr22d56s93xphj_30s8g80000gn/T//cc8l81ic.s 			page 220


 12450 4927 01       		.uleb128 0x1
 12451 4928 51       		.byte	0x51
 12452 4929 02       		.uleb128 0x2
 12453 492a 7A       		.byte	0x7a
 12454 492b 00       		.sleb128 0
 12455 492c 00       		.byte	0
 12456 492d 00       		.byte	0
 12457 492e 3D       		.uleb128 0x3d
 12458 492f EC4B0000 		.4byte	0x4bec
 12459 4933 D4000000 		.4byte	.LBB538
 12460 4937 08000000 		.4byte	.LBE538-.LBB538
 12461 493b 01       		.byte	0x1
 12462 493c 6201     		.2byte	0x162
 12463 493e 62490000 		.4byte	0x4962
 12464 4942 3F       		.uleb128 0x3f
 12465 4943 F84B0000 		.4byte	0x4bf8
 12466 4947 8A040000 		.4byte	.LLST66
 12467 494b 40       		.uleb128 0x40
 12468 494c DC000000 		.4byte	.LVL189
 12469 4950 1C4C0000 		.4byte	0x4c1c
 12470 4954 32       		.uleb128 0x32
 12471 4955 01       		.uleb128 0x1
 12472 4956 50       		.byte	0x50
 12473 4957 02       		.uleb128 0x2
 12474 4958 77       		.byte	0x77
 12475 4959 00       		.sleb128 0
 12476 495a 32       		.uleb128 0x32
 12477 495b 01       		.uleb128 0x1
 12478 495c 51       		.byte	0x51
 12479 495d 02       		.uleb128 0x2
 12480 495e 7A       		.byte	0x7a
 12481 495f 00       		.sleb128 0
 12482 4960 00       		.byte	0
 12483 4961 00       		.byte	0
 12484 4962 3D       		.uleb128 0x3d
 12485 4963 A34B0000 		.4byte	0x4ba3
 12486 4967 E6000000 		.4byte	.LBB540
 12487 496b 04000000 		.4byte	.LBE540-.LBB540
 12488 496f 01       		.byte	0x1
 12489 4970 6801     		.2byte	0x168
 12490 4972 7D490000 		.4byte	0x497d
 12491 4976 47       		.uleb128 0x47
 12492 4977 B04B0000 		.4byte	0x4bb0
 12493 497b 00       		.byte	0
 12494 497c 00       		.byte	0
 12495 497d 3D       		.uleb128 0x3d
 12496 497e 044C0000 		.4byte	0x4c04
 12497 4982 EE000000 		.4byte	.LBB542
 12498 4986 0A000000 		.4byte	.LBE542-.LBB542
 12499 498a 01       		.byte	0x1
 12500 498b 6B01     		.2byte	0x16b
 12501 498d B2490000 		.4byte	0x49b2
 12502 4991 3F       		.uleb128 0x3f
 12503 4992 104C0000 		.4byte	0x4c10
 12504 4996 A0040000 		.4byte	.LLST67
 12505 499a 40       		.uleb128 0x40
 12506 499b F8000000 		.4byte	.LVL192
ARM GAS  /var/folders/j2/t8glr22d56s93xphj_30s8g80000gn/T//cc8l81ic.s 			page 221


 12507 499f 1C4C0000 		.4byte	0x4c1c
 12508 49a3 32       		.uleb128 0x32
 12509 49a4 01       		.uleb128 0x1
 12510 49a5 50       		.byte	0x50
 12511 49a6 02       		.uleb128 0x2
 12512 49a7 76       		.byte	0x76
 12513 49a8 00       		.sleb128 0
 12514 49a9 32       		.uleb128 0x32
 12515 49aa 01       		.uleb128 0x1
 12516 49ab 51       		.byte	0x51
 12517 49ac 03       		.uleb128 0x3
 12518 49ad 0A       		.byte	0xa
 12519 49ae E803     		.2byte	0x3e8
 12520 49b0 00       		.byte	0
 12521 49b1 00       		.byte	0
 12522 49b2 3D       		.uleb128 0x3d
 12523 49b3 044C0000 		.4byte	0x4c04
 12524 49b7 0A010000 		.4byte	.LBB545
 12525 49bb 08000000 		.4byte	.LBE545-.LBB545
 12526 49bf 01       		.byte	0x1
 12527 49c0 6F01     		.2byte	0x16f
 12528 49c2 E6490000 		.4byte	0x49e6
 12529 49c6 3F       		.uleb128 0x3f
 12530 49c7 104C0000 		.4byte	0x4c10
 12531 49cb B6040000 		.4byte	.LLST68
 12532 49cf 40       		.uleb128 0x40
 12533 49d0 12010000 		.4byte	.LVL195
 12534 49d4 1C4C0000 		.4byte	0x4c1c
 12535 49d8 32       		.uleb128 0x32
 12536 49d9 01       		.uleb128 0x1
 12537 49da 50       		.byte	0x50
 12538 49db 02       		.uleb128 0x2
 12539 49dc 76       		.byte	0x76
 12540 49dd 00       		.sleb128 0
 12541 49de 32       		.uleb128 0x32
 12542 49df 01       		.uleb128 0x1
 12543 49e0 51       		.byte	0x51
 12544 49e1 02       		.uleb128 0x2
 12545 49e2 7B       		.byte	0x7b
 12546 49e3 00       		.sleb128 0
 12547 49e4 00       		.byte	0
 12548 49e5 00       		.byte	0
 12549 49e6 3D       		.uleb128 0x3d
 12550 49e7 EC4B0000 		.4byte	0x4bec
 12551 49eb 12010000 		.4byte	.LBB547
 12552 49ef 2E000000 		.4byte	.LBE547-.LBB547
 12553 49f3 01       		.byte	0x1
 12554 49f4 7001     		.2byte	0x170
 12555 49f6 174A0000 		.4byte	0x4a17
 12556 49fa 47       		.uleb128 0x47
 12557 49fb F84B0000 		.4byte	0x4bf8
 12558 49ff 00       		.byte	0
 12559 4a00 40       		.uleb128 0x40
 12560 4a01 1A010000 		.4byte	.LVL196
 12561 4a05 1C4C0000 		.4byte	0x4c1c
 12562 4a09 32       		.uleb128 0x32
 12563 4a0a 01       		.uleb128 0x1
ARM GAS  /var/folders/j2/t8glr22d56s93xphj_30s8g80000gn/T//cc8l81ic.s 			page 222


 12564 4a0b 50       		.byte	0x50
 12565 4a0c 02       		.uleb128 0x2
 12566 4a0d 77       		.byte	0x77
 12567 4a0e 00       		.sleb128 0
 12568 4a0f 32       		.uleb128 0x32
 12569 4a10 01       		.uleb128 0x1
 12570 4a11 51       		.byte	0x51
 12571 4a12 02       		.uleb128 0x2
 12572 4a13 7B       		.byte	0x7b
 12573 4a14 00       		.sleb128 0
 12574 4a15 00       		.byte	0
 12575 4a16 00       		.byte	0
 12576 4a17 31       		.uleb128 0x31
 12577 4a18 2C000000 		.4byte	.LVL169
 12578 4a1c 50510000 		.4byte	0x5150
 12579 4a20 314A0000 		.4byte	0x4a31
 12580 4a24 32       		.uleb128 0x32
 12581 4a25 01       		.uleb128 0x1
 12582 4a26 50       		.byte	0x50
 12583 4a27 02       		.uleb128 0x2
 12584 4a28 75       		.byte	0x75
 12585 4a29 00       		.sleb128 0
 12586 4a2a 32       		.uleb128 0x32
 12587 4a2b 01       		.uleb128 0x1
 12588 4a2c 51       		.byte	0x51
 12589 4a2d 02       		.uleb128 0x2
 12590 4a2e 75       		.byte	0x75
 12591 4a2f 0A       		.sleb128 10
 12592 4a30 00       		.byte	0
 12593 4a31 31       		.uleb128 0x31
 12594 4a32 68000000 		.4byte	.LVL177
 12595 4a36 5B510000 		.4byte	0x515b
 12596 4a3a 444A0000 		.4byte	0x4a44
 12597 4a3e 32       		.uleb128 0x32
 12598 4a3f 01       		.uleb128 0x1
 12599 4a40 50       		.byte	0x50
 12600 4a41 01       		.uleb128 0x1
 12601 4a42 35       		.byte	0x35
 12602 4a43 00       		.byte	0
 12603 4a44 31       		.uleb128 0x31
 12604 4a45 98000000 		.4byte	.LVL181
 12605 4a49 76510000 		.4byte	0x5176
 12606 4a4d 594A0000 		.4byte	0x4a59
 12607 4a51 32       		.uleb128 0x32
 12608 4a52 01       		.uleb128 0x1
 12609 4a53 50       		.byte	0x50
 12610 4a54 03       		.uleb128 0x3
 12611 4a55 0A       		.byte	0xa
 12612 4a56 E803     		.2byte	0x3e8
 12613 4a58 00       		.byte	0
 12614 4a59 31       		.uleb128 0x31
 12615 4a5a B2000000 		.4byte	.LVL184
 12616 4a5e 76510000 		.4byte	0x5176
 12617 4a62 6E4A0000 		.4byte	0x4a6e
 12618 4a66 32       		.uleb128 0x32
 12619 4a67 01       		.uleb128 0x1
 12620 4a68 50       		.byte	0x50
ARM GAS  /var/folders/j2/t8glr22d56s93xphj_30s8g80000gn/T//cc8l81ic.s 			page 223


 12621 4a69 03       		.uleb128 0x3
 12622 4a6a 0A       		.byte	0xa
 12623 4a6b E803     		.2byte	0x3e8
 12624 4a6d 00       		.byte	0
 12625 4a6e 31       		.uleb128 0x31
 12626 4a6f CC000000 		.4byte	.LVL187
 12627 4a73 76510000 		.4byte	0x5176
 12628 4a77 834A0000 		.4byte	0x4a83
 12629 4a7b 32       		.uleb128 0x32
 12630 4a7c 01       		.uleb128 0x1
 12631 4a7d 50       		.byte	0x50
 12632 4a7e 03       		.uleb128 0x3
 12633 4a7f 0A       		.byte	0xa
 12634 4a80 4501     		.2byte	0x145
 12635 4a82 00       		.byte	0
 12636 4a83 40       		.uleb128 0x40
 12637 4a84 E4000000 		.4byte	.LVL190
 12638 4a88 76510000 		.4byte	0x5176
 12639 4a8c 32       		.uleb128 0x32
 12640 4a8d 01       		.uleb128 0x1
 12641 4a8e 50       		.byte	0x50
 12642 4a8f 03       		.uleb128 0x3
 12643 4a90 0A       		.byte	0xa
 12644 4a91 EE02     		.2byte	0x2ee
 12645 4a93 00       		.byte	0
 12646 4a94 00       		.byte	0
 12647 4a95 13       		.uleb128 0x13
 12648 4a96 6F100000 		.4byte	0x106f
 12649 4a9a A54A0000 		.4byte	0x4aa5
 12650 4a9e 14       		.uleb128 0x14
 12651 4a9f 37000000 		.4byte	0x37
 12652 4aa3 09       		.byte	0x9
 12653 4aa4 00       		.byte	0
 12654 4aa5 05       		.uleb128 0x5
 12655 4aa6 954A0000 		.4byte	0x4a95
 12656 4aaa 30       		.uleb128 0x30
 12657 4aab 2F170000 		.4byte	.LASF745
 12658 4aaf 01       		.byte	0x1
 12659 4ab0 0901     		.2byte	0x109
 12660 4ab2 00000000 		.4byte	.LFB273
 12661 4ab6 B0000000 		.4byte	.LFE273-.LFB273
 12662 4aba 01       		.uleb128 0x1
 12663 4abb 9C       		.byte	0x9c
 12664 4abc 734B0000 		.4byte	0x4b73
 12665 4ac0 2F       		.uleb128 0x2f
 12666 4ac1 7A030000 		.4byte	.LASF746
 12667 4ac5 01       		.byte	0x1
 12668 4ac6 2101     		.2byte	0x121
 12669 4ac8 85250000 		.4byte	0x2585
 12670 4acc 05       		.uleb128 0x5
 12671 4acd 03       		.byte	0x3
 12672 4ace 00000000 		.4byte	pwmcfg_right_motor.9997
 12673 4ad2 2F       		.uleb128 0x2f
 12674 4ad3 07020000 		.4byte	.LASF747
 12675 4ad7 01       		.byte	0x1
 12676 4ad8 3101     		.2byte	0x131
 12677 4ada 85250000 		.4byte	0x2585
ARM GAS  /var/folders/j2/t8glr22d56s93xphj_30s8g80000gn/T//cc8l81ic.s 			page 224


 12678 4ade 05       		.uleb128 0x5
 12679 4adf 03       		.byte	0x3
 12680 4ae0 00000000 		.4byte	pwmcfg_left_motor.9998
 12681 4ae4 31       		.uleb128 0x31
 12682 4ae5 42000000 		.4byte	.LVL213
 12683 4ae9 3B4E0000 		.4byte	0x4e3b
 12684 4aed FB4A0000 		.4byte	0x4afb
 12685 4af1 32       		.uleb128 0x32
 12686 4af2 01       		.uleb128 0x1
 12687 4af3 50       		.byte	0x50
 12688 4af4 05       		.uleb128 0x5
 12689 4af5 03       		.byte	0x3
 12690 4af6 00000000 		.4byte	.LANCHOR2
 12691 4afa 00       		.byte	0
 12692 4afb 31       		.uleb128 0x31
 12693 4afc 48000000 		.4byte	.LVL214
 12694 4b00 0D4E0000 		.4byte	0x4e0d
 12695 4b04 124B0000 		.4byte	0x4b12
 12696 4b08 32       		.uleb128 0x32
 12697 4b09 01       		.uleb128 0x1
 12698 4b0a 50       		.byte	0x50
 12699 4b0b 05       		.uleb128 0x5
 12700 4b0c 03       		.byte	0x3
 12701 4b0d 00000000 		.4byte	.LANCHOR2
 12702 4b11 00       		.byte	0
 12703 4b12 31       		.uleb128 0x31
 12704 4b13 50000000 		.4byte	.LVL215
 12705 4b17 B4510000 		.4byte	0x51b4
 12706 4b1b 2F4B0000 		.4byte	0x4b2f
 12707 4b1f 32       		.uleb128 0x32
 12708 4b20 01       		.uleb128 0x1
 12709 4b21 50       		.byte	0x50
 12710 4b22 02       		.uleb128 0x2
 12711 4b23 74       		.byte	0x74
 12712 4b24 00       		.sleb128 0
 12713 4b25 32       		.uleb128 0x32
 12714 4b26 01       		.uleb128 0x1
 12715 4b27 51       		.byte	0x51
 12716 4b28 05       		.uleb128 0x5
 12717 4b29 03       		.byte	0x3
 12718 4b2a 00000000 		.4byte	.LANCHOR11
 12719 4b2e 00       		.byte	0
 12720 4b2f 31       		.uleb128 0x31
 12721 4b30 56000000 		.4byte	.LVL216
 12722 4b34 C0510000 		.4byte	0x51c0
 12723 4b38 434B0000 		.4byte	0x4b43
 12724 4b3c 32       		.uleb128 0x32
 12725 4b3d 01       		.uleb128 0x1
 12726 4b3e 50       		.byte	0x50
 12727 4b3f 02       		.uleb128 0x2
 12728 4b40 74       		.byte	0x74
 12729 4b41 00       		.sleb128 0
 12730 4b42 00       		.byte	0
 12731 4b43 31       		.uleb128 0x31
 12732 4b44 5E000000 		.4byte	.LVL217
 12733 4b48 B4510000 		.4byte	0x51b4
 12734 4b4c 604B0000 		.4byte	0x4b60
ARM GAS  /var/folders/j2/t8glr22d56s93xphj_30s8g80000gn/T//cc8l81ic.s 			page 225


 12735 4b50 32       		.uleb128 0x32
 12736 4b51 01       		.uleb128 0x1
 12737 4b52 50       		.byte	0x50
 12738 4b53 02       		.uleb128 0x2
 12739 4b54 75       		.byte	0x75
 12740 4b55 00       		.sleb128 0
 12741 4b56 32       		.uleb128 0x32
 12742 4b57 01       		.uleb128 0x1
 12743 4b58 51       		.byte	0x51
 12744 4b59 05       		.uleb128 0x5
 12745 4b5a 03       		.byte	0x3
 12746 4b5b 00000000 		.4byte	.LANCHOR12
 12747 4b5f 00       		.byte	0
 12748 4b60 48       		.uleb128 0x48
 12749 4b61 72000000 		.4byte	.LVL218
 12750 4b65 C0510000 		.4byte	0x51c0
 12751 4b69 33       		.uleb128 0x33
 12752 4b6a 76000000 		.4byte	.LVL219
 12753 4b6e FF500000 		.4byte	0x50ff
 12754 4b72 00       		.byte	0
 12755 4b73 30       		.uleb128 0x30
 12756 4b74 D11F0000 		.4byte	.LASF748
 12757 4b78 01       		.byte	0x1
 12758 4b79 0501     		.2byte	0x105
 12759 4b7b 00000000 		.4byte	.LFB272
 12760 4b7f 2C000000 		.4byte	.LFE272-.LFB272
 12761 4b83 01       		.uleb128 0x1
 12762 4b84 9C       		.byte	0x9c
 12763 4b85 A34B0000 		.4byte	0x4ba3
 12764 4b89 49       		.uleb128 0x49
 12765 4b8a DB100000 		.4byte	.LASF749
 12766 4b8e 01       		.byte	0x1
 12767 4b8f 0501     		.2byte	0x105
 12768 4b91 E5000000 		.4byte	0xe5
 12769 4b95 CA040000 		.4byte	.LLST72
 12770 4b99 33       		.uleb128 0x33
 12771 4b9a 22000000 		.4byte	.LVL212
 12772 4b9e FF500000 		.4byte	0x50ff
 12773 4ba2 00       		.byte	0
 12774 4ba3 4A       		.uleb128 0x4a
 12775 4ba4 08050000 		.4byte	.LASF750
 12776 4ba8 01       		.byte	0x1
 12777 4ba9 0101     		.2byte	0x101
 12778 4bab 01       		.byte	0x1
 12779 4bac BD4B0000 		.4byte	0x4bbd
 12780 4bb0 4B       		.uleb128 0x4b
 12781 4bb1 DB100000 		.4byte	.LASF749
 12782 4bb5 01       		.byte	0x1
 12783 4bb6 0101     		.2byte	0x101
 12784 4bb8 E5000000 		.4byte	0xe5
 12785 4bbc 00       		.byte	0
 12786 4bbd 4C       		.uleb128 0x4c
 12787 4bbe 17200000 		.4byte	.LASF798
 12788 4bc2 01       		.byte	0x1
 12789 4bc3 FD       		.byte	0xfd
 12790 4bc4 E5000000 		.4byte	0xe5
 12791 4bc8 00000000 		.4byte	.LFB270
ARM GAS  /var/folders/j2/t8glr22d56s93xphj_30s8g80000gn/T//cc8l81ic.s 			page 226


 12792 4bcc 30000000 		.4byte	.LFE270-.LFB270
 12793 4bd0 01       		.uleb128 0x1
 12794 4bd1 9C       		.byte	0x9c
 12795 4bd2 E04B0000 		.4byte	0x4be0
 12796 4bd6 33       		.uleb128 0x33
 12797 4bd7 26000000 		.4byte	.LVL206
 12798 4bdb FF500000 		.4byte	0x50ff
 12799 4bdf 00       		.byte	0
 12800 4be0 4D       		.uleb128 0x4d
 12801 4be1 68050000 		.4byte	.LASF799
 12802 4be5 01       		.byte	0x1
 12803 4be6 F9       		.byte	0xf9
 12804 4be7 E5000000 		.4byte	0xe5
 12805 4beb 01       		.byte	0x1
 12806 4bec 4E       		.uleb128 0x4e
 12807 4bed 77150000 		.4byte	.LASF751
 12808 4bf1 01       		.byte	0x1
 12809 4bf2 F5       		.byte	0xf5
 12810 4bf3 01       		.byte	0x1
 12811 4bf4 044C0000 		.4byte	0x4c04
 12812 4bf8 4F       		.uleb128 0x4f
 12813 4bf9 701A0000 		.4byte	.LASF752
 12814 4bfd 01       		.byte	0x1
 12815 4bfe F5       		.byte	0xf5
 12816 4bff 25000000 		.4byte	0x25
 12817 4c03 00       		.byte	0
 12818 4c04 4E       		.uleb128 0x4e
 12819 4c05 DB140000 		.4byte	.LASF753
 12820 4c09 01       		.byte	0x1
 12821 4c0a F1       		.byte	0xf1
 12822 4c0b 01       		.byte	0x1
 12823 4c0c 1C4C0000 		.4byte	0x4c1c
 12824 4c10 4F       		.uleb128 0x4f
 12825 4c11 701A0000 		.4byte	.LASF752
 12826 4c15 01       		.byte	0x1
 12827 4c16 F1       		.byte	0xf1
 12828 4c17 25000000 		.4byte	0x25
 12829 4c1b 00       		.byte	0
 12830 4c1c 50       		.uleb128 0x50
 12831 4c1d 8D0A0000 		.4byte	.LASF754
 12832 4c21 01       		.byte	0x1
 12833 4c22 C6       		.byte	0xc6
 12834 4c23 00000000 		.4byte	.LFB266
 12835 4c27 8C000000 		.4byte	.LFE266-.LFB266
 12836 4c2b 01       		.uleb128 0x1
 12837 4c2c 9C       		.byte	0x9c
 12838 4c2d 6F4C0000 		.4byte	0x4c6f
 12839 4c31 51       		.uleb128 0x51
 12840 4c32 6D00     		.ascii	"m\000"
 12841 4c34 01       		.byte	0x1
 12842 4c35 C6       		.byte	0xc6
 12843 4c36 6F4C0000 		.4byte	0x4c6f
 12844 4c3a EB040000 		.4byte	.LLST13
 12845 4c3e 52       		.uleb128 0x52
 12846 4c3f 701A0000 		.4byte	.LASF752
 12847 4c43 01       		.byte	0x1
 12848 4c44 C6       		.byte	0xc6
ARM GAS  /var/folders/j2/t8glr22d56s93xphj_30s8g80000gn/T//cc8l81ic.s 			page 227


 12849 4c45 25000000 		.4byte	0x25
 12850 4c49 4E050000 		.4byte	.LLST14
 12851 4c4d 53       		.uleb128 0x53
 12852 4c4e C8160000 		.4byte	.LASF755
 12853 4c52 01       		.byte	0x1
 12854 4c53 D2       		.byte	0xd2
 12855 4c54 DA000000 		.4byte	0xda
 12856 4c58 BA050000 		.4byte	.LLST15
 12857 4c5c 48       		.uleb128 0x48
 12858 4c5d 40000000 		.4byte	.LVL76
 12859 4c61 CC510000 		.4byte	0x51cc
 12860 4c65 33       		.uleb128 0x33
 12861 4c66 76000000 		.4byte	.LVL86
 12862 4c6a FF500000 		.4byte	0x50ff
 12863 4c6e 00       		.byte	0
 12864 4c6f 0B       		.uleb128 0xb
 12865 4c70 04       		.byte	0x4
 12866 4c71 A7350000 		.4byte	0x35a7
 12867 4c75 54       		.uleb128 0x54
 12868 4c76 3B140000 		.4byte	.LASF756
 12869 4c7a 01       		.byte	0x1
 12870 4c7b BC       		.byte	0xbc
 12871 4c7c 00000000 		.4byte	.LFB265
 12872 4c80 2C000000 		.4byte	.LFE265-.LFB265
 12873 4c84 01       		.uleb128 0x1
 12874 4c85 9C       		.byte	0x9c
 12875 4c86 A74C0000 		.4byte	0x4ca7
 12876 4c8a 55       		.uleb128 0x55
 12877 4c8b 20000000 		.4byte	.LVL18
 12878 4c8f D8510000 		.4byte	0x51d8
 12879 4c93 9D4C0000 		.4byte	0x4c9d
 12880 4c97 32       		.uleb128 0x32
 12881 4c98 01       		.uleb128 0x1
 12882 4c99 51       		.byte	0x51
 12883 4c9a 01       		.uleb128 0x1
 12884 4c9b 30       		.byte	0x30
 12885 4c9c 00       		.byte	0
 12886 4c9d 33       		.uleb128 0x33
 12887 4c9e 24000000 		.4byte	.LVL19
 12888 4ca2 FF500000 		.4byte	0x50ff
 12889 4ca6 00       		.byte	0
 12890 4ca7 54       		.uleb128 0x54
 12891 4ca8 061E0000 		.4byte	.LASF757
 12892 4cac 01       		.byte	0x1
 12893 4cad B5       		.byte	0xb5
 12894 4cae 00000000 		.4byte	.LFB264
 12895 4cb2 2C000000 		.4byte	.LFE264-.LFB264
 12896 4cb6 01       		.uleb128 0x1
 12897 4cb7 9C       		.byte	0x9c
 12898 4cb8 D94C0000 		.4byte	0x4cd9
 12899 4cbc 55       		.uleb128 0x55
 12900 4cbd 20000000 		.4byte	.LVL16
 12901 4cc1 D8510000 		.4byte	0x51d8
 12902 4cc5 CF4C0000 		.4byte	0x4ccf
 12903 4cc9 32       		.uleb128 0x32
 12904 4cca 01       		.uleb128 0x1
 12905 4ccb 51       		.byte	0x51
ARM GAS  /var/folders/j2/t8glr22d56s93xphj_30s8g80000gn/T//cc8l81ic.s 			page 228


 12906 4ccc 01       		.uleb128 0x1
 12907 4ccd 30       		.byte	0x30
 12908 4cce 00       		.byte	0
 12909 4ccf 33       		.uleb128 0x33
 12910 4cd0 24000000 		.4byte	.LVL17
 12911 4cd4 FF500000 		.4byte	0x50ff
 12912 4cd8 00       		.byte	0
 12913 4cd9 54       		.uleb128 0x54
 12914 4cda 380B0000 		.4byte	.LASF758
 12915 4cde 01       		.byte	0x1
 12916 4cdf AB       		.byte	0xab
 12917 4ce0 00000000 		.4byte	.LFB263
 12918 4ce4 38000000 		.4byte	.LFE263-.LFB263
 12919 4ce8 01       		.uleb128 0x1
 12920 4ce9 9C       		.byte	0x9c
 12921 4cea 244D0000 		.4byte	0x4d24
 12922 4cee 31       		.uleb128 0x31
 12923 4cef 14000000 		.4byte	.LVL13
 12924 4cf3 E4510000 		.4byte	0x51e4
 12925 4cf7 074D0000 		.4byte	0x4d07
 12926 4cfb 32       		.uleb128 0x32
 12927 4cfc 01       		.uleb128 0x1
 12928 4cfd 51       		.byte	0x51
 12929 4cfe 01       		.uleb128 0x1
 12930 4cff 30       		.byte	0x30
 12931 4d00 32       		.uleb128 0x32
 12932 4d01 01       		.uleb128 0x1
 12933 4d02 52       		.byte	0x52
 12934 4d03 02       		.uleb128 0x2
 12935 4d04 08       		.byte	0x8
 12936 4d05 99       		.byte	0x99
 12937 4d06 00       		.byte	0
 12938 4d07 55       		.uleb128 0x55
 12939 4d08 2A000000 		.4byte	.LVL14
 12940 4d0c F0510000 		.4byte	0x51f0
 12941 4d10 1A4D0000 		.4byte	0x4d1a
 12942 4d14 32       		.uleb128 0x32
 12943 4d15 01       		.uleb128 0x1
 12944 4d16 51       		.byte	0x51
 12945 4d17 01       		.uleb128 0x1
 12946 4d18 30       		.byte	0x30
 12947 4d19 00       		.byte	0
 12948 4d1a 33       		.uleb128 0x33
 12949 4d1b 2E000000 		.4byte	.LVL15
 12950 4d1f FF500000 		.4byte	0x50ff
 12951 4d23 00       		.byte	0
 12952 4d24 54       		.uleb128 0x54
 12953 4d25 61170000 		.4byte	.LASF759
 12954 4d29 01       		.byte	0x1
 12955 4d2a A1       		.byte	0xa1
 12956 4d2b 00000000 		.4byte	.LFB262
 12957 4d2f 38000000 		.4byte	.LFE262-.LFB262
 12958 4d33 01       		.uleb128 0x1
 12959 4d34 9C       		.byte	0x9c
 12960 4d35 6F4D0000 		.4byte	0x4d6f
 12961 4d39 31       		.uleb128 0x31
 12962 4d3a 14000000 		.4byte	.LVL10
ARM GAS  /var/folders/j2/t8glr22d56s93xphj_30s8g80000gn/T//cc8l81ic.s 			page 229


 12963 4d3e E4510000 		.4byte	0x51e4
 12964 4d42 524D0000 		.4byte	0x4d52
 12965 4d46 32       		.uleb128 0x32
 12966 4d47 01       		.uleb128 0x1
 12967 4d48 51       		.byte	0x51
 12968 4d49 01       		.uleb128 0x1
 12969 4d4a 30       		.byte	0x30
 12970 4d4b 32       		.uleb128 0x32
 12971 4d4c 01       		.uleb128 0x1
 12972 4d4d 52       		.byte	0x52
 12973 4d4e 02       		.uleb128 0x2
 12974 4d4f 08       		.byte	0x8
 12975 4d50 99       		.byte	0x99
 12976 4d51 00       		.byte	0
 12977 4d52 55       		.uleb128 0x55
 12978 4d53 2A000000 		.4byte	.LVL11
 12979 4d57 F0510000 		.4byte	0x51f0
 12980 4d5b 654D0000 		.4byte	0x4d65
 12981 4d5f 32       		.uleb128 0x32
 12982 4d60 01       		.uleb128 0x1
 12983 4d61 51       		.byte	0x51
 12984 4d62 01       		.uleb128 0x1
 12985 4d63 30       		.byte	0x30
 12986 4d64 00       		.byte	0
 12987 4d65 33       		.uleb128 0x33
 12988 4d66 2E000000 		.4byte	.LVL12
 12989 4d6a FF500000 		.4byte	0x50ff
 12990 4d6e 00       		.byte	0
 12991 4d6f 56       		.uleb128 0x56
 12992 4d70 FE000000 		.4byte	.LASF760
 12993 4d74 01       		.byte	0x1
 12994 4d75 96       		.byte	0x96
 12995 4d76 00000000 		.4byte	.LFB261
 12996 4d7a 3C000000 		.4byte	.LFE261-.LFB261
 12997 4d7e 01       		.uleb128 0x1
 12998 4d7f 9C       		.byte	0x9c
 12999 4d80 9D4D0000 		.4byte	0x4d9d
 13000 4d84 52       		.uleb128 0x52
 13001 4d85 B0140000 		.4byte	.LASF761
 13002 4d89 01       		.byte	0x1
 13003 4d8a 96       		.byte	0x96
 13004 4d8b AB240000 		.4byte	0x24ab
 13005 4d8f F0050000 		.4byte	.LLST3
 13006 4d93 33       		.uleb128 0x33
 13007 4d94 34000000 		.4byte	.LVL9
 13008 4d98 FF500000 		.4byte	0x50ff
 13009 4d9c 00       		.byte	0
 13010 4d9d 56       		.uleb128 0x56
 13011 4d9e 9F1A0000 		.4byte	.LASF762
 13012 4da2 01       		.byte	0x1
 13013 4da3 87       		.byte	0x87
 13014 4da4 00000000 		.4byte	.LFB260
 13015 4da8 3C000000 		.4byte	.LFE260-.LFB260
 13016 4dac 01       		.uleb128 0x1
 13017 4dad 9C       		.byte	0x9c
 13018 4dae CB4D0000 		.4byte	0x4dcb
 13019 4db2 52       		.uleb128 0x52
ARM GAS  /var/folders/j2/t8glr22d56s93xphj_30s8g80000gn/T//cc8l81ic.s 			page 230


 13020 4db3 B0140000 		.4byte	.LASF761
 13021 4db7 01       		.byte	0x1
 13022 4db8 87       		.byte	0x87
 13023 4db9 AB240000 		.4byte	0x24ab
 13024 4dbd 11060000 		.4byte	.LLST2
 13025 4dc1 33       		.uleb128 0x33
 13026 4dc2 34000000 		.4byte	.LVL6
 13027 4dc6 FF500000 		.4byte	0x50ff
 13028 4dca 00       		.byte	0
 13029 4dcb 57       		.uleb128 0x57
 13030 4dcc C4050000 		.4byte	.LASF764
 13031 4dd0 01       		.byte	0x1
 13032 4dd1 6D       		.byte	0x6d
 13033 4dd2 01       		.byte	0x1
 13034 4dd3 EC4D0000 		.4byte	0x4dec
 13035 4dd7 4F       		.uleb128 0x4f
 13036 4dd8 90000000 		.4byte	.LASF763
 13037 4ddc 01       		.byte	0x1
 13038 4ddd 6D       		.byte	0x6d
 13039 4dde AB240000 		.4byte	0x24ab
 13040 4de2 58       		.uleb128 0x58
 13041 4de3 6900     		.ascii	"i\000"
 13042 4de5 01       		.byte	0x1
 13043 4de6 70       		.byte	0x70
 13044 4de7 BF000000 		.4byte	0xbf
 13045 4deb 00       		.byte	0
 13046 4dec 57       		.uleb128 0x57
 13047 4ded 4D050000 		.4byte	.LASF765
 13048 4df1 01       		.byte	0x1
 13049 4df2 54       		.byte	0x54
 13050 4df3 01       		.byte	0x1
 13051 4df4 0D4E0000 		.4byte	0x4e0d
 13052 4df8 4F       		.uleb128 0x4f
 13053 4df9 90000000 		.4byte	.LASF763
 13054 4dfd 01       		.byte	0x1
 13055 4dfe 54       		.byte	0x54
 13056 4dff AB240000 		.4byte	0x24ab
 13057 4e03 58       		.uleb128 0x58
 13058 4e04 6900     		.ascii	"i\000"
 13059 4e06 01       		.byte	0x1
 13060 4e07 57       		.byte	0x57
 13061 4e08 BF000000 		.4byte	0xbf
 13062 4e0c 00       		.byte	0
 13063 4e0d 56       		.uleb128 0x56
 13064 4e0e 39010000 		.4byte	.LASF766
 13065 4e12 01       		.byte	0x1
 13066 4e13 45       		.byte	0x45
 13067 4e14 00000000 		.4byte	.LFB257
 13068 4e18 88000000 		.4byte	.LFE257-.LFB257
 13069 4e1c 01       		.uleb128 0x1
 13070 4e1d 9C       		.byte	0x9c
 13071 4e1e 3B4E0000 		.4byte	0x4e3b
 13072 4e22 51       		.uleb128 0x51
 13073 4e23 6F757400 		.ascii	"out\000"
 13074 4e27 01       		.byte	0x1
 13075 4e28 45       		.byte	0x45
 13076 4e29 05130000 		.4byte	0x1305
ARM GAS  /var/folders/j2/t8glr22d56s93xphj_30s8g80000gn/T//cc8l81ic.s 			page 231


 13077 4e2d 32060000 		.4byte	.LLST1
 13078 4e31 33       		.uleb128 0x33
 13079 4e32 80000000 		.4byte	.LVL3
 13080 4e36 FF500000 		.4byte	0x50ff
 13081 4e3a 00       		.byte	0
 13082 4e3b 56       		.uleb128 0x56
 13083 4e3c 441B0000 		.4byte	.LASF767
 13084 4e40 01       		.byte	0x1
 13085 4e41 36       		.byte	0x36
 13086 4e42 00000000 		.4byte	.LFB256
 13087 4e46 88000000 		.4byte	.LFE256-.LFB256
 13088 4e4a 01       		.uleb128 0x1
 13089 4e4b 9C       		.byte	0x9c
 13090 4e4c 694E0000 		.4byte	0x4e69
 13091 4e50 51       		.uleb128 0x51
 13092 4e51 6F757400 		.ascii	"out\000"
 13093 4e55 01       		.byte	0x1
 13094 4e56 36       		.byte	0x36
 13095 4e57 05130000 		.4byte	0x1305
 13096 4e5b 53060000 		.4byte	.LLST0
 13097 4e5f 33       		.uleb128 0x33
 13098 4e60 80000000 		.4byte	.LVL1
 13099 4e64 FF500000 		.4byte	0x50ff
 13100 4e68 00       		.byte	0
 13101 4e69 57       		.uleb128 0x57
 13102 4e6a A51C0000 		.4byte	.LASF768
 13103 4e6e 02       		.byte	0x2
 13104 4e6f 84       		.byte	0x84
 13105 4e70 03       		.byte	0x3
 13106 4e71 814E0000 		.4byte	0x4e81
 13107 4e75 4F       		.uleb128 0x4f
 13108 4e76 2F1E0000 		.4byte	.LASF769
 13109 4e7a 02       		.byte	0x2
 13110 4e7b 84       		.byte	0x84
 13111 4e7c 5D100000 		.4byte	0x105d
 13112 4e80 00       		.byte	0
 13113 4e81 59       		.uleb128 0x59
 13114 4e82 F61E0000 		.4byte	.LASF800
 13115 4e86 05       		.byte	0x5
 13116 4e87 F7       		.byte	0xf7
 13117 4e88 99010000 		.4byte	0x199
 13118 4e8c 03       		.byte	0x3
 13119 4e8d 9D4E0000 		.4byte	0x4e9d
 13120 4e91 5A       		.uleb128 0x5a
 13121 4e92 811F0000 		.4byte	.LASF770
 13122 4e96 05       		.byte	0x5
 13123 4e97 F8       		.byte	0xf8
 13124 4e98 99010000 		.4byte	0x199
 13125 4e9c 00       		.byte	0
 13126 4e9d 5B       		.uleb128 0x5b
 13127 4e9e F9190000 		.4byte	.LASF801
 13128 4ea2 05       		.byte	0x5
 13129 4ea3 E4       		.byte	0xe4
 13130 4ea4 99010000 		.4byte	0x199
 13131 4ea8 03       		.byte	0x3
 13132 4ea9 5C       		.uleb128 0x5c
 13133 4eaa B81C0000 		.4byte	.LASF771
ARM GAS  /var/folders/j2/t8glr22d56s93xphj_30s8g80000gn/T//cc8l81ic.s 			page 232


 13134 4eae 03       		.byte	0x3
 13135 4eaf 6601     		.2byte	0x166
 13136 4eb1 03       		.byte	0x3
 13137 4eb2 C44E0000 		.4byte	0x4ec4
 13138 4eb6 5D       		.uleb128 0x5d
 13139 4eb7 45000000 		.4byte	.LASF772
 13140 4ebb D0390000 		.4byte	0x39d0
 13141 4ebf B81C0000 		.4byte	.LASF771
 13142 4ec3 00       		.byte	0
 13143 4ec4 5E       		.uleb128 0x5e
 13144 4ec5 10150000 		.4byte	.LASF773
 13145 4ec9 03       		.byte	0x3
 13146 4eca 5A01     		.2byte	0x15a
 13147 4ecc 03       		.byte	0x3
 13148 4ecd 5E       		.uleb128 0x5e
 13149 4ece BE140000 		.4byte	.LASF774
 13150 4ed2 10       		.byte	0x10
 13151 4ed3 CA01     		.2byte	0x1ca
 13152 4ed5 03       		.byte	0x3
 13153 4ed6 5E       		.uleb128 0x5e
 13154 4ed7 74160000 		.4byte	.LASF775
 13155 4edb 10       		.byte	0x10
 13156 4edc BC01     		.2byte	0x1bc
 13157 4ede 03       		.byte	0x3
 13158 4edf 5C       		.uleb128 0x5c
 13159 4ee0 A81F0000 		.4byte	.LASF776
 13160 4ee4 04       		.byte	0x4
 13161 4ee5 2002     		.2byte	0x220
 13162 4ee7 03       		.byte	0x3
 13163 4ee8 F94E0000 		.4byte	0x4ef9
 13164 4eec 4B       		.uleb128 0x4b
 13165 4eed 9D0A0000 		.4byte	.LASF777
 13166 4ef1 04       		.byte	0x4
 13167 4ef2 2002     		.2byte	0x220
 13168 4ef4 F5000000 		.4byte	0xf5
 13169 4ef8 00       		.byte	0
 13170 4ef9 5F       		.uleb128 0x5f
 13171 4efa EC4D0000 		.4byte	0x4dec
 13172 4efe 00000000 		.4byte	.LFB258
 13173 4f02 7C000000 		.4byte	.LFE258-.LFB258
 13174 4f06 01       		.uleb128 0x1
 13175 4f07 9C       		.byte	0x9c
 13176 4f08 914F0000 		.4byte	0x4f91
 13177 4f0c 3F       		.uleb128 0x3f
 13178 4f0d F84D0000 		.4byte	0x4df8
 13179 4f11 74060000 		.4byte	.LLST4
 13180 4f15 60       		.uleb128 0x60
 13181 4f16 034E0000 		.4byte	0x4e03
 13182 4f1a C7060000 		.4byte	.LLST5
 13183 4f1e 61       		.uleb128 0x61
 13184 4f1f EC4D0000 		.4byte	0x4dec
 13185 4f23 4E000000 		.4byte	.LBB163
 13186 4f27 1A000000 		.4byte	.LBE163-.LBB163
 13187 4f2b 5C4F0000 		.4byte	0x4f5c
 13188 4f2f 3F       		.uleb128 0x3f
 13189 4f30 F84D0000 		.4byte	0x4df8
 13190 4f34 DA060000 		.4byte	.LLST6
ARM GAS  /var/folders/j2/t8glr22d56s93xphj_30s8g80000gn/T//cc8l81ic.s 			page 233


 13191 4f38 43       		.uleb128 0x43
 13192 4f39 4E000000 		.4byte	.LBB164
 13193 4f3d 1A000000 		.4byte	.LBE164-.LBB164
 13194 4f41 3B       		.uleb128 0x3b
 13195 4f42 154F0000 		.4byte	0x4f15
 13196 4f46 62       		.uleb128 0x62
 13197 4f47 5E000000 		.4byte	.LVL30
 13198 4f4b 32       		.uleb128 0x32
 13199 4f4c 01       		.uleb128 0x1
 13200 4f4d 50       		.byte	0x50
 13201 4f4e 0A       		.uleb128 0xa
 13202 4f4f 75       		.byte	0x75
 13203 4f50 00       		.sleb128 0
 13204 4f51 32       		.byte	0x32
 13205 4f52 24       		.byte	0x24
 13206 4f53 03       		.byte	0x3
 13207 4f54 00000000 		.4byte	.LANCHOR1
 13208 4f58 22       		.byte	0x22
 13209 4f59 00       		.byte	0
 13210 4f5a 00       		.byte	0
 13211 4f5b 00       		.byte	0
 13212 4f5c 63       		.uleb128 0x63
 13213 4f5d 24000000 		.4byte	.LVL23
 13214 4f61 744F0000 		.4byte	0x4f74
 13215 4f65 32       		.uleb128 0x32
 13216 4f66 01       		.uleb128 0x1
 13217 4f67 50       		.byte	0x50
 13218 4f68 0A       		.uleb128 0xa
 13219 4f69 75       		.byte	0x75
 13220 4f6a 00       		.sleb128 0
 13221 4f6b 32       		.byte	0x32
 13222 4f6c 24       		.byte	0x24
 13223 4f6d 03       		.byte	0x3
 13224 4f6e 00000000 		.4byte	.LANCHOR1
 13225 4f72 22       		.byte	0x22
 13226 4f73 00       		.byte	0
 13227 4f74 64       		.uleb128 0x64
 13228 4f75 4E000000 		.4byte	.LVL27
 13229 4f79 874F0000 		.4byte	0x4f87
 13230 4f7d 32       		.uleb128 0x32
 13231 4f7e 01       		.uleb128 0x1
 13232 4f7f 50       		.byte	0x50
 13233 4f80 05       		.uleb128 0x5
 13234 4f81 03       		.byte	0x3
 13235 4f82 00000000 		.4byte	.LANCHOR2
 13236 4f86 00       		.byte	0
 13237 4f87 33       		.uleb128 0x33
 13238 4f88 6C000000 		.4byte	.LVL32
 13239 4f8c FF500000 		.4byte	0x50ff
 13240 4f90 00       		.byte	0
 13241 4f91 5F       		.uleb128 0x5f
 13242 4f92 CB4D0000 		.4byte	0x4dcb
 13243 4f96 00000000 		.4byte	.LFB259
 13244 4f9a 7C000000 		.4byte	.LFE259-.LFB259
 13245 4f9e 01       		.uleb128 0x1
 13246 4f9f 9C       		.byte	0x9c
 13247 4fa0 29500000 		.4byte	0x5029
ARM GAS  /var/folders/j2/t8glr22d56s93xphj_30s8g80000gn/T//cc8l81ic.s 			page 234


 13248 4fa4 3F       		.uleb128 0x3f
 13249 4fa5 D74D0000 		.4byte	0x4dd7
 13250 4fa9 FB060000 		.4byte	.LLST7
 13251 4fad 60       		.uleb128 0x60
 13252 4fae E24D0000 		.4byte	0x4de2
 13253 4fb2 4E070000 		.4byte	.LLST8
 13254 4fb6 61       		.uleb128 0x61
 13255 4fb7 CB4D0000 		.4byte	0x4dcb
 13256 4fbb 4E000000 		.4byte	.LBB167
 13257 4fbf 1A000000 		.4byte	.LBE167-.LBB167
 13258 4fc3 F44F0000 		.4byte	0x4ff4
 13259 4fc7 3F       		.uleb128 0x3f
 13260 4fc8 D74D0000 		.4byte	0x4dd7
 13261 4fcc 61070000 		.4byte	.LLST9
 13262 4fd0 43       		.uleb128 0x43
 13263 4fd1 4E000000 		.4byte	.LBB168
 13264 4fd5 1A000000 		.4byte	.LBE168-.LBB168
 13265 4fd9 3B       		.uleb128 0x3b
 13266 4fda AD4F0000 		.4byte	0x4fad
 13267 4fde 62       		.uleb128 0x62
 13268 4fdf 5E000000 		.4byte	.LVL43
 13269 4fe3 32       		.uleb128 0x32
 13270 4fe4 01       		.uleb128 0x1
 13271 4fe5 50       		.byte	0x50
 13272 4fe6 0A       		.uleb128 0xa
 13273 4fe7 75       		.byte	0x75
 13274 4fe8 00       		.sleb128 0
 13275 4fe9 32       		.byte	0x32
 13276 4fea 24       		.byte	0x24
 13277 4feb 03       		.byte	0x3
 13278 4fec 00000000 		.4byte	.LANCHOR1
 13279 4ff0 22       		.byte	0x22
 13280 4ff1 00       		.byte	0
 13281 4ff2 00       		.byte	0
 13282 4ff3 00       		.byte	0
 13283 4ff4 63       		.uleb128 0x63
 13284 4ff5 24000000 		.4byte	.LVL36
 13285 4ff9 0C500000 		.4byte	0x500c
 13286 4ffd 32       		.uleb128 0x32
 13287 4ffe 01       		.uleb128 0x1
 13288 4fff 50       		.byte	0x50
 13289 5000 0A       		.uleb128 0xa
 13290 5001 75       		.byte	0x75
 13291 5002 00       		.sleb128 0
 13292 5003 32       		.byte	0x32
 13293 5004 24       		.byte	0x24
 13294 5005 03       		.byte	0x3
 13295 5006 00000000 		.4byte	.LANCHOR1
 13296 500a 22       		.byte	0x22
 13297 500b 00       		.byte	0
 13298 500c 64       		.uleb128 0x64
 13299 500d 4E000000 		.4byte	.LVL40
 13300 5011 1F500000 		.4byte	0x501f
 13301 5015 32       		.uleb128 0x32
 13302 5016 01       		.uleb128 0x1
 13303 5017 50       		.byte	0x50
 13304 5018 05       		.uleb128 0x5
ARM GAS  /var/folders/j2/t8glr22d56s93xphj_30s8g80000gn/T//cc8l81ic.s 			page 235


 13305 5019 03       		.byte	0x3
 13306 501a 00000000 		.4byte	.LANCHOR2
 13307 501e 00       		.byte	0
 13308 501f 33       		.uleb128 0x33
 13309 5020 6C000000 		.4byte	.LVL45
 13310 5024 FF500000 		.4byte	0x50ff
 13311 5028 00       		.byte	0
 13312 5029 5F       		.uleb128 0x5f
 13313 502a 044C0000 		.4byte	0x4c04
 13314 502e 00000000 		.4byte	.LFB267
 13315 5032 2C000000 		.4byte	.LFE267-.LFB267
 13316 5036 01       		.uleb128 0x1
 13317 5037 9C       		.byte	0x9c
 13318 5038 6D500000 		.4byte	0x506d
 13319 503c 3F       		.uleb128 0x3f
 13320 503d 104C0000 		.4byte	0x4c10
 13321 5041 82070000 		.4byte	.LLST69
 13322 5045 55       		.uleb128 0x55
 13323 5046 20000000 		.4byte	.LVL199
 13324 504a 1C4C0000 		.4byte	0x4c1c
 13325 504e 63500000 		.4byte	0x5063
 13326 5052 32       		.uleb128 0x32
 13327 5053 01       		.uleb128 0x1
 13328 5054 50       		.byte	0x50
 13329 5055 05       		.uleb128 0x5
 13330 5056 03       		.byte	0x3
 13331 5057 00000000 		.4byte	.LANCHOR3
 13332 505b 32       		.uleb128 0x32
 13333 505c 01       		.uleb128 0x1
 13334 505d 51       		.byte	0x51
 13335 505e 03       		.uleb128 0x3
 13336 505f F3       		.byte	0xf3
 13337 5060 01       		.uleb128 0x1
 13338 5061 50       		.byte	0x50
 13339 5062 00       		.byte	0
 13340 5063 33       		.uleb128 0x33
 13341 5064 24000000 		.4byte	.LVL200
 13342 5068 FF500000 		.4byte	0x50ff
 13343 506c 00       		.byte	0
 13344 506d 5F       		.uleb128 0x5f
 13345 506e EC4B0000 		.4byte	0x4bec
 13346 5072 00000000 		.4byte	.LFB268
 13347 5076 2C000000 		.4byte	.LFE268-.LFB268
 13348 507a 01       		.uleb128 0x1
 13349 507b 9C       		.byte	0x9c
 13350 507c B1500000 		.4byte	0x50b1
 13351 5080 3F       		.uleb128 0x3f
 13352 5081 F84B0000 		.4byte	0x4bf8
 13353 5085 C7070000 		.4byte	.LLST70
 13354 5089 55       		.uleb128 0x55
 13355 508a 20000000 		.4byte	.LVL203
 13356 508e 1C4C0000 		.4byte	0x4c1c
 13357 5092 A7500000 		.4byte	0x50a7
 13358 5096 32       		.uleb128 0x32
 13359 5097 01       		.uleb128 0x1
 13360 5098 50       		.byte	0x50
 13361 5099 05       		.uleb128 0x5
ARM GAS  /var/folders/j2/t8glr22d56s93xphj_30s8g80000gn/T//cc8l81ic.s 			page 236


 13362 509a 03       		.byte	0x3
 13363 509b 00000000 		.4byte	.LANCHOR0
 13364 509f 32       		.uleb128 0x32
 13365 50a0 01       		.uleb128 0x1
 13366 50a1 51       		.byte	0x51
 13367 50a2 03       		.uleb128 0x3
 13368 50a3 F3       		.byte	0xf3
 13369 50a4 01       		.uleb128 0x1
 13370 50a5 50       		.byte	0x50
 13371 50a6 00       		.byte	0
 13372 50a7 33       		.uleb128 0x33
 13373 50a8 24000000 		.4byte	.LVL204
 13374 50ac FF500000 		.4byte	0x50ff
 13375 50b0 00       		.byte	0
 13376 50b1 5F       		.uleb128 0x5f
 13377 50b2 E04B0000 		.4byte	0x4be0
 13378 50b6 00000000 		.4byte	.LFB269
 13379 50ba 30000000 		.4byte	.LFE269-.LFB269
 13380 50be 01       		.uleb128 0x1
 13381 50bf 9C       		.byte	0x9c
 13382 50c0 CE500000 		.4byte	0x50ce
 13383 50c4 33       		.uleb128 0x33
 13384 50c5 26000000 		.4byte	.LVL205
 13385 50c9 FF500000 		.4byte	0x50ff
 13386 50cd 00       		.byte	0
 13387 50ce 5F       		.uleb128 0x5f
 13388 50cf A34B0000 		.4byte	0x4ba3
 13389 50d3 00000000 		.4byte	.LFB271
 13390 50d7 2C000000 		.4byte	.LFE271-.LFB271
 13391 50db 01       		.uleb128 0x1
 13392 50dc 9C       		.byte	0x9c
 13393 50dd F4500000 		.4byte	0x50f4
 13394 50e1 3F       		.uleb128 0x3f
 13395 50e2 B04B0000 		.4byte	0x4bb0
 13396 50e6 0C080000 		.4byte	.LLST71
 13397 50ea 33       		.uleb128 0x33
 13398 50eb 22000000 		.4byte	.LVL209
 13399 50ef FF500000 		.4byte	0x50ff
 13400 50f3 00       		.byte	0
 13401 50f4 65       		.uleb128 0x65
 13402 50f5 49080000 		.4byte	.LASF778
 13403 50f9 49080000 		.4byte	.LASF778
 13404 50fd 36       		.byte	0x36
 13405 50fe 89       		.byte	0x89
 13406 50ff 66       		.uleb128 0x66
 13407 5100 24050000 		.4byte	.LASF802
 13408 5104 24050000 		.4byte	.LASF802
 13409 5108 67       		.uleb128 0x67
 13410 5109 0E       		.uleb128 0xe
 13411 510a 9E       		.byte	0x9e
 13412 510b 0C       		.uleb128 0xc
 13413 510c 44       		.byte	0x44
 13414 510d 65       		.byte	0x65
 13415 510e 70       		.byte	0x70
 13416 510f 6C       		.byte	0x6c
 13417 5110 61       		.byte	0x61
 13418 5111 63       		.byte	0x63
ARM GAS  /var/folders/j2/t8glr22d56s93xphj_30s8g80000gn/T//cc8l81ic.s 			page 237


 13419 5112 65       		.byte	0x65
 13420 5113 6D       		.byte	0x6d
 13421 5114 65       		.byte	0x65
 13422 5115 6E       		.byte	0x6e
 13423 5116 74       		.byte	0x74
 13424 5117 00       		.byte	0
 13425 5118 65       		.uleb128 0x65
 13426 5119 F2110000 		.4byte	.LASF779
 13427 511d F2110000 		.4byte	.LASF779
 13428 5121 11       		.byte	0x11
 13429 5122 D9       		.byte	0xd9
 13430 5123 65       		.uleb128 0x65
 13431 5124 F3170000 		.4byte	.LASF780
 13432 5128 F3170000 		.4byte	.LASF780
 13433 512c 13       		.byte	0x13
 13434 512d 50       		.byte	0x50
 13435 512e 68       		.uleb128 0x68
 13436 512f F2050000 		.4byte	.LASF781
 13437 5133 F2050000 		.4byte	.LASF781
 13438 5137 03       		.byte	0x3
 13439 5138 1601     		.2byte	0x116
 13440 513a 65       		.uleb128 0x65
 13441 513b 77200000 		.4byte	.LASF782
 13442 513f 77200000 		.4byte	.LASF782
 13443 5143 13       		.byte	0x13
 13444 5144 4F       		.byte	0x4f
 13445 5145 65       		.uleb128 0x65
 13446 5146 4A030000 		.4byte	.LASF783
 13447 514a 4A030000 		.4byte	.LASF783
 13448 514e 11       		.byte	0x11
 13449 514f D8       		.byte	0xd8
 13450 5150 65       		.uleb128 0x65
 13451 5151 55200000 		.4byte	.LASF784
 13452 5155 55200000 		.4byte	.LASF784
 13453 5159 36       		.byte	0x36
 13454 515a 98       		.byte	0x98
 13455 515b 65       		.uleb128 0x65
 13456 515c D5080000 		.4byte	.LASF785
 13457 5160 D5080000 		.4byte	.LASF785
 13458 5164 37       		.byte	0x37
 13459 5165 37       		.byte	0x37
 13460 5166 67       		.uleb128 0x67
 13461 5167 0E       		.uleb128 0xe
 13462 5168 9E       		.byte	0x9e
 13463 5169 0C       		.uleb128 0xc
 13464 516a 44       		.byte	0x44
 13465 516b 65       		.byte	0x65
 13466 516c 70       		.byte	0x70
 13467 516d 61       		.byte	0x61
 13468 516e 73       		.byte	0x73
 13469 516f 73       		.byte	0x73
 13470 5170 65       		.byte	0x65
 13471 5171 6D       		.byte	0x6d
 13472 5172 65       		.byte	0x65
 13473 5173 6E       		.byte	0x6e
 13474 5174 74       		.byte	0x74
 13475 5175 00       		.byte	0
ARM GAS  /var/folders/j2/t8glr22d56s93xphj_30s8g80000gn/T//cc8l81ic.s 			page 238


 13476 5176 65       		.uleb128 0x65
 13477 5177 F80E0000 		.4byte	.LASF786
 13478 517b F80E0000 		.4byte	.LASF786
 13479 517f 36       		.byte	0x36
 13480 5180 96       		.byte	0x96
 13481 5181 67       		.uleb128 0x67
 13482 5182 0D       		.uleb128 0xd
 13483 5183 9E       		.byte	0x9e
 13484 5184 0B       		.uleb128 0xb
 13485 5185 43       		.byte	0x43
 13486 5186 6C       		.byte	0x6c
 13487 5187 69       		.byte	0x69
 13488 5188 67       		.byte	0x67
 13489 5189 6E       		.byte	0x6e
 13490 518a 6F       		.byte	0x6f
 13491 518b 74       		.byte	0x74
 13492 518c 61       		.byte	0x61
 13493 518d 6E       		.byte	0x6e
 13494 518e 74       		.byte	0x74
 13495 518f 00       		.byte	0
 13496 5190 65       		.uleb128 0x65
 13497 5191 B01D0000 		.4byte	.LASF787
 13498 5195 B01D0000 		.4byte	.LASF787
 13499 5199 35       		.byte	0x35
 13500 519a 3E       		.byte	0x3e
 13501 519b 65       		.uleb128 0x65
 13502 519c 68150000 		.4byte	.LASF788
 13503 51a0 68150000 		.4byte	.LASF788
 13504 51a4 35       		.byte	0x35
 13505 51a5 3D       		.byte	0x3d
 13506 51a6 67       		.uleb128 0x67
 13507 51a7 0C       		.uleb128 0xc
 13508 51a8 9E       		.byte	0x9e
 13509 51a9 0A       		.uleb128 0xa
 13510 51aa 4D       		.byte	0x4d
 13511 51ab 61       		.byte	0x61
 13512 51ac 6E       		.byte	0x6e
 13513 51ad 6F       		.byte	0x6f
 13514 51ae 65       		.byte	0x65
 13515 51af 75       		.byte	0x75
 13516 51b0 76       		.byte	0x76
 13517 51b1 72       		.byte	0x72
 13518 51b2 65       		.byte	0x65
 13519 51b3 00       		.byte	0
 13520 51b4 68       		.uleb128 0x68
 13521 51b5 BC200000 		.4byte	.LASF789
 13522 51b9 BC200000 		.4byte	.LASF789
 13523 51bd 2A       		.byte	0x2a
 13524 51be 2101     		.2byte	0x121
 13525 51c0 68       		.uleb128 0x68
 13526 51c1 351A0000 		.4byte	.LASF790
 13527 51c5 351A0000 		.4byte	.LASF790
 13528 51c9 2A       		.byte	0x2a
 13529 51ca 2801     		.2byte	0x128
 13530 51cc 68       		.uleb128 0x68
 13531 51cd D40E0000 		.4byte	.LASF791
 13532 51d1 D40E0000 		.4byte	.LASF791
ARM GAS  /var/folders/j2/t8glr22d56s93xphj_30s8g80000gn/T//cc8l81ic.s 			page 239


 13533 51d5 2A       		.byte	0x2a
 13534 51d6 2301     		.2byte	0x123
 13535 51d8 68       		.uleb128 0x68
 13536 51d9 F7160000 		.4byte	.LASF792
 13537 51dd F7160000 		.4byte	.LASF792
 13538 51e1 2A       		.byte	0x2a
 13539 51e2 2701     		.2byte	0x127
 13540 51e4 68       		.uleb128 0x68
 13541 51e5 C61E0000 		.4byte	.LASF793
 13542 51e9 C61E0000 		.4byte	.LASF793
 13543 51ed 2A       		.byte	0x2a
 13544 51ee 2401     		.2byte	0x124
 13545 51f0 68       		.uleb128 0x68
 13546 51f1 A5160000 		.4byte	.LASF794
 13547 51f5 A5160000 		.4byte	.LASF794
 13548 51f9 2A       		.byte	0x2a
 13549 51fa 2A01     		.2byte	0x12a
 13550 51fc 00       		.byte	0
 13551              		.section	.debug_abbrev,"",%progbits
 13552              	.Ldebug_abbrev0:
 13553 0000 01       		.uleb128 0x1
 13554 0001 11       		.uleb128 0x11
 13555 0002 01       		.byte	0x1
 13556 0003 25       		.uleb128 0x25
 13557 0004 0E       		.uleb128 0xe
 13558 0005 13       		.uleb128 0x13
 13559 0006 0B       		.uleb128 0xb
 13560 0007 03       		.uleb128 0x3
 13561 0008 0E       		.uleb128 0xe
 13562 0009 1B       		.uleb128 0x1b
 13563 000a 0E       		.uleb128 0xe
 13564 000b 55       		.uleb128 0x55
 13565 000c 17       		.uleb128 0x17
 13566 000d 11       		.uleb128 0x11
 13567 000e 01       		.uleb128 0x1
 13568 000f 10       		.uleb128 0x10
 13569 0010 17       		.uleb128 0x17
 13570 0011 00       		.byte	0
 13571 0012 00       		.byte	0
 13572 0013 02       		.uleb128 0x2
 13573 0014 24       		.uleb128 0x24
 13574 0015 00       		.byte	0
 13575 0016 0B       		.uleb128 0xb
 13576 0017 0B       		.uleb128 0xb
 13577 0018 3E       		.uleb128 0x3e
 13578 0019 0B       		.uleb128 0xb
 13579 001a 03       		.uleb128 0x3
 13580 001b 08       		.uleb128 0x8
 13581 001c 00       		.byte	0
 13582 001d 00       		.byte	0
 13583 001e 03       		.uleb128 0x3
 13584 001f 16       		.uleb128 0x16
 13585 0020 00       		.byte	0
 13586 0021 03       		.uleb128 0x3
 13587 0022 0E       		.uleb128 0xe
 13588 0023 3A       		.uleb128 0x3a
 13589 0024 0B       		.uleb128 0xb
ARM GAS  /var/folders/j2/t8glr22d56s93xphj_30s8g80000gn/T//cc8l81ic.s 			page 240


 13590 0025 3B       		.uleb128 0x3b
 13591 0026 0B       		.uleb128 0xb
 13592 0027 49       		.uleb128 0x49
 13593 0028 13       		.uleb128 0x13
 13594 0029 00       		.byte	0
 13595 002a 00       		.byte	0
 13596 002b 04       		.uleb128 0x4
 13597 002c 24       		.uleb128 0x24
 13598 002d 00       		.byte	0
 13599 002e 0B       		.uleb128 0xb
 13600 002f 0B       		.uleb128 0xb
 13601 0030 3E       		.uleb128 0x3e
 13602 0031 0B       		.uleb128 0xb
 13603 0032 03       		.uleb128 0x3
 13604 0033 0E       		.uleb128 0xe
 13605 0034 00       		.byte	0
 13606 0035 00       		.byte	0
 13607 0036 05       		.uleb128 0x5
 13608 0037 26       		.uleb128 0x26
 13609 0038 00       		.byte	0
 13610 0039 49       		.uleb128 0x49
 13611 003a 13       		.uleb128 0x13
 13612 003b 00       		.byte	0
 13613 003c 00       		.byte	0
 13614 003d 06       		.uleb128 0x6
 13615 003e 35       		.uleb128 0x35
 13616 003f 00       		.byte	0
 13617 0040 49       		.uleb128 0x49
 13618 0041 13       		.uleb128 0x13
 13619 0042 00       		.byte	0
 13620 0043 00       		.byte	0
 13621 0044 07       		.uleb128 0x7
 13622 0045 13       		.uleb128 0x13
 13623 0046 01       		.byte	0x1
 13624 0047 03       		.uleb128 0x3
 13625 0048 0E       		.uleb128 0xe
 13626 0049 0B       		.uleb128 0xb
 13627 004a 0B       		.uleb128 0xb
 13628 004b 3A       		.uleb128 0x3a
 13629 004c 0B       		.uleb128 0xb
 13630 004d 3B       		.uleb128 0x3b
 13631 004e 0B       		.uleb128 0xb
 13632 004f 01       		.uleb128 0x1
 13633 0050 13       		.uleb128 0x13
 13634 0051 00       		.byte	0
 13635 0052 00       		.byte	0
 13636 0053 08       		.uleb128 0x8
 13637 0054 0D       		.uleb128 0xd
 13638 0055 00       		.byte	0
 13639 0056 03       		.uleb128 0x3
 13640 0057 0E       		.uleb128 0xe
 13641 0058 3A       		.uleb128 0x3a
 13642 0059 0B       		.uleb128 0xb
 13643 005a 3B       		.uleb128 0x3b
 13644 005b 0B       		.uleb128 0xb
 13645 005c 49       		.uleb128 0x49
 13646 005d 13       		.uleb128 0x13
ARM GAS  /var/folders/j2/t8glr22d56s93xphj_30s8g80000gn/T//cc8l81ic.s 			page 241


 13647 005e 38       		.uleb128 0x38
 13648 005f 0B       		.uleb128 0xb
 13649 0060 00       		.byte	0
 13650 0061 00       		.byte	0
 13651 0062 09       		.uleb128 0x9
 13652 0063 0D       		.uleb128 0xd
 13653 0064 00       		.byte	0
 13654 0065 03       		.uleb128 0x3
 13655 0066 08       		.uleb128 0x8
 13656 0067 3A       		.uleb128 0x3a
 13657 0068 0B       		.uleb128 0xb
 13658 0069 3B       		.uleb128 0x3b
 13659 006a 05       		.uleb128 0x5
 13660 006b 49       		.uleb128 0x49
 13661 006c 13       		.uleb128 0x13
 13662 006d 38       		.uleb128 0x38
 13663 006e 0B       		.uleb128 0xb
 13664 006f 00       		.byte	0
 13665 0070 00       		.byte	0
 13666 0071 0A       		.uleb128 0xa
 13667 0072 0D       		.uleb128 0xd
 13668 0073 00       		.byte	0
 13669 0074 03       		.uleb128 0x3
 13670 0075 0E       		.uleb128 0xe
 13671 0076 3A       		.uleb128 0x3a
 13672 0077 0B       		.uleb128 0xb
 13673 0078 3B       		.uleb128 0x3b
 13674 0079 05       		.uleb128 0x5
 13675 007a 49       		.uleb128 0x49
 13676 007b 13       		.uleb128 0x13
 13677 007c 38       		.uleb128 0x38
 13678 007d 0B       		.uleb128 0xb
 13679 007e 00       		.byte	0
 13680 007f 00       		.byte	0
 13681 0080 0B       		.uleb128 0xb
 13682 0081 0F       		.uleb128 0xf
 13683 0082 00       		.byte	0
 13684 0083 0B       		.uleb128 0xb
 13685 0084 0B       		.uleb128 0xb
 13686 0085 49       		.uleb128 0x49
 13687 0086 13       		.uleb128 0x13
 13688 0087 00       		.byte	0
 13689 0088 00       		.byte	0
 13690 0089 0C       		.uleb128 0xc
 13691 008a 13       		.uleb128 0x13
 13692 008b 01       		.byte	0x1
 13693 008c 03       		.uleb128 0x3
 13694 008d 0E       		.uleb128 0xe
 13695 008e 0B       		.uleb128 0xb
 13696 008f 0B       		.uleb128 0xb
 13697 0090 3A       		.uleb128 0x3a
 13698 0091 0B       		.uleb128 0xb
 13699 0092 3B       		.uleb128 0x3b
 13700 0093 05       		.uleb128 0x5
 13701 0094 01       		.uleb128 0x1
 13702 0095 13       		.uleb128 0x13
 13703 0096 00       		.byte	0
ARM GAS  /var/folders/j2/t8glr22d56s93xphj_30s8g80000gn/T//cc8l81ic.s 			page 242


 13704 0097 00       		.byte	0
 13705 0098 0D       		.uleb128 0xd
 13706 0099 15       		.uleb128 0x15
 13707 009a 01       		.byte	0x1
 13708 009b 27       		.uleb128 0x27
 13709 009c 19       		.uleb128 0x19
 13710 009d 01       		.uleb128 0x1
 13711 009e 13       		.uleb128 0x13
 13712 009f 00       		.byte	0
 13713 00a0 00       		.byte	0
 13714 00a1 0E       		.uleb128 0xe
 13715 00a2 05       		.uleb128 0x5
 13716 00a3 00       		.byte	0
 13717 00a4 49       		.uleb128 0x49
 13718 00a5 13       		.uleb128 0x13
 13719 00a6 00       		.byte	0
 13720 00a7 00       		.byte	0
 13721 00a8 0F       		.uleb128 0xf
 13722 00a9 0F       		.uleb128 0xf
 13723 00aa 00       		.byte	0
 13724 00ab 0B       		.uleb128 0xb
 13725 00ac 0B       		.uleb128 0xb
 13726 00ad 00       		.byte	0
 13727 00ae 00       		.byte	0
 13728 00af 10       		.uleb128 0x10
 13729 00b0 13       		.uleb128 0x13
 13730 00b1 01       		.byte	0x1
 13731 00b2 03       		.uleb128 0x3
 13732 00b3 0E       		.uleb128 0xe
 13733 00b4 0B       		.uleb128 0xb
 13734 00b5 05       		.uleb128 0x5
 13735 00b6 3A       		.uleb128 0x3a
 13736 00b7 0B       		.uleb128 0xb
 13737 00b8 3B       		.uleb128 0x3b
 13738 00b9 05       		.uleb128 0x5
 13739 00ba 01       		.uleb128 0x1
 13740 00bb 13       		.uleb128 0x13
 13741 00bc 00       		.byte	0
 13742 00bd 00       		.byte	0
 13743 00be 11       		.uleb128 0x11
 13744 00bf 0D       		.uleb128 0xd
 13745 00c0 00       		.byte	0
 13746 00c1 03       		.uleb128 0x3
 13747 00c2 0E       		.uleb128 0xe
 13748 00c3 3A       		.uleb128 0x3a
 13749 00c4 0B       		.uleb128 0xb
 13750 00c5 3B       		.uleb128 0x3b
 13751 00c6 05       		.uleb128 0x5
 13752 00c7 49       		.uleb128 0x49
 13753 00c8 13       		.uleb128 0x13
 13754 00c9 38       		.uleb128 0x38
 13755 00ca 05       		.uleb128 0x5
 13756 00cb 00       		.byte	0
 13757 00cc 00       		.byte	0
 13758 00cd 12       		.uleb128 0x12
 13759 00ce 0D       		.uleb128 0xd
 13760 00cf 00       		.byte	0
ARM GAS  /var/folders/j2/t8glr22d56s93xphj_30s8g80000gn/T//cc8l81ic.s 			page 243


 13761 00d0 03       		.uleb128 0x3
 13762 00d1 08       		.uleb128 0x8
 13763 00d2 3A       		.uleb128 0x3a
 13764 00d3 0B       		.uleb128 0xb
 13765 00d4 3B       		.uleb128 0x3b
 13766 00d5 05       		.uleb128 0x5
 13767 00d6 49       		.uleb128 0x49
 13768 00d7 13       		.uleb128 0x13
 13769 00d8 38       		.uleb128 0x38
 13770 00d9 05       		.uleb128 0x5
 13771 00da 00       		.byte	0
 13772 00db 00       		.byte	0
 13773 00dc 13       		.uleb128 0x13
 13774 00dd 01       		.uleb128 0x1
 13775 00de 01       		.byte	0x1
 13776 00df 49       		.uleb128 0x49
 13777 00e0 13       		.uleb128 0x13
 13778 00e1 01       		.uleb128 0x1
 13779 00e2 13       		.uleb128 0x13
 13780 00e3 00       		.byte	0
 13781 00e4 00       		.byte	0
 13782 00e5 14       		.uleb128 0x14
 13783 00e6 21       		.uleb128 0x21
 13784 00e7 00       		.byte	0
 13785 00e8 49       		.uleb128 0x49
 13786 00e9 13       		.uleb128 0x13
 13787 00ea 2F       		.uleb128 0x2f
 13788 00eb 0B       		.uleb128 0xb
 13789 00ec 00       		.byte	0
 13790 00ed 00       		.byte	0
 13791 00ee 15       		.uleb128 0x15
 13792 00ef 34       		.uleb128 0x34
 13793 00f0 00       		.byte	0
 13794 00f1 03       		.uleb128 0x3
 13795 00f2 0E       		.uleb128 0xe
 13796 00f3 3A       		.uleb128 0x3a
 13797 00f4 0B       		.uleb128 0xb
 13798 00f5 3B       		.uleb128 0x3b
 13799 00f6 05       		.uleb128 0x5
 13800 00f7 49       		.uleb128 0x49
 13801 00f8 13       		.uleb128 0x13
 13802 00f9 3F       		.uleb128 0x3f
 13803 00fa 19       		.uleb128 0x19
 13804 00fb 3C       		.uleb128 0x3c
 13805 00fc 19       		.uleb128 0x19
 13806 00fd 00       		.byte	0
 13807 00fe 00       		.byte	0
 13808 00ff 16       		.uleb128 0x16
 13809 0100 34       		.uleb128 0x34
 13810 0101 00       		.byte	0
 13811 0102 03       		.uleb128 0x3
 13812 0103 0E       		.uleb128 0xe
 13813 0104 3A       		.uleb128 0x3a
 13814 0105 0B       		.uleb128 0xb
 13815 0106 3B       		.uleb128 0x3b
 13816 0107 0B       		.uleb128 0xb
 13817 0108 49       		.uleb128 0x49
ARM GAS  /var/folders/j2/t8glr22d56s93xphj_30s8g80000gn/T//cc8l81ic.s 			page 244


 13818 0109 13       		.uleb128 0x13
 13819 010a 3F       		.uleb128 0x3f
 13820 010b 19       		.uleb128 0x19
 13821 010c 3C       		.uleb128 0x3c
 13822 010d 19       		.uleb128 0x19
 13823 010e 00       		.byte	0
 13824 010f 00       		.byte	0
 13825 0110 17       		.uleb128 0x17
 13826 0111 13       		.uleb128 0x13
 13827 0112 01       		.byte	0x1
 13828 0113 0B       		.uleb128 0xb
 13829 0114 0B       		.uleb128 0xb
 13830 0115 3A       		.uleb128 0x3a
 13831 0116 0B       		.uleb128 0xb
 13832 0117 3B       		.uleb128 0x3b
 13833 0118 0B       		.uleb128 0xb
 13834 0119 01       		.uleb128 0x1
 13835 011a 13       		.uleb128 0x13
 13836 011b 00       		.byte	0
 13837 011c 00       		.byte	0
 13838 011d 18       		.uleb128 0x18
 13839 011e 0D       		.uleb128 0xd
 13840 011f 00       		.byte	0
 13841 0120 03       		.uleb128 0x3
 13842 0121 08       		.uleb128 0x8
 13843 0122 3A       		.uleb128 0x3a
 13844 0123 0B       		.uleb128 0xb
 13845 0124 3B       		.uleb128 0x3b
 13846 0125 0B       		.uleb128 0xb
 13847 0126 49       		.uleb128 0x49
 13848 0127 13       		.uleb128 0x13
 13849 0128 38       		.uleb128 0x38
 13850 0129 0B       		.uleb128 0xb
 13851 012a 00       		.byte	0
 13852 012b 00       		.byte	0
 13853 012c 19       		.uleb128 0x19
 13854 012d 13       		.uleb128 0x13
 13855 012e 01       		.byte	0x1
 13856 012f 0B       		.uleb128 0xb
 13857 0130 0B       		.uleb128 0xb
 13858 0131 3A       		.uleb128 0x3a
 13859 0132 0B       		.uleb128 0xb
 13860 0133 3B       		.uleb128 0x3b
 13861 0134 05       		.uleb128 0x5
 13862 0135 01       		.uleb128 0x1
 13863 0136 13       		.uleb128 0x13
 13864 0137 00       		.byte	0
 13865 0138 00       		.byte	0
 13866 0139 1A       		.uleb128 0x1a
 13867 013a 16       		.uleb128 0x16
 13868 013b 00       		.byte	0
 13869 013c 03       		.uleb128 0x3
 13870 013d 0E       		.uleb128 0xe
 13871 013e 3A       		.uleb128 0x3a
 13872 013f 0B       		.uleb128 0xb
 13873 0140 3B       		.uleb128 0x3b
 13874 0141 05       		.uleb128 0x5
ARM GAS  /var/folders/j2/t8glr22d56s93xphj_30s8g80000gn/T//cc8l81ic.s 			page 245


 13875 0142 49       		.uleb128 0x49
 13876 0143 13       		.uleb128 0x13
 13877 0144 00       		.byte	0
 13878 0145 00       		.byte	0
 13879 0146 1B       		.uleb128 0x1b
 13880 0147 13       		.uleb128 0x13
 13881 0148 01       		.byte	0x1
 13882 0149 0B       		.uleb128 0xb
 13883 014a 05       		.uleb128 0x5
 13884 014b 3A       		.uleb128 0x3a
 13885 014c 0B       		.uleb128 0xb
 13886 014d 3B       		.uleb128 0x3b
 13887 014e 05       		.uleb128 0x5
 13888 014f 01       		.uleb128 0x1
 13889 0150 13       		.uleb128 0x13
 13890 0151 00       		.byte	0
 13891 0152 00       		.byte	0
 13892 0153 1C       		.uleb128 0x1c
 13893 0154 13       		.uleb128 0x13
 13894 0155 01       		.byte	0x1
 13895 0156 0B       		.uleb128 0xb
 13896 0157 05       		.uleb128 0x5
 13897 0158 3A       		.uleb128 0x3a
 13898 0159 0B       		.uleb128 0xb
 13899 015a 3B       		.uleb128 0x3b
 13900 015b 0B       		.uleb128 0xb
 13901 015c 01       		.uleb128 0x1
 13902 015d 13       		.uleb128 0x13
 13903 015e 00       		.byte	0
 13904 015f 00       		.byte	0
 13905 0160 1D       		.uleb128 0x1d
 13906 0161 17       		.uleb128 0x17
 13907 0162 01       		.byte	0x1
 13908 0163 0B       		.uleb128 0xb
 13909 0164 0B       		.uleb128 0xb
 13910 0165 3A       		.uleb128 0x3a
 13911 0166 0B       		.uleb128 0xb
 13912 0167 3B       		.uleb128 0x3b
 13913 0168 0B       		.uleb128 0xb
 13914 0169 01       		.uleb128 0x1
 13915 016a 13       		.uleb128 0x13
 13916 016b 00       		.byte	0
 13917 016c 00       		.byte	0
 13918 016d 1E       		.uleb128 0x1e
 13919 016e 0D       		.uleb128 0xd
 13920 016f 00       		.byte	0
 13921 0170 03       		.uleb128 0x3
 13922 0171 0E       		.uleb128 0xe
 13923 0172 3A       		.uleb128 0x3a
 13924 0173 0B       		.uleb128 0xb
 13925 0174 3B       		.uleb128 0x3b
 13926 0175 05       		.uleb128 0x5
 13927 0176 49       		.uleb128 0x49
 13928 0177 13       		.uleb128 0x13
 13929 0178 00       		.byte	0
 13930 0179 00       		.byte	0
 13931 017a 1F       		.uleb128 0x1f
ARM GAS  /var/folders/j2/t8glr22d56s93xphj_30s8g80000gn/T//cc8l81ic.s 			page 246


 13932 017b 34       		.uleb128 0x34
 13933 017c 00       		.byte	0
 13934 017d 03       		.uleb128 0x3
 13935 017e 08       		.uleb128 0x8
 13936 017f 3A       		.uleb128 0x3a
 13937 0180 0B       		.uleb128 0xb
 13938 0181 3B       		.uleb128 0x3b
 13939 0182 05       		.uleb128 0x5
 13940 0183 49       		.uleb128 0x49
 13941 0184 13       		.uleb128 0x13
 13942 0185 3F       		.uleb128 0x3f
 13943 0186 19       		.uleb128 0x19
 13944 0187 3C       		.uleb128 0x3c
 13945 0188 19       		.uleb128 0x19
 13946 0189 00       		.byte	0
 13947 018a 00       		.byte	0
 13948 018b 20       		.uleb128 0x20
 13949 018c 15       		.uleb128 0x15
 13950 018d 01       		.byte	0x1
 13951 018e 27       		.uleb128 0x27
 13952 018f 19       		.uleb128 0x19
 13953 0190 49       		.uleb128 0x49
 13954 0191 13       		.uleb128 0x13
 13955 0192 01       		.uleb128 0x1
 13956 0193 13       		.uleb128 0x13
 13957 0194 00       		.byte	0
 13958 0195 00       		.byte	0
 13959 0196 21       		.uleb128 0x21
 13960 0197 04       		.uleb128 0x4
 13961 0198 01       		.byte	0x1
 13962 0199 3E       		.uleb128 0x3e
 13963 019a 0B       		.uleb128 0xb
 13964 019b 0B       		.uleb128 0xb
 13965 019c 0B       		.uleb128 0xb
 13966 019d 49       		.uleb128 0x49
 13967 019e 13       		.uleb128 0x13
 13968 019f 3A       		.uleb128 0x3a
 13969 01a0 0B       		.uleb128 0xb
 13970 01a1 3B       		.uleb128 0x3b
 13971 01a2 0B       		.uleb128 0xb
 13972 01a3 01       		.uleb128 0x1
 13973 01a4 13       		.uleb128 0x13
 13974 01a5 00       		.byte	0
 13975 01a6 00       		.byte	0
 13976 01a7 22       		.uleb128 0x22
 13977 01a8 28       		.uleb128 0x28
 13978 01a9 00       		.byte	0
 13979 01aa 03       		.uleb128 0x3
 13980 01ab 0E       		.uleb128 0xe
 13981 01ac 1C       		.uleb128 0x1c
 13982 01ad 0B       		.uleb128 0xb
 13983 01ae 00       		.byte	0
 13984 01af 00       		.byte	0
 13985 01b0 23       		.uleb128 0x23
 13986 01b1 0D       		.uleb128 0xd
 13987 01b2 00       		.byte	0
 13988 01b3 03       		.uleb128 0x3
ARM GAS  /var/folders/j2/t8glr22d56s93xphj_30s8g80000gn/T//cc8l81ic.s 			page 247


 13989 01b4 08       		.uleb128 0x8
 13990 01b5 3A       		.uleb128 0x3a
 13991 01b6 0B       		.uleb128 0xb
 13992 01b7 3B       		.uleb128 0x3b
 13993 01b8 0B       		.uleb128 0xb
 13994 01b9 49       		.uleb128 0x49
 13995 01ba 13       		.uleb128 0x13
 13996 01bb 00       		.byte	0
 13997 01bc 00       		.byte	0
 13998 01bd 24       		.uleb128 0x24
 13999 01be 04       		.uleb128 0x4
 14000 01bf 01       		.byte	0x1
 14001 01c0 3E       		.uleb128 0x3e
 14002 01c1 0B       		.uleb128 0xb
 14003 01c2 0B       		.uleb128 0xb
 14004 01c3 0B       		.uleb128 0xb
 14005 01c4 49       		.uleb128 0x49
 14006 01c5 13       		.uleb128 0x13
 14007 01c6 3A       		.uleb128 0x3a
 14008 01c7 0B       		.uleb128 0xb
 14009 01c8 3B       		.uleb128 0x3b
 14010 01c9 05       		.uleb128 0x5
 14011 01ca 01       		.uleb128 0x1
 14012 01cb 13       		.uleb128 0x13
 14013 01cc 00       		.byte	0
 14014 01cd 00       		.byte	0
 14015 01ce 25       		.uleb128 0x25
 14016 01cf 26       		.uleb128 0x26
 14017 01d0 00       		.byte	0
 14018 01d1 00       		.byte	0
 14019 01d2 00       		.byte	0
 14020 01d3 26       		.uleb128 0x26
 14021 01d4 13       		.uleb128 0x13
 14022 01d5 01       		.byte	0x1
 14023 01d6 0B       		.uleb128 0xb
 14024 01d7 06       		.uleb128 0x6
 14025 01d8 3A       		.uleb128 0x3a
 14026 01d9 0B       		.uleb128 0xb
 14027 01da 3B       		.uleb128 0x3b
 14028 01db 0B       		.uleb128 0xb
 14029 01dc 01       		.uleb128 0x1
 14030 01dd 13       		.uleb128 0x13
 14031 01de 00       		.byte	0
 14032 01df 00       		.byte	0
 14033 01e0 27       		.uleb128 0x27
 14034 01e1 0D       		.uleb128 0xd
 14035 01e2 00       		.byte	0
 14036 01e3 03       		.uleb128 0x3
 14037 01e4 0E       		.uleb128 0xe
 14038 01e5 3A       		.uleb128 0x3a
 14039 01e6 0B       		.uleb128 0xb
 14040 01e7 3B       		.uleb128 0x3b
 14041 01e8 0B       		.uleb128 0xb
 14042 01e9 49       		.uleb128 0x49
 14043 01ea 13       		.uleb128 0x13
 14044 01eb 38       		.uleb128 0x38
 14045 01ec 05       		.uleb128 0x5
ARM GAS  /var/folders/j2/t8glr22d56s93xphj_30s8g80000gn/T//cc8l81ic.s 			page 248


 14046 01ed 00       		.byte	0
 14047 01ee 00       		.byte	0
 14048 01ef 28       		.uleb128 0x28
 14049 01f0 0D       		.uleb128 0xd
 14050 01f1 00       		.byte	0
 14051 01f2 03       		.uleb128 0x3
 14052 01f3 08       		.uleb128 0x8
 14053 01f4 3A       		.uleb128 0x3a
 14054 01f5 0B       		.uleb128 0xb
 14055 01f6 3B       		.uleb128 0x3b
 14056 01f7 0B       		.uleb128 0xb
 14057 01f8 49       		.uleb128 0x49
 14058 01f9 13       		.uleb128 0x13
 14059 01fa 38       		.uleb128 0x38
 14060 01fb 05       		.uleb128 0x5
 14061 01fc 00       		.byte	0
 14062 01fd 00       		.byte	0
 14063 01fe 29       		.uleb128 0x29
 14064 01ff 21       		.uleb128 0x21
 14065 0200 00       		.byte	0
 14066 0201 49       		.uleb128 0x49
 14067 0202 13       		.uleb128 0x13
 14068 0203 2F       		.uleb128 0x2f
 14069 0204 05       		.uleb128 0x5
 14070 0205 00       		.byte	0
 14071 0206 00       		.byte	0
 14072 0207 2A       		.uleb128 0x2a
 14073 0208 0D       		.uleb128 0xd
 14074 0209 00       		.byte	0
 14075 020a 03       		.uleb128 0x3
 14076 020b 0E       		.uleb128 0xe
 14077 020c 3A       		.uleb128 0x3a
 14078 020d 0B       		.uleb128 0xb
 14079 020e 3B       		.uleb128 0x3b
 14080 020f 0B       		.uleb128 0xb
 14081 0210 49       		.uleb128 0x49
 14082 0211 13       		.uleb128 0x13
 14083 0212 00       		.byte	0
 14084 0213 00       		.byte	0
 14085 0214 2B       		.uleb128 0x2b
 14086 0215 17       		.uleb128 0x17
 14087 0216 01       		.byte	0x1
 14088 0217 0B       		.uleb128 0xb
 14089 0218 0B       		.uleb128 0xb
 14090 0219 3A       		.uleb128 0x3a
 14091 021a 0B       		.uleb128 0xb
 14092 021b 3B       		.uleb128 0x3b
 14093 021c 05       		.uleb128 0x5
 14094 021d 01       		.uleb128 0x1
 14095 021e 13       		.uleb128 0x13
 14096 021f 00       		.byte	0
 14097 0220 00       		.byte	0
 14098 0221 2C       		.uleb128 0x2c
 14099 0222 34       		.uleb128 0x34
 14100 0223 00       		.byte	0
 14101 0224 03       		.uleb128 0x3
 14102 0225 0E       		.uleb128 0xe
ARM GAS  /var/folders/j2/t8glr22d56s93xphj_30s8g80000gn/T//cc8l81ic.s 			page 249


 14103 0226 3A       		.uleb128 0x3a
 14104 0227 0B       		.uleb128 0xb
 14105 0228 3B       		.uleb128 0x3b
 14106 0229 0B       		.uleb128 0xb
 14107 022a 49       		.uleb128 0x49
 14108 022b 13       		.uleb128 0x13
 14109 022c 02       		.uleb128 0x2
 14110 022d 18       		.uleb128 0x18
 14111 022e 00       		.byte	0
 14112 022f 00       		.byte	0
 14113 0230 2D       		.uleb128 0x2d
 14114 0231 15       		.uleb128 0x15
 14115 0232 00       		.byte	0
 14116 0233 27       		.uleb128 0x27
 14117 0234 19       		.uleb128 0x19
 14118 0235 00       		.byte	0
 14119 0236 00       		.byte	0
 14120 0237 2E       		.uleb128 0x2e
 14121 0238 34       		.uleb128 0x34
 14122 0239 00       		.byte	0
 14123 023a 03       		.uleb128 0x3
 14124 023b 0E       		.uleb128 0xe
 14125 023c 3A       		.uleb128 0x3a
 14126 023d 0B       		.uleb128 0xb
 14127 023e 3B       		.uleb128 0x3b
 14128 023f 0B       		.uleb128 0xb
 14129 0240 49       		.uleb128 0x49
 14130 0241 13       		.uleb128 0x13
 14131 0242 3F       		.uleb128 0x3f
 14132 0243 19       		.uleb128 0x19
 14133 0244 02       		.uleb128 0x2
 14134 0245 18       		.uleb128 0x18
 14135 0246 00       		.byte	0
 14136 0247 00       		.byte	0
 14137 0248 2F       		.uleb128 0x2f
 14138 0249 34       		.uleb128 0x34
 14139 024a 00       		.byte	0
 14140 024b 03       		.uleb128 0x3
 14141 024c 0E       		.uleb128 0xe
 14142 024d 3A       		.uleb128 0x3a
 14143 024e 0B       		.uleb128 0xb
 14144 024f 3B       		.uleb128 0x3b
 14145 0250 05       		.uleb128 0x5
 14146 0251 49       		.uleb128 0x49
 14147 0252 13       		.uleb128 0x13
 14148 0253 02       		.uleb128 0x2
 14149 0254 18       		.uleb128 0x18
 14150 0255 00       		.byte	0
 14151 0256 00       		.byte	0
 14152 0257 30       		.uleb128 0x30
 14153 0258 2E       		.uleb128 0x2e
 14154 0259 01       		.byte	0x1
 14155 025a 3F       		.uleb128 0x3f
 14156 025b 19       		.uleb128 0x19
 14157 025c 03       		.uleb128 0x3
 14158 025d 0E       		.uleb128 0xe
 14159 025e 3A       		.uleb128 0x3a
ARM GAS  /var/folders/j2/t8glr22d56s93xphj_30s8g80000gn/T//cc8l81ic.s 			page 250


 14160 025f 0B       		.uleb128 0xb
 14161 0260 3B       		.uleb128 0x3b
 14162 0261 05       		.uleb128 0x5
 14163 0262 27       		.uleb128 0x27
 14164 0263 19       		.uleb128 0x19
 14165 0264 11       		.uleb128 0x11
 14166 0265 01       		.uleb128 0x1
 14167 0266 12       		.uleb128 0x12
 14168 0267 06       		.uleb128 0x6
 14169 0268 40       		.uleb128 0x40
 14170 0269 18       		.uleb128 0x18
 14171 026a 9742     		.uleb128 0x2117
 14172 026c 19       		.uleb128 0x19
 14173 026d 01       		.uleb128 0x1
 14174 026e 13       		.uleb128 0x13
 14175 026f 00       		.byte	0
 14176 0270 00       		.byte	0
 14177 0271 31       		.uleb128 0x31
 14178 0272 898201   		.uleb128 0x4109
 14179 0275 01       		.byte	0x1
 14180 0276 11       		.uleb128 0x11
 14181 0277 01       		.uleb128 0x1
 14182 0278 31       		.uleb128 0x31
 14183 0279 13       		.uleb128 0x13
 14184 027a 01       		.uleb128 0x1
 14185 027b 13       		.uleb128 0x13
 14186 027c 00       		.byte	0
 14187 027d 00       		.byte	0
 14188 027e 32       		.uleb128 0x32
 14189 027f 8A8201   		.uleb128 0x410a
 14190 0282 00       		.byte	0
 14191 0283 02       		.uleb128 0x2
 14192 0284 18       		.uleb128 0x18
 14193 0285 9142     		.uleb128 0x2111
 14194 0287 18       		.uleb128 0x18
 14195 0288 00       		.byte	0
 14196 0289 00       		.byte	0
 14197 028a 33       		.uleb128 0x33
 14198 028b 898201   		.uleb128 0x4109
 14199 028e 00       		.byte	0
 14200 028f 11       		.uleb128 0x11
 14201 0290 01       		.uleb128 0x1
 14202 0291 31       		.uleb128 0x31
 14203 0292 13       		.uleb128 0x13
 14204 0293 00       		.byte	0
 14205 0294 00       		.byte	0
 14206 0295 34       		.uleb128 0x34
 14207 0296 2E       		.uleb128 0x2e
 14208 0297 01       		.byte	0x1
 14209 0298 03       		.uleb128 0x3
 14210 0299 0E       		.uleb128 0xe
 14211 029a 3A       		.uleb128 0x3a
 14212 029b 0B       		.uleb128 0xb
 14213 029c 3B       		.uleb128 0x3b
 14214 029d 05       		.uleb128 0x5
 14215 029e 27       		.uleb128 0x27
 14216 029f 19       		.uleb128 0x19
ARM GAS  /var/folders/j2/t8glr22d56s93xphj_30s8g80000gn/T//cc8l81ic.s 			page 251


 14217 02a0 11       		.uleb128 0x11
 14218 02a1 01       		.uleb128 0x1
 14219 02a2 12       		.uleb128 0x12
 14220 02a3 06       		.uleb128 0x6
 14221 02a4 40       		.uleb128 0x40
 14222 02a5 18       		.uleb128 0x18
 14223 02a6 9742     		.uleb128 0x2117
 14224 02a8 19       		.uleb128 0x19
 14225 02a9 01       		.uleb128 0x1
 14226 02aa 13       		.uleb128 0x13
 14227 02ab 00       		.byte	0
 14228 02ac 00       		.byte	0
 14229 02ad 35       		.uleb128 0x35
 14230 02ae 05       		.uleb128 0x5
 14231 02af 00       		.byte	0
 14232 02b0 03       		.uleb128 0x3
 14233 02b1 08       		.uleb128 0x8
 14234 02b2 3A       		.uleb128 0x3a
 14235 02b3 0B       		.uleb128 0xb
 14236 02b4 3B       		.uleb128 0x3b
 14237 02b5 05       		.uleb128 0x5
 14238 02b6 49       		.uleb128 0x49
 14239 02b7 13       		.uleb128 0x13
 14240 02b8 02       		.uleb128 0x2
 14241 02b9 17       		.uleb128 0x17
 14242 02ba 00       		.byte	0
 14243 02bb 00       		.byte	0
 14244 02bc 36       		.uleb128 0x36
 14245 02bd 34       		.uleb128 0x34
 14246 02be 00       		.byte	0
 14247 02bf 03       		.uleb128 0x3
 14248 02c0 0E       		.uleb128 0xe
 14249 02c1 49       		.uleb128 0x49
 14250 02c2 13       		.uleb128 0x13
 14251 02c3 34       		.uleb128 0x34
 14252 02c4 19       		.uleb128 0x19
 14253 02c5 02       		.uleb128 0x2
 14254 02c6 18       		.uleb128 0x18
 14255 02c7 00       		.byte	0
 14256 02c8 00       		.byte	0
 14257 02c9 37       		.uleb128 0x37
 14258 02ca 34       		.uleb128 0x34
 14259 02cb 00       		.byte	0
 14260 02cc 03       		.uleb128 0x3
 14261 02cd 0E       		.uleb128 0xe
 14262 02ce 3A       		.uleb128 0x3a
 14263 02cf 0B       		.uleb128 0xb
 14264 02d0 3B       		.uleb128 0x3b
 14265 02d1 05       		.uleb128 0x5
 14266 02d2 49       		.uleb128 0x49
 14267 02d3 13       		.uleb128 0x13
 14268 02d4 00       		.byte	0
 14269 02d5 00       		.byte	0
 14270 02d6 38       		.uleb128 0x38
 14271 02d7 1D       		.uleb128 0x1d
 14272 02d8 01       		.byte	0x1
 14273 02d9 31       		.uleb128 0x31
ARM GAS  /var/folders/j2/t8glr22d56s93xphj_30s8g80000gn/T//cc8l81ic.s 			page 252


 14274 02da 13       		.uleb128 0x13
 14275 02db 52       		.uleb128 0x52
 14276 02dc 01       		.uleb128 0x1
 14277 02dd 55       		.uleb128 0x55
 14278 02de 17       		.uleb128 0x17
 14279 02df 58       		.uleb128 0x58
 14280 02e0 0B       		.uleb128 0xb
 14281 02e1 59       		.uleb128 0x59
 14282 02e2 05       		.uleb128 0x5
 14283 02e3 01       		.uleb128 0x1
 14284 02e4 13       		.uleb128 0x13
 14285 02e5 00       		.byte	0
 14286 02e6 00       		.byte	0
 14287 02e7 39       		.uleb128 0x39
 14288 02e8 05       		.uleb128 0x5
 14289 02e9 00       		.byte	0
 14290 02ea 31       		.uleb128 0x31
 14291 02eb 13       		.uleb128 0x13
 14292 02ec 02       		.uleb128 0x2
 14293 02ed 18       		.uleb128 0x18
 14294 02ee 00       		.byte	0
 14295 02ef 00       		.byte	0
 14296 02f0 3A       		.uleb128 0x3a
 14297 02f1 0B       		.uleb128 0xb
 14298 02f2 01       		.byte	0x1
 14299 02f3 55       		.uleb128 0x55
 14300 02f4 17       		.uleb128 0x17
 14301 02f5 00       		.byte	0
 14302 02f6 00       		.byte	0
 14303 02f7 3B       		.uleb128 0x3b
 14304 02f8 34       		.uleb128 0x34
 14305 02f9 00       		.byte	0
 14306 02fa 31       		.uleb128 0x31
 14307 02fb 13       		.uleb128 0x13
 14308 02fc 00       		.byte	0
 14309 02fd 00       		.byte	0
 14310 02fe 3C       		.uleb128 0x3c
 14311 02ff 1D       		.uleb128 0x1d
 14312 0300 01       		.byte	0x1
 14313 0301 31       		.uleb128 0x31
 14314 0302 13       		.uleb128 0x13
 14315 0303 52       		.uleb128 0x52
 14316 0304 01       		.uleb128 0x1
 14317 0305 55       		.uleb128 0x55
 14318 0306 17       		.uleb128 0x17
 14319 0307 58       		.uleb128 0x58
 14320 0308 0B       		.uleb128 0xb
 14321 0309 59       		.uleb128 0x59
 14322 030a 0B       		.uleb128 0xb
 14323 030b 01       		.uleb128 0x1
 14324 030c 13       		.uleb128 0x13
 14325 030d 00       		.byte	0
 14326 030e 00       		.byte	0
 14327 030f 3D       		.uleb128 0x3d
 14328 0310 1D       		.uleb128 0x1d
 14329 0311 01       		.byte	0x1
 14330 0312 31       		.uleb128 0x31
ARM GAS  /var/folders/j2/t8glr22d56s93xphj_30s8g80000gn/T//cc8l81ic.s 			page 253


 14331 0313 13       		.uleb128 0x13
 14332 0314 11       		.uleb128 0x11
 14333 0315 01       		.uleb128 0x1
 14334 0316 12       		.uleb128 0x12
 14335 0317 06       		.uleb128 0x6
 14336 0318 58       		.uleb128 0x58
 14337 0319 0B       		.uleb128 0xb
 14338 031a 59       		.uleb128 0x59
 14339 031b 05       		.uleb128 0x5
 14340 031c 01       		.uleb128 0x1
 14341 031d 13       		.uleb128 0x13
 14342 031e 00       		.byte	0
 14343 031f 00       		.byte	0
 14344 0320 3E       		.uleb128 0x3e
 14345 0321 1D       		.uleb128 0x1d
 14346 0322 01       		.byte	0x1
 14347 0323 31       		.uleb128 0x31
 14348 0324 13       		.uleb128 0x13
 14349 0325 11       		.uleb128 0x11
 14350 0326 01       		.uleb128 0x1
 14351 0327 12       		.uleb128 0x12
 14352 0328 06       		.uleb128 0x6
 14353 0329 58       		.uleb128 0x58
 14354 032a 0B       		.uleb128 0xb
 14355 032b 59       		.uleb128 0x59
 14356 032c 05       		.uleb128 0x5
 14357 032d 00       		.byte	0
 14358 032e 00       		.byte	0
 14359 032f 3F       		.uleb128 0x3f
 14360 0330 05       		.uleb128 0x5
 14361 0331 00       		.byte	0
 14362 0332 31       		.uleb128 0x31
 14363 0333 13       		.uleb128 0x13
 14364 0334 02       		.uleb128 0x2
 14365 0335 17       		.uleb128 0x17
 14366 0336 00       		.byte	0
 14367 0337 00       		.byte	0
 14368 0338 40       		.uleb128 0x40
 14369 0339 898201   		.uleb128 0x4109
 14370 033c 01       		.byte	0x1
 14371 033d 11       		.uleb128 0x11
 14372 033e 01       		.uleb128 0x1
 14373 033f 31       		.uleb128 0x31
 14374 0340 13       		.uleb128 0x13
 14375 0341 00       		.byte	0
 14376 0342 00       		.byte	0
 14377 0343 41       		.uleb128 0x41
 14378 0344 1D       		.uleb128 0x1d
 14379 0345 01       		.byte	0x1
 14380 0346 31       		.uleb128 0x31
 14381 0347 13       		.uleb128 0x13
 14382 0348 11       		.uleb128 0x11
 14383 0349 01       		.uleb128 0x1
 14384 034a 12       		.uleb128 0x12
 14385 034b 06       		.uleb128 0x6
 14386 034c 58       		.uleb128 0x58
 14387 034d 0B       		.uleb128 0xb
ARM GAS  /var/folders/j2/t8glr22d56s93xphj_30s8g80000gn/T//cc8l81ic.s 			page 254


 14388 034e 59       		.uleb128 0x59
 14389 034f 0B       		.uleb128 0xb
 14390 0350 01       		.uleb128 0x1
 14391 0351 13       		.uleb128 0x13
 14392 0352 00       		.byte	0
 14393 0353 00       		.byte	0
 14394 0354 42       		.uleb128 0x42
 14395 0355 1D       		.uleb128 0x1d
 14396 0356 00       		.byte	0
 14397 0357 31       		.uleb128 0x31
 14398 0358 13       		.uleb128 0x13
 14399 0359 11       		.uleb128 0x11
 14400 035a 01       		.uleb128 0x1
 14401 035b 12       		.uleb128 0x12
 14402 035c 06       		.uleb128 0x6
 14403 035d 58       		.uleb128 0x58
 14404 035e 0B       		.uleb128 0xb
 14405 035f 59       		.uleb128 0x59
 14406 0360 0B       		.uleb128 0xb
 14407 0361 00       		.byte	0
 14408 0362 00       		.byte	0
 14409 0363 43       		.uleb128 0x43
 14410 0364 0B       		.uleb128 0xb
 14411 0365 01       		.byte	0x1
 14412 0366 11       		.uleb128 0x11
 14413 0367 01       		.uleb128 0x1
 14414 0368 12       		.uleb128 0x12
 14415 0369 06       		.uleb128 0x6
 14416 036a 00       		.byte	0
 14417 036b 00       		.byte	0
 14418 036c 44       		.uleb128 0x44
 14419 036d 1D       		.uleb128 0x1d
 14420 036e 01       		.byte	0x1
 14421 036f 31       		.uleb128 0x31
 14422 0370 13       		.uleb128 0x13
 14423 0371 11       		.uleb128 0x11
 14424 0372 01       		.uleb128 0x1
 14425 0373 12       		.uleb128 0x12
 14426 0374 06       		.uleb128 0x6
 14427 0375 58       		.uleb128 0x58
 14428 0376 0B       		.uleb128 0xb
 14429 0377 59       		.uleb128 0x59
 14430 0378 0B       		.uleb128 0xb
 14431 0379 00       		.byte	0
 14432 037a 00       		.byte	0
 14433 037b 45       		.uleb128 0x45
 14434 037c 1D       		.uleb128 0x1d
 14435 037d 01       		.byte	0x1
 14436 037e 31       		.uleb128 0x31
 14437 037f 13       		.uleb128 0x13
 14438 0380 52       		.uleb128 0x52
 14439 0381 01       		.uleb128 0x1
 14440 0382 55       		.uleb128 0x55
 14441 0383 17       		.uleb128 0x17
 14442 0384 58       		.uleb128 0x58
 14443 0385 0B       		.uleb128 0xb
 14444 0386 59       		.uleb128 0x59
ARM GAS  /var/folders/j2/t8glr22d56s93xphj_30s8g80000gn/T//cc8l81ic.s 			page 255


 14445 0387 05       		.uleb128 0x5
 14446 0388 00       		.byte	0
 14447 0389 00       		.byte	0
 14448 038a 46       		.uleb128 0x46
 14449 038b 05       		.uleb128 0x5
 14450 038c 00       		.byte	0
 14451 038d 31       		.uleb128 0x31
 14452 038e 13       		.uleb128 0x13
 14453 038f 1C       		.uleb128 0x1c
 14454 0390 0D       		.uleb128 0xd
 14455 0391 00       		.byte	0
 14456 0392 00       		.byte	0
 14457 0393 47       		.uleb128 0x47
 14458 0394 05       		.uleb128 0x5
 14459 0395 00       		.byte	0
 14460 0396 31       		.uleb128 0x31
 14461 0397 13       		.uleb128 0x13
 14462 0398 1C       		.uleb128 0x1c
 14463 0399 0B       		.uleb128 0xb
 14464 039a 00       		.byte	0
 14465 039b 00       		.byte	0
 14466 039c 48       		.uleb128 0x48
 14467 039d 898201   		.uleb128 0x4109
 14468 03a0 00       		.byte	0
 14469 03a1 11       		.uleb128 0x11
 14470 03a2 01       		.uleb128 0x1
 14471 03a3 9542     		.uleb128 0x2115
 14472 03a5 19       		.uleb128 0x19
 14473 03a6 31       		.uleb128 0x31
 14474 03a7 13       		.uleb128 0x13
 14475 03a8 00       		.byte	0
 14476 03a9 00       		.byte	0
 14477 03aa 49       		.uleb128 0x49
 14478 03ab 05       		.uleb128 0x5
 14479 03ac 00       		.byte	0
 14480 03ad 03       		.uleb128 0x3
 14481 03ae 0E       		.uleb128 0xe
 14482 03af 3A       		.uleb128 0x3a
 14483 03b0 0B       		.uleb128 0xb
 14484 03b1 3B       		.uleb128 0x3b
 14485 03b2 05       		.uleb128 0x5
 14486 03b3 49       		.uleb128 0x49
 14487 03b4 13       		.uleb128 0x13
 14488 03b5 02       		.uleb128 0x2
 14489 03b6 17       		.uleb128 0x17
 14490 03b7 00       		.byte	0
 14491 03b8 00       		.byte	0
 14492 03b9 4A       		.uleb128 0x4a
 14493 03ba 2E       		.uleb128 0x2e
 14494 03bb 01       		.byte	0x1
 14495 03bc 3F       		.uleb128 0x3f
 14496 03bd 19       		.uleb128 0x19
 14497 03be 03       		.uleb128 0x3
 14498 03bf 0E       		.uleb128 0xe
 14499 03c0 3A       		.uleb128 0x3a
 14500 03c1 0B       		.uleb128 0xb
 14501 03c2 3B       		.uleb128 0x3b
ARM GAS  /var/folders/j2/t8glr22d56s93xphj_30s8g80000gn/T//cc8l81ic.s 			page 256


 14502 03c3 05       		.uleb128 0x5
 14503 03c4 27       		.uleb128 0x27
 14504 03c5 19       		.uleb128 0x19
 14505 03c6 20       		.uleb128 0x20
 14506 03c7 0B       		.uleb128 0xb
 14507 03c8 01       		.uleb128 0x1
 14508 03c9 13       		.uleb128 0x13
 14509 03ca 00       		.byte	0
 14510 03cb 00       		.byte	0
 14511 03cc 4B       		.uleb128 0x4b
 14512 03cd 05       		.uleb128 0x5
 14513 03ce 00       		.byte	0
 14514 03cf 03       		.uleb128 0x3
 14515 03d0 0E       		.uleb128 0xe
 14516 03d1 3A       		.uleb128 0x3a
 14517 03d2 0B       		.uleb128 0xb
 14518 03d3 3B       		.uleb128 0x3b
 14519 03d4 05       		.uleb128 0x5
 14520 03d5 49       		.uleb128 0x49
 14521 03d6 13       		.uleb128 0x13
 14522 03d7 00       		.byte	0
 14523 03d8 00       		.byte	0
 14524 03d9 4C       		.uleb128 0x4c
 14525 03da 2E       		.uleb128 0x2e
 14526 03db 01       		.byte	0x1
 14527 03dc 3F       		.uleb128 0x3f
 14528 03dd 19       		.uleb128 0x19
 14529 03de 03       		.uleb128 0x3
 14530 03df 0E       		.uleb128 0xe
 14531 03e0 3A       		.uleb128 0x3a
 14532 03e1 0B       		.uleb128 0xb
 14533 03e2 3B       		.uleb128 0x3b
 14534 03e3 0B       		.uleb128 0xb
 14535 03e4 27       		.uleb128 0x27
 14536 03e5 19       		.uleb128 0x19
 14537 03e6 49       		.uleb128 0x49
 14538 03e7 13       		.uleb128 0x13
 14539 03e8 11       		.uleb128 0x11
 14540 03e9 01       		.uleb128 0x1
 14541 03ea 12       		.uleb128 0x12
 14542 03eb 06       		.uleb128 0x6
 14543 03ec 40       		.uleb128 0x40
 14544 03ed 18       		.uleb128 0x18
 14545 03ee 9742     		.uleb128 0x2117
 14546 03f0 19       		.uleb128 0x19
 14547 03f1 01       		.uleb128 0x1
 14548 03f2 13       		.uleb128 0x13
 14549 03f3 00       		.byte	0
 14550 03f4 00       		.byte	0
 14551 03f5 4D       		.uleb128 0x4d
 14552 03f6 2E       		.uleb128 0x2e
 14553 03f7 00       		.byte	0
 14554 03f8 3F       		.uleb128 0x3f
 14555 03f9 19       		.uleb128 0x19
 14556 03fa 03       		.uleb128 0x3
 14557 03fb 0E       		.uleb128 0xe
 14558 03fc 3A       		.uleb128 0x3a
ARM GAS  /var/folders/j2/t8glr22d56s93xphj_30s8g80000gn/T//cc8l81ic.s 			page 257


 14559 03fd 0B       		.uleb128 0xb
 14560 03fe 3B       		.uleb128 0x3b
 14561 03ff 0B       		.uleb128 0xb
 14562 0400 27       		.uleb128 0x27
 14563 0401 19       		.uleb128 0x19
 14564 0402 49       		.uleb128 0x49
 14565 0403 13       		.uleb128 0x13
 14566 0404 20       		.uleb128 0x20
 14567 0405 0B       		.uleb128 0xb
 14568 0406 00       		.byte	0
 14569 0407 00       		.byte	0
 14570 0408 4E       		.uleb128 0x4e
 14571 0409 2E       		.uleb128 0x2e
 14572 040a 01       		.byte	0x1
 14573 040b 3F       		.uleb128 0x3f
 14574 040c 19       		.uleb128 0x19
 14575 040d 03       		.uleb128 0x3
 14576 040e 0E       		.uleb128 0xe
 14577 040f 3A       		.uleb128 0x3a
 14578 0410 0B       		.uleb128 0xb
 14579 0411 3B       		.uleb128 0x3b
 14580 0412 0B       		.uleb128 0xb
 14581 0413 27       		.uleb128 0x27
 14582 0414 19       		.uleb128 0x19
 14583 0415 20       		.uleb128 0x20
 14584 0416 0B       		.uleb128 0xb
 14585 0417 01       		.uleb128 0x1
 14586 0418 13       		.uleb128 0x13
 14587 0419 00       		.byte	0
 14588 041a 00       		.byte	0
 14589 041b 4F       		.uleb128 0x4f
 14590 041c 05       		.uleb128 0x5
 14591 041d 00       		.byte	0
 14592 041e 03       		.uleb128 0x3
 14593 041f 0E       		.uleb128 0xe
 14594 0420 3A       		.uleb128 0x3a
 14595 0421 0B       		.uleb128 0xb
 14596 0422 3B       		.uleb128 0x3b
 14597 0423 0B       		.uleb128 0xb
 14598 0424 49       		.uleb128 0x49
 14599 0425 13       		.uleb128 0x13
 14600 0426 00       		.byte	0
 14601 0427 00       		.byte	0
 14602 0428 50       		.uleb128 0x50
 14603 0429 2E       		.uleb128 0x2e
 14604 042a 01       		.byte	0x1
 14605 042b 3F       		.uleb128 0x3f
 14606 042c 19       		.uleb128 0x19
 14607 042d 03       		.uleb128 0x3
 14608 042e 0E       		.uleb128 0xe
 14609 042f 3A       		.uleb128 0x3a
 14610 0430 0B       		.uleb128 0xb
 14611 0431 3B       		.uleb128 0x3b
 14612 0432 0B       		.uleb128 0xb
 14613 0433 27       		.uleb128 0x27
 14614 0434 19       		.uleb128 0x19
 14615 0435 11       		.uleb128 0x11
ARM GAS  /var/folders/j2/t8glr22d56s93xphj_30s8g80000gn/T//cc8l81ic.s 			page 258


 14616 0436 01       		.uleb128 0x1
 14617 0437 12       		.uleb128 0x12
 14618 0438 06       		.uleb128 0x6
 14619 0439 40       		.uleb128 0x40
 14620 043a 18       		.uleb128 0x18
 14621 043b 9642     		.uleb128 0x2116
 14622 043d 19       		.uleb128 0x19
 14623 043e 01       		.uleb128 0x1
 14624 043f 13       		.uleb128 0x13
 14625 0440 00       		.byte	0
 14626 0441 00       		.byte	0
 14627 0442 51       		.uleb128 0x51
 14628 0443 05       		.uleb128 0x5
 14629 0444 00       		.byte	0
 14630 0445 03       		.uleb128 0x3
 14631 0446 08       		.uleb128 0x8
 14632 0447 3A       		.uleb128 0x3a
 14633 0448 0B       		.uleb128 0xb
 14634 0449 3B       		.uleb128 0x3b
 14635 044a 0B       		.uleb128 0xb
 14636 044b 49       		.uleb128 0x49
 14637 044c 13       		.uleb128 0x13
 14638 044d 02       		.uleb128 0x2
 14639 044e 17       		.uleb128 0x17
 14640 044f 00       		.byte	0
 14641 0450 00       		.byte	0
 14642 0451 52       		.uleb128 0x52
 14643 0452 05       		.uleb128 0x5
 14644 0453 00       		.byte	0
 14645 0454 03       		.uleb128 0x3
 14646 0455 0E       		.uleb128 0xe
 14647 0456 3A       		.uleb128 0x3a
 14648 0457 0B       		.uleb128 0xb
 14649 0458 3B       		.uleb128 0x3b
 14650 0459 0B       		.uleb128 0xb
 14651 045a 49       		.uleb128 0x49
 14652 045b 13       		.uleb128 0x13
 14653 045c 02       		.uleb128 0x2
 14654 045d 17       		.uleb128 0x17
 14655 045e 00       		.byte	0
 14656 045f 00       		.byte	0
 14657 0460 53       		.uleb128 0x53
 14658 0461 34       		.uleb128 0x34
 14659 0462 00       		.byte	0
 14660 0463 03       		.uleb128 0x3
 14661 0464 0E       		.uleb128 0xe
 14662 0465 3A       		.uleb128 0x3a
 14663 0466 0B       		.uleb128 0xb
 14664 0467 3B       		.uleb128 0x3b
 14665 0468 0B       		.uleb128 0xb
 14666 0469 49       		.uleb128 0x49
 14667 046a 13       		.uleb128 0x13
 14668 046b 02       		.uleb128 0x2
 14669 046c 17       		.uleb128 0x17
 14670 046d 00       		.byte	0
 14671 046e 00       		.byte	0
 14672 046f 54       		.uleb128 0x54
ARM GAS  /var/folders/j2/t8glr22d56s93xphj_30s8g80000gn/T//cc8l81ic.s 			page 259


 14673 0470 2E       		.uleb128 0x2e
 14674 0471 01       		.byte	0x1
 14675 0472 3F       		.uleb128 0x3f
 14676 0473 19       		.uleb128 0x19
 14677 0474 03       		.uleb128 0x3
 14678 0475 0E       		.uleb128 0xe
 14679 0476 3A       		.uleb128 0x3a
 14680 0477 0B       		.uleb128 0xb
 14681 0478 3B       		.uleb128 0x3b
 14682 0479 0B       		.uleb128 0xb
 14683 047a 27       		.uleb128 0x27
 14684 047b 19       		.uleb128 0x19
 14685 047c 11       		.uleb128 0x11
 14686 047d 01       		.uleb128 0x1
 14687 047e 12       		.uleb128 0x12
 14688 047f 06       		.uleb128 0x6
 14689 0480 40       		.uleb128 0x40
 14690 0481 18       		.uleb128 0x18
 14691 0482 9742     		.uleb128 0x2117
 14692 0484 19       		.uleb128 0x19
 14693 0485 01       		.uleb128 0x1
 14694 0486 13       		.uleb128 0x13
 14695 0487 00       		.byte	0
 14696 0488 00       		.byte	0
 14697 0489 55       		.uleb128 0x55
 14698 048a 898201   		.uleb128 0x4109
 14699 048d 01       		.byte	0x1
 14700 048e 11       		.uleb128 0x11
 14701 048f 01       		.uleb128 0x1
 14702 0490 9542     		.uleb128 0x2115
 14703 0492 19       		.uleb128 0x19
 14704 0493 31       		.uleb128 0x31
 14705 0494 13       		.uleb128 0x13
 14706 0495 01       		.uleb128 0x1
 14707 0496 13       		.uleb128 0x13
 14708 0497 00       		.byte	0
 14709 0498 00       		.byte	0
 14710 0499 56       		.uleb128 0x56
 14711 049a 2E       		.uleb128 0x2e
 14712 049b 01       		.byte	0x1
 14713 049c 03       		.uleb128 0x3
 14714 049d 0E       		.uleb128 0xe
 14715 049e 3A       		.uleb128 0x3a
 14716 049f 0B       		.uleb128 0xb
 14717 04a0 3B       		.uleb128 0x3b
 14718 04a1 0B       		.uleb128 0xb
 14719 04a2 27       		.uleb128 0x27
 14720 04a3 19       		.uleb128 0x19
 14721 04a4 11       		.uleb128 0x11
 14722 04a5 01       		.uleb128 0x1
 14723 04a6 12       		.uleb128 0x12
 14724 04a7 06       		.uleb128 0x6
 14725 04a8 40       		.uleb128 0x40
 14726 04a9 18       		.uleb128 0x18
 14727 04aa 9742     		.uleb128 0x2117
 14728 04ac 19       		.uleb128 0x19
 14729 04ad 01       		.uleb128 0x1
ARM GAS  /var/folders/j2/t8glr22d56s93xphj_30s8g80000gn/T//cc8l81ic.s 			page 260


 14730 04ae 13       		.uleb128 0x13
 14731 04af 00       		.byte	0
 14732 04b0 00       		.byte	0
 14733 04b1 57       		.uleb128 0x57
 14734 04b2 2E       		.uleb128 0x2e
 14735 04b3 01       		.byte	0x1
 14736 04b4 03       		.uleb128 0x3
 14737 04b5 0E       		.uleb128 0xe
 14738 04b6 3A       		.uleb128 0x3a
 14739 04b7 0B       		.uleb128 0xb
 14740 04b8 3B       		.uleb128 0x3b
 14741 04b9 0B       		.uleb128 0xb
 14742 04ba 27       		.uleb128 0x27
 14743 04bb 19       		.uleb128 0x19
 14744 04bc 20       		.uleb128 0x20
 14745 04bd 0B       		.uleb128 0xb
 14746 04be 01       		.uleb128 0x1
 14747 04bf 13       		.uleb128 0x13
 14748 04c0 00       		.byte	0
 14749 04c1 00       		.byte	0
 14750 04c2 58       		.uleb128 0x58
 14751 04c3 34       		.uleb128 0x34
 14752 04c4 00       		.byte	0
 14753 04c5 03       		.uleb128 0x3
 14754 04c6 08       		.uleb128 0x8
 14755 04c7 3A       		.uleb128 0x3a
 14756 04c8 0B       		.uleb128 0xb
 14757 04c9 3B       		.uleb128 0x3b
 14758 04ca 0B       		.uleb128 0xb
 14759 04cb 49       		.uleb128 0x49
 14760 04cc 13       		.uleb128 0x13
 14761 04cd 00       		.byte	0
 14762 04ce 00       		.byte	0
 14763 04cf 59       		.uleb128 0x59
 14764 04d0 2E       		.uleb128 0x2e
 14765 04d1 01       		.byte	0x1
 14766 04d2 03       		.uleb128 0x3
 14767 04d3 0E       		.uleb128 0xe
 14768 04d4 3A       		.uleb128 0x3a
 14769 04d5 0B       		.uleb128 0xb
 14770 04d6 3B       		.uleb128 0x3b
 14771 04d7 0B       		.uleb128 0xb
 14772 04d8 27       		.uleb128 0x27
 14773 04d9 19       		.uleb128 0x19
 14774 04da 49       		.uleb128 0x49
 14775 04db 13       		.uleb128 0x13
 14776 04dc 20       		.uleb128 0x20
 14777 04dd 0B       		.uleb128 0xb
 14778 04de 01       		.uleb128 0x1
 14779 04df 13       		.uleb128 0x13
 14780 04e0 00       		.byte	0
 14781 04e1 00       		.byte	0
 14782 04e2 5A       		.uleb128 0x5a
 14783 04e3 34       		.uleb128 0x34
 14784 04e4 00       		.byte	0
 14785 04e5 03       		.uleb128 0x3
 14786 04e6 0E       		.uleb128 0xe
ARM GAS  /var/folders/j2/t8glr22d56s93xphj_30s8g80000gn/T//cc8l81ic.s 			page 261


 14787 04e7 3A       		.uleb128 0x3a
 14788 04e8 0B       		.uleb128 0xb
 14789 04e9 3B       		.uleb128 0x3b
 14790 04ea 0B       		.uleb128 0xb
 14791 04eb 49       		.uleb128 0x49
 14792 04ec 13       		.uleb128 0x13
 14793 04ed 00       		.byte	0
 14794 04ee 00       		.byte	0
 14795 04ef 5B       		.uleb128 0x5b
 14796 04f0 2E       		.uleb128 0x2e
 14797 04f1 00       		.byte	0
 14798 04f2 03       		.uleb128 0x3
 14799 04f3 0E       		.uleb128 0xe
 14800 04f4 3A       		.uleb128 0x3a
 14801 04f5 0B       		.uleb128 0xb
 14802 04f6 3B       		.uleb128 0x3b
 14803 04f7 0B       		.uleb128 0xb
 14804 04f8 27       		.uleb128 0x27
 14805 04f9 19       		.uleb128 0x19
 14806 04fa 49       		.uleb128 0x49
 14807 04fb 13       		.uleb128 0x13
 14808 04fc 20       		.uleb128 0x20
 14809 04fd 0B       		.uleb128 0xb
 14810 04fe 00       		.byte	0
 14811 04ff 00       		.byte	0
 14812 0500 5C       		.uleb128 0x5c
 14813 0501 2E       		.uleb128 0x2e
 14814 0502 01       		.byte	0x1
 14815 0503 03       		.uleb128 0x3
 14816 0504 0E       		.uleb128 0xe
 14817 0505 3A       		.uleb128 0x3a
 14818 0506 0B       		.uleb128 0xb
 14819 0507 3B       		.uleb128 0x3b
 14820 0508 05       		.uleb128 0x5
 14821 0509 27       		.uleb128 0x27
 14822 050a 19       		.uleb128 0x19
 14823 050b 20       		.uleb128 0x20
 14824 050c 0B       		.uleb128 0xb
 14825 050d 01       		.uleb128 0x1
 14826 050e 13       		.uleb128 0x13
 14827 050f 00       		.byte	0
 14828 0510 00       		.byte	0
 14829 0511 5D       		.uleb128 0x5d
 14830 0512 34       		.uleb128 0x34
 14831 0513 00       		.byte	0
 14832 0514 03       		.uleb128 0x3
 14833 0515 0E       		.uleb128 0xe
 14834 0516 49       		.uleb128 0x49
 14835 0517 13       		.uleb128 0x13
 14836 0518 34       		.uleb128 0x34
 14837 0519 19       		.uleb128 0x19
 14838 051a 1C       		.uleb128 0x1c
 14839 051b 0E       		.uleb128 0xe
 14840 051c 00       		.byte	0
 14841 051d 00       		.byte	0
 14842 051e 5E       		.uleb128 0x5e
 14843 051f 2E       		.uleb128 0x2e
ARM GAS  /var/folders/j2/t8glr22d56s93xphj_30s8g80000gn/T//cc8l81ic.s 			page 262


 14844 0520 00       		.byte	0
 14845 0521 03       		.uleb128 0x3
 14846 0522 0E       		.uleb128 0xe
 14847 0523 3A       		.uleb128 0x3a
 14848 0524 0B       		.uleb128 0xb
 14849 0525 3B       		.uleb128 0x3b
 14850 0526 05       		.uleb128 0x5
 14851 0527 27       		.uleb128 0x27
 14852 0528 19       		.uleb128 0x19
 14853 0529 20       		.uleb128 0x20
 14854 052a 0B       		.uleb128 0xb
 14855 052b 00       		.byte	0
 14856 052c 00       		.byte	0
 14857 052d 5F       		.uleb128 0x5f
 14858 052e 2E       		.uleb128 0x2e
 14859 052f 01       		.byte	0x1
 14860 0530 31       		.uleb128 0x31
 14861 0531 13       		.uleb128 0x13
 14862 0532 11       		.uleb128 0x11
 14863 0533 01       		.uleb128 0x1
 14864 0534 12       		.uleb128 0x12
 14865 0535 06       		.uleb128 0x6
 14866 0536 40       		.uleb128 0x40
 14867 0537 18       		.uleb128 0x18
 14868 0538 9742     		.uleb128 0x2117
 14869 053a 19       		.uleb128 0x19
 14870 053b 01       		.uleb128 0x1
 14871 053c 13       		.uleb128 0x13
 14872 053d 00       		.byte	0
 14873 053e 00       		.byte	0
 14874 053f 60       		.uleb128 0x60
 14875 0540 34       		.uleb128 0x34
 14876 0541 00       		.byte	0
 14877 0542 31       		.uleb128 0x31
 14878 0543 13       		.uleb128 0x13
 14879 0544 02       		.uleb128 0x2
 14880 0545 17       		.uleb128 0x17
 14881 0546 00       		.byte	0
 14882 0547 00       		.byte	0
 14883 0548 61       		.uleb128 0x61
 14884 0549 0B       		.uleb128 0xb
 14885 054a 01       		.byte	0x1
 14886 054b 31       		.uleb128 0x31
 14887 054c 13       		.uleb128 0x13
 14888 054d 11       		.uleb128 0x11
 14889 054e 01       		.uleb128 0x1
 14890 054f 12       		.uleb128 0x12
 14891 0550 06       		.uleb128 0x6
 14892 0551 01       		.uleb128 0x1
 14893 0552 13       		.uleb128 0x13
 14894 0553 00       		.byte	0
 14895 0554 00       		.byte	0
 14896 0555 62       		.uleb128 0x62
 14897 0556 898201   		.uleb128 0x4109
 14898 0559 01       		.byte	0x1
 14899 055a 11       		.uleb128 0x11
 14900 055b 01       		.uleb128 0x1
ARM GAS  /var/folders/j2/t8glr22d56s93xphj_30s8g80000gn/T//cc8l81ic.s 			page 263


 14901 055c 00       		.byte	0
 14902 055d 00       		.byte	0
 14903 055e 63       		.uleb128 0x63
 14904 055f 898201   		.uleb128 0x4109
 14905 0562 01       		.byte	0x1
 14906 0563 11       		.uleb128 0x11
 14907 0564 01       		.uleb128 0x1
 14908 0565 01       		.uleb128 0x1
 14909 0566 13       		.uleb128 0x13
 14910 0567 00       		.byte	0
 14911 0568 00       		.byte	0
 14912 0569 64       		.uleb128 0x64
 14913 056a 898201   		.uleb128 0x4109
 14914 056d 01       		.byte	0x1
 14915 056e 11       		.uleb128 0x11
 14916 056f 01       		.uleb128 0x1
 14917 0570 9542     		.uleb128 0x2115
 14918 0572 19       		.uleb128 0x19
 14919 0573 01       		.uleb128 0x1
 14920 0574 13       		.uleb128 0x13
 14921 0575 00       		.byte	0
 14922 0576 00       		.byte	0
 14923 0577 65       		.uleb128 0x65
 14924 0578 2E       		.uleb128 0x2e
 14925 0579 00       		.byte	0
 14926 057a 3F       		.uleb128 0x3f
 14927 057b 19       		.uleb128 0x19
 14928 057c 3C       		.uleb128 0x3c
 14929 057d 19       		.uleb128 0x19
 14930 057e 6E       		.uleb128 0x6e
 14931 057f 0E       		.uleb128 0xe
 14932 0580 03       		.uleb128 0x3
 14933 0581 0E       		.uleb128 0xe
 14934 0582 3A       		.uleb128 0x3a
 14935 0583 0B       		.uleb128 0xb
 14936 0584 3B       		.uleb128 0x3b
 14937 0585 0B       		.uleb128 0xb
 14938 0586 00       		.byte	0
 14939 0587 00       		.byte	0
 14940 0588 66       		.uleb128 0x66
 14941 0589 2E       		.uleb128 0x2e
 14942 058a 00       		.byte	0
 14943 058b 3F       		.uleb128 0x3f
 14944 058c 19       		.uleb128 0x19
 14945 058d 3C       		.uleb128 0x3c
 14946 058e 19       		.uleb128 0x19
 14947 058f 6E       		.uleb128 0x6e
 14948 0590 0E       		.uleb128 0xe
 14949 0591 03       		.uleb128 0x3
 14950 0592 0E       		.uleb128 0xe
 14951 0593 00       		.byte	0
 14952 0594 00       		.byte	0
 14953 0595 67       		.uleb128 0x67
 14954 0596 36       		.uleb128 0x36
 14955 0597 00       		.byte	0
 14956 0598 02       		.uleb128 0x2
 14957 0599 18       		.uleb128 0x18
ARM GAS  /var/folders/j2/t8glr22d56s93xphj_30s8g80000gn/T//cc8l81ic.s 			page 264


 14958 059a 00       		.byte	0
 14959 059b 00       		.byte	0
 14960 059c 68       		.uleb128 0x68
 14961 059d 2E       		.uleb128 0x2e
 14962 059e 00       		.byte	0
 14963 059f 3F       		.uleb128 0x3f
 14964 05a0 19       		.uleb128 0x19
 14965 05a1 3C       		.uleb128 0x3c
 14966 05a2 19       		.uleb128 0x19
 14967 05a3 6E       		.uleb128 0x6e
 14968 05a4 0E       		.uleb128 0xe
 14969 05a5 03       		.uleb128 0x3
 14970 05a6 0E       		.uleb128 0xe
 14971 05a7 3A       		.uleb128 0x3a
 14972 05a8 0B       		.uleb128 0xb
 14973 05a9 3B       		.uleb128 0x3b
 14974 05aa 05       		.uleb128 0x5
 14975 05ab 00       		.byte	0
 14976 05ac 00       		.byte	0
 14977 05ad 00       		.byte	0
 14978              		.section	.debug_loc,"",%progbits
 14979              	.Ldebug_loc0:
 14980              	.LLST51:
 14981 0000 00000000 		.4byte	.LVL151
 14982 0004 22000000 		.4byte	.LVL153
 14983 0008 0100     		.2byte	0x1
 14984 000a 50       		.byte	0x50
 14985 000b 22000000 		.4byte	.LVL153
 14986 000f AC000000 		.4byte	.LFE277
 14987 0013 0400     		.2byte	0x4
 14988 0015 F3       		.byte	0xf3
 14989 0016 01       		.uleb128 0x1
 14990 0017 50       		.byte	0x50
 14991 0018 9F       		.byte	0x9f
 14992 0019 00000000 		.4byte	0
 14993 001d 00000000 		.4byte	0
 14994              	.LLST52:
 14995 0021 70000000 		.4byte	.LVL163
 14996 0025 76000000 		.4byte	.LVL164
 14997 0029 0200     		.2byte	0x2
 14998 002b 30       		.byte	0x30
 14999 002c 9F       		.byte	0x9f
 15000 002d 00000000 		.4byte	0
 15001 0031 00000000 		.4byte	0
 15002              	.LLST53:
 15003 0035 42000000 		.4byte	.LVL157
 15004 0039 48000000 		.4byte	.LVL158
 15005 003d 0300     		.2byte	0x3
 15006 003f 08       		.byte	0x8
 15007 0040 20       		.byte	0x20
 15008 0041 9F       		.byte	0x9f
 15009 0042 00000000 		.4byte	0
 15010 0046 00000000 		.4byte	0
 15011              	.LLST54:
 15012 004a 24000000 		.4byte	.LVL154
 15013 004e 2E000000 		.4byte	.LVL155
 15014 0052 0400     		.2byte	0x4
ARM GAS  /var/folders/j2/t8glr22d56s93xphj_30s8g80000gn/T//cc8l81ic.s 			page 265


 15015 0054 0A       		.byte	0xa
 15016 0055 E803     		.2byte	0x3e8
 15017 0057 9F       		.byte	0x9f
 15018 0058 00000000 		.4byte	0
 15019 005c 00000000 		.4byte	0
 15020              	.LLST55:
 15021 0060 2E000000 		.4byte	.LVL155
 15022 0064 38000000 		.4byte	.LVL156
 15023 0068 0400     		.2byte	0x4
 15024 006a 0A       		.byte	0xa
 15025 006b E803     		.2byte	0x3e8
 15026 006d 9F       		.byte	0x9f
 15027 006e 00000000 		.4byte	0
 15028 0072 00000000 		.4byte	0
 15029              	.LLST16:
 15030 0076 00000000 		.4byte	.LVL87
 15031 007a 24000000 		.4byte	.LVL89
 15032 007e 0100     		.2byte	0x1
 15033 0080 50       		.byte	0x50
 15034 0081 24000000 		.4byte	.LVL89
 15035 0085 54020000 		.4byte	.LFE276
 15036 0089 0400     		.2byte	0x4
 15037 008b F3       		.byte	0xf3
 15038 008c 01       		.uleb128 0x1
 15039 008d 50       		.byte	0x50
 15040 008e 9F       		.byte	0x9f
 15041 008f 00000000 		.4byte	0
 15042 0093 00000000 		.4byte	0
 15043              	.LLST17:
 15044 0097 92000000 		.4byte	.LVL100
 15045 009b 96000000 		.4byte	.LVL101
 15046 009f 0200     		.2byte	0x2
 15047 00a1 30       		.byte	0x30
 15048 00a2 9F       		.byte	0x9f
 15049 00a3 00000000 		.4byte	0
 15050 00a7 00000000 		.4byte	0
 15051              	.LLST18:
 15052 00ab 96000000 		.4byte	.LVL101
 15053 00af 9E000000 		.4byte	.LVL102
 15054 00b3 0200     		.2byte	0x2
 15055 00b5 30       		.byte	0x30
 15056 00b6 9F       		.byte	0x9f
 15057 00b7 00000000 		.4byte	0
 15058 00bb 00000000 		.4byte	0
 15059              	.LLST19:
 15060 00bf 38000000 		.4byte	.LVL90
 15061 00c3 3E000000 		.4byte	.LVL91
 15062 00c7 0300     		.2byte	0x3
 15063 00c9 08       		.byte	0x8
 15064 00ca 20       		.byte	0x20
 15065 00cb 9F       		.byte	0x9f
 15066 00cc 00000000 		.4byte	0
 15067 00d0 00000000 		.4byte	0
 15068              	.LLST20:
 15069 00d4 66000000 		.4byte	.LVL96
 15070 00d8 6C000000 		.4byte	.LVL97
 15071 00dc 0200     		.2byte	0x2
ARM GAS  /var/folders/j2/t8glr22d56s93xphj_30s8g80000gn/T//cc8l81ic.s 			page 266


 15072 00de 30       		.byte	0x30
 15073 00df 9F       		.byte	0x9f
 15074 00e0 00000000 		.4byte	0
 15075 00e4 00000000 		.4byte	0
 15076              	.LLST21:
 15077 00e8 AC000000 		.4byte	.LVL103
 15078 00ec B4000000 		.4byte	.LVL104
 15079 00f0 0200     		.2byte	0x2
 15080 00f2 30       		.byte	0x30
 15081 00f3 9F       		.byte	0x9f
 15082 00f4 00000000 		.4byte	0
 15083 00f8 00000000 		.4byte	0
 15084              	.LLST22:
 15085 00fc B4000000 		.4byte	.LVL104
 15086 0100 BC000000 		.4byte	.LVL105
 15087 0104 0200     		.2byte	0x2
 15088 0106 30       		.byte	0x30
 15089 0107 9F       		.byte	0x9f
 15090 0108 00000000 		.4byte	0
 15091 010c 00000000 		.4byte	0
 15092              	.LLST23:
 15093 0110 C2000000 		.4byte	.LVL106
 15094 0114 CA000000 		.4byte	.LVL107
 15095 0118 0400     		.2byte	0x4
 15096 011a 0B       		.byte	0xb
 15097 011b 18FC     		.2byte	0xfc18
 15098 011d 9F       		.byte	0x9f
 15099 011e 00000000 		.4byte	0
 15100 0122 00000000 		.4byte	0
 15101              	.LLST24:
 15102 0126 CA000000 		.4byte	.LVL107
 15103 012a D4000000 		.4byte	.LVL108
 15104 012e 0400     		.2byte	0x4
 15105 0130 0A       		.byte	0xa
 15106 0131 E803     		.2byte	0x3e8
 15107 0133 9F       		.byte	0x9f
 15108 0134 00000000 		.4byte	0
 15109 0138 00000000 		.4byte	0
 15110              	.LLST25:
 15111 013c DC000000 		.4byte	.LVL109
 15112 0140 E4000000 		.4byte	.LVL110
 15113 0144 0200     		.2byte	0x2
 15114 0146 30       		.byte	0x30
 15115 0147 9F       		.byte	0x9f
 15116 0148 00000000 		.4byte	0
 15117 014c 00000000 		.4byte	0
 15118              	.LLST26:
 15119 0150 E4000000 		.4byte	.LVL110
 15120 0154 EC000000 		.4byte	.LVL111
 15121 0158 0200     		.2byte	0x2
 15122 015a 30       		.byte	0x30
 15123 015b 9F       		.byte	0x9f
 15124 015c 00000000 		.4byte	0
 15125 0160 00000000 		.4byte	0
 15126              	.LLST27:
 15127 0164 F2000000 		.4byte	.LVL112
 15128 0168 FC000000 		.4byte	.LVL113
ARM GAS  /var/folders/j2/t8glr22d56s93xphj_30s8g80000gn/T//cc8l81ic.s 			page 267


 15129 016c 0400     		.2byte	0x4
 15130 016e 0A       		.byte	0xa
 15131 016f E803     		.2byte	0x3e8
 15132 0171 9F       		.byte	0x9f
 15133 0172 00000000 		.4byte	0
 15134 0176 00000000 		.4byte	0
 15135              	.LLST28:
 15136 017a FC000000 		.4byte	.LVL113
 15137 017e 06010000 		.4byte	.LVL114
 15138 0182 0400     		.2byte	0x4
 15139 0184 0A       		.byte	0xa
 15140 0185 E803     		.2byte	0x3e8
 15141 0187 9F       		.byte	0x9f
 15142 0188 00000000 		.4byte	0
 15143 018c 00000000 		.4byte	0
 15144              	.LLST29:
 15145 0190 0E010000 		.4byte	.LVL115
 15146 0194 16010000 		.4byte	.LVL116
 15147 0198 0200     		.2byte	0x2
 15148 019a 30       		.byte	0x30
 15149 019b 9F       		.byte	0x9f
 15150 019c 00000000 		.4byte	0
 15151 01a0 00000000 		.4byte	0
 15152              	.LLST30:
 15153 01a4 16010000 		.4byte	.LVL116
 15154 01a8 1E010000 		.4byte	.LVL117
 15155 01ac 0200     		.2byte	0x2
 15156 01ae 30       		.byte	0x30
 15157 01af 9F       		.byte	0x9f
 15158 01b0 00000000 		.4byte	0
 15159 01b4 00000000 		.4byte	0
 15160              	.LLST31:
 15161 01b8 24010000 		.4byte	.LVL118
 15162 01bc 2E010000 		.4byte	.LVL119
 15163 01c0 0400     		.2byte	0x4
 15164 01c2 0A       		.byte	0xa
 15165 01c3 E803     		.2byte	0x3e8
 15166 01c5 9F       		.byte	0x9f
 15167 01c6 00000000 		.4byte	0
 15168 01ca 00000000 		.4byte	0
 15169              	.LLST32:
 15170 01ce 2E010000 		.4byte	.LVL119
 15171 01d2 36010000 		.4byte	.LVL120
 15172 01d6 0400     		.2byte	0x4
 15173 01d8 0B       		.byte	0xb
 15174 01d9 18FC     		.2byte	0xfc18
 15175 01db 9F       		.byte	0x9f
 15176 01dc 00000000 		.4byte	0
 15177 01e0 00000000 		.4byte	0
 15178              	.LLST33:
 15179 01e4 46010000 		.4byte	.LVL122
 15180 01e8 4A010000 		.4byte	.LVL123
 15181 01ec 0200     		.2byte	0x2
 15182 01ee 30       		.byte	0x30
 15183 01ef 9F       		.byte	0x9f
 15184 01f0 00000000 		.4byte	0
 15185 01f4 00000000 		.4byte	0
ARM GAS  /var/folders/j2/t8glr22d56s93xphj_30s8g80000gn/T//cc8l81ic.s 			page 268


 15186              	.LLST34:
 15187 01f8 4A010000 		.4byte	.LVL123
 15188 01fc 52010000 		.4byte	.LVL124
 15189 0200 0200     		.2byte	0x2
 15190 0202 30       		.byte	0x30
 15191 0203 9F       		.byte	0x9f
 15192 0204 00000000 		.4byte	0
 15193 0208 00000000 		.4byte	0
 15194              	.LLST35:
 15195 020c 58010000 		.4byte	.LVL125
 15196 0210 62010000 		.4byte	.LVL126
 15197 0214 0400     		.2byte	0x4
 15198 0216 0A       		.byte	0xa
 15199 0217 E803     		.2byte	0x3e8
 15200 0219 9F       		.byte	0x9f
 15201 021a 00000000 		.4byte	0
 15202 021e 00000000 		.4byte	0
 15203              	.LLST36:
 15204 0222 62010000 		.4byte	.LVL126
 15205 0226 6C010000 		.4byte	.LVL127
 15206 022a 0400     		.2byte	0x4
 15207 022c 0A       		.byte	0xa
 15208 022d E803     		.2byte	0x3e8
 15209 022f 9F       		.byte	0x9f
 15210 0230 00000000 		.4byte	0
 15211 0234 00000000 		.4byte	0
 15212              	.LLST37:
 15213 0238 7E010000 		.4byte	.LVL129
 15214 023c 82010000 		.4byte	.LVL130
 15215 0240 0400     		.2byte	0x4
 15216 0242 0A       		.byte	0xa
 15217 0243 E803     		.2byte	0x3e8
 15218 0245 9F       		.byte	0x9f
 15219 0246 00000000 		.4byte	0
 15220 024a 00000000 		.4byte	0
 15221              	.LLST38:
 15222 024e 82010000 		.4byte	.LVL130
 15223 0252 8C010000 		.4byte	.LVL131
 15224 0256 0400     		.2byte	0x4
 15225 0258 0A       		.byte	0xa
 15226 0259 E803     		.2byte	0x3e8
 15227 025b 9F       		.byte	0x9f
 15228 025c 00000000 		.4byte	0
 15229 0260 00000000 		.4byte	0
 15230              	.LLST39:
 15231 0264 94010000 		.4byte	.LVL132
 15232 0268 9C010000 		.4byte	.LVL133
 15233 026c 0200     		.2byte	0x2
 15234 026e 30       		.byte	0x30
 15235 026f 9F       		.byte	0x9f
 15236 0270 00000000 		.4byte	0
 15237 0274 00000000 		.4byte	0
 15238              	.LLST40:
 15239 0278 9C010000 		.4byte	.LVL133
 15240 027c A4010000 		.4byte	.LVL134
 15241 0280 0200     		.2byte	0x2
 15242 0282 30       		.byte	0x30
ARM GAS  /var/folders/j2/t8glr22d56s93xphj_30s8g80000gn/T//cc8l81ic.s 			page 269


 15243 0283 9F       		.byte	0x9f
 15244 0284 00000000 		.4byte	0
 15245 0288 00000000 		.4byte	0
 15246              	.LLST41:
 15247 028c AA010000 		.4byte	.LVL135
 15248 0290 B4010000 		.4byte	.LVL136
 15249 0294 0400     		.2byte	0x4
 15250 0296 0A       		.byte	0xa
 15251 0297 E803     		.2byte	0x3e8
 15252 0299 9F       		.byte	0x9f
 15253 029a 00000000 		.4byte	0
 15254 029e 00000000 		.4byte	0
 15255              	.LLST42:
 15256 02a2 B4010000 		.4byte	.LVL136
 15257 02a6 BC010000 		.4byte	.LVL137
 15258 02aa 0400     		.2byte	0x4
 15259 02ac 0B       		.byte	0xb
 15260 02ad 18FC     		.2byte	0xfc18
 15261 02af 9F       		.byte	0x9f
 15262 02b0 00000000 		.4byte	0
 15263 02b4 00000000 		.4byte	0
 15264              	.LLST43:
 15265 02b8 C4010000 		.4byte	.LVL138
 15266 02bc CC010000 		.4byte	.LVL139
 15267 02c0 0200     		.2byte	0x2
 15268 02c2 30       		.byte	0x30
 15269 02c3 9F       		.byte	0x9f
 15270 02c4 00000000 		.4byte	0
 15271 02c8 00000000 		.4byte	0
 15272              	.LLST44:
 15273 02cc CC010000 		.4byte	.LVL139
 15274 02d0 D4010000 		.4byte	.LVL140
 15275 02d4 0200     		.2byte	0x2
 15276 02d6 30       		.byte	0x30
 15277 02d7 9F       		.byte	0x9f
 15278 02d8 00000000 		.4byte	0
 15279 02dc 00000000 		.4byte	0
 15280              	.LLST45:
 15281 02e0 DA010000 		.4byte	.LVL141
 15282 02e4 E4010000 		.4byte	.LVL142
 15283 02e8 0400     		.2byte	0x4
 15284 02ea 0A       		.byte	0xa
 15285 02eb E803     		.2byte	0x3e8
 15286 02ed 9F       		.byte	0x9f
 15287 02ee 00000000 		.4byte	0
 15288 02f2 00000000 		.4byte	0
 15289              	.LLST46:
 15290 02f6 E4010000 		.4byte	.LVL142
 15291 02fa EE010000 		.4byte	.LVL143
 15292 02fe 0400     		.2byte	0x4
 15293 0300 0A       		.byte	0xa
 15294 0301 E803     		.2byte	0x3e8
 15295 0303 9F       		.byte	0x9f
 15296 0304 00000000 		.4byte	0
 15297 0308 00000000 		.4byte	0
 15298              	.LLST47:
 15299 030c F6010000 		.4byte	.LVL144
ARM GAS  /var/folders/j2/t8glr22d56s93xphj_30s8g80000gn/T//cc8l81ic.s 			page 270


 15300 0310 FE010000 		.4byte	.LVL145
 15301 0314 0200     		.2byte	0x2
 15302 0316 30       		.byte	0x30
 15303 0317 9F       		.byte	0x9f
 15304 0318 00000000 		.4byte	0
 15305 031c 00000000 		.4byte	0
 15306              	.LLST48:
 15307 0320 FE010000 		.4byte	.LVL145
 15308 0324 06020000 		.4byte	.LVL146
 15309 0328 0200     		.2byte	0x2
 15310 032a 30       		.byte	0x30
 15311 032b 9F       		.byte	0x9f
 15312 032c 00000000 		.4byte	0
 15313 0330 00000000 		.4byte	0
 15314              	.LLST49:
 15315 0334 0C020000 		.4byte	.LVL147
 15316 0338 14020000 		.4byte	.LVL148
 15317 033c 0400     		.2byte	0x4
 15318 033e 0B       		.byte	0xb
 15319 033f 18FC     		.2byte	0xfc18
 15320 0341 9F       		.byte	0x9f
 15321 0342 00000000 		.4byte	0
 15322 0346 00000000 		.4byte	0
 15323              	.LLST50:
 15324 034a 14020000 		.4byte	.LVL148
 15325 034e 1E020000 		.4byte	.LVL149
 15326 0352 0400     		.2byte	0x4
 15327 0354 0A       		.byte	0xa
 15328 0355 E803     		.2byte	0x3e8
 15329 0357 9F       		.byte	0x9f
 15330 0358 00000000 		.4byte	0
 15331 035c 00000000 		.4byte	0
 15332              	.LLST10:
 15333 0360 00000000 		.4byte	.LVL46
 15334 0364 24000000 		.4byte	.LVL48
 15335 0368 0100     		.2byte	0x1
 15336 036a 50       		.byte	0x50
 15337 036b 24000000 		.4byte	.LVL48
 15338 036f 00010000 		.4byte	.LFE275
 15339 0373 0400     		.2byte	0x4
 15340 0375 F3       		.byte	0xf3
 15341 0376 01       		.uleb128 0x1
 15342 0377 50       		.byte	0x50
 15343 0378 9F       		.byte	0x9f
 15344 0379 00000000 		.4byte	0
 15345 037d 00000000 		.4byte	0
 15346              	.LLST11:
 15347 0381 82000000 		.4byte	.LVL59
 15348 0385 86000000 		.4byte	.LVL60
 15349 0389 0200     		.2byte	0x2
 15350 038b 30       		.byte	0x30
 15351 038c 9F       		.byte	0x9f
 15352 038d 00000000 		.4byte	0
 15353 0391 00000000 		.4byte	0
 15354              	.LLST12:
 15355 0395 56000000 		.4byte	.LVL53
 15356 0399 5A000000 		.4byte	.LVL54
ARM GAS  /var/folders/j2/t8glr22d56s93xphj_30s8g80000gn/T//cc8l81ic.s 			page 271


 15357 039d 0300     		.2byte	0x3
 15358 039f 08       		.byte	0x8
 15359 03a0 20       		.byte	0x20
 15360 03a1 9F       		.byte	0x9f
 15361 03a2 00000000 		.4byte	0
 15362 03a6 00000000 		.4byte	0
 15363              	.LLST56:
 15364 03aa 00000000 		.4byte	.LVL166
 15365 03ae 22000000 		.4byte	.LVL168
 15366 03b2 0100     		.2byte	0x1
 15367 03b4 50       		.byte	0x50
 15368 03b5 22000000 		.4byte	.LVL168
 15369 03b9 40010000 		.4byte	.LFE274
 15370 03bd 0400     		.2byte	0x4
 15371 03bf F3       		.byte	0xf3
 15372 03c0 01       		.uleb128 0x1
 15373 03c1 50       		.byte	0x50
 15374 03c2 9F       		.byte	0x9f
 15375 03c3 00000000 		.4byte	0
 15376 03c7 00000000 		.4byte	0
 15377              	.LLST57:
 15378 03cb 82000000 		.4byte	.LVL179
 15379 03cf 8A000000 		.4byte	.LVL180
 15380 03d3 0200     		.2byte	0x2
 15381 03d5 30       		.byte	0x30
 15382 03d6 9F       		.byte	0x9f
 15383 03d7 00000000 		.4byte	0
 15384 03db 00000000 		.4byte	0
 15385              	.LLST58:
 15386 03df 7E000000 		.4byte	.LVL178
 15387 03e3 82000000 		.4byte	.LVL179
 15388 03e7 0200     		.2byte	0x2
 15389 03e9 30       		.byte	0x30
 15390 03ea 9F       		.byte	0x9f
 15391 03eb 00000000 		.4byte	0
 15392 03ef 00000000 		.4byte	0
 15393              	.LLST59:
 15394 03f3 2C000000 		.4byte	.LVL169
 15395 03f7 32000000 		.4byte	.LVL170
 15396 03fb 0300     		.2byte	0x3
 15397 03fd 08       		.byte	0x8
 15398 03fe 20       		.byte	0x20
 15399 03ff 9F       		.byte	0x9f
 15400 0400 00000000 		.4byte	0
 15401 0404 00000000 		.4byte	0
 15402              	.LLST60:
 15403 0408 5A000000 		.4byte	.LVL175
 15404 040c 62000000 		.4byte	.LVL176
 15405 0410 0200     		.2byte	0x2
 15406 0412 30       		.byte	0x30
 15407 0413 9F       		.byte	0x9f
 15408 0414 00000000 		.4byte	0
 15409 0418 00000000 		.4byte	0
 15410              	.LLST61:
 15411 041c 98000000 		.4byte	.LVL181
 15412 0420 A2000000 		.4byte	.LVL182
 15413 0424 0400     		.2byte	0x4
ARM GAS  /var/folders/j2/t8glr22d56s93xphj_30s8g80000gn/T//cc8l81ic.s 			page 272


 15414 0426 0B       		.byte	0xb
 15415 0427 18FC     		.2byte	0xfc18
 15416 0429 9F       		.byte	0x9f
 15417 042a 00000000 		.4byte	0
 15418 042e 00000000 		.4byte	0
 15419              	.LLST62:
 15420 0432 A2000000 		.4byte	.LVL182
 15421 0436 AA000000 		.4byte	.LVL183
 15422 043a 0400     		.2byte	0x4
 15423 043c 0B       		.byte	0xb
 15424 043d 18FC     		.2byte	0xfc18
 15425 043f 9F       		.byte	0x9f
 15426 0440 00000000 		.4byte	0
 15427 0444 00000000 		.4byte	0
 15428              	.LLST63:
 15429 0448 B2000000 		.4byte	.LVL184
 15430 044c BA000000 		.4byte	.LVL185
 15431 0450 0400     		.2byte	0x4
 15432 0452 0B       		.byte	0xb
 15433 0453 18FC     		.2byte	0xfc18
 15434 0455 9F       		.byte	0x9f
 15435 0456 00000000 		.4byte	0
 15436 045a 00000000 		.4byte	0
 15437              	.LLST64:
 15438 045e BA000000 		.4byte	.LVL185
 15439 0462 C4000000 		.4byte	.LVL186
 15440 0466 0400     		.2byte	0x4
 15441 0468 0A       		.byte	0xa
 15442 0469 E803     		.2byte	0x3e8
 15443 046b 9F       		.byte	0x9f
 15444 046c 00000000 		.4byte	0
 15445 0470 00000000 		.4byte	0
 15446              	.LLST65:
 15447 0474 CC000000 		.4byte	.LVL187
 15448 0478 D4000000 		.4byte	.LVL188
 15449 047c 0400     		.2byte	0x4
 15450 047e 0B       		.byte	0xb
 15451 047f 18FC     		.2byte	0xfc18
 15452 0481 9F       		.byte	0x9f
 15453 0482 00000000 		.4byte	0
 15454 0486 00000000 		.4byte	0
 15455              	.LLST66:
 15456 048a D4000000 		.4byte	.LVL188
 15457 048e DC000000 		.4byte	.LVL189
 15458 0492 0400     		.2byte	0x4
 15459 0494 0B       		.byte	0xb
 15460 0495 18FC     		.2byte	0xfc18
 15461 0497 9F       		.byte	0x9f
 15462 0498 00000000 		.4byte	0
 15463 049c 00000000 		.4byte	0
 15464              	.LLST67:
 15465 04a0 EE000000 		.4byte	.LVL191
 15466 04a4 F8000000 		.4byte	.LVL192
 15467 04a8 0400     		.2byte	0x4
 15468 04aa 0A       		.byte	0xa
 15469 04ab E803     		.2byte	0x3e8
 15470 04ad 9F       		.byte	0x9f
ARM GAS  /var/folders/j2/t8glr22d56s93xphj_30s8g80000gn/T//cc8l81ic.s 			page 273


 15471 04ae 00000000 		.4byte	0
 15472 04b2 00000000 		.4byte	0
 15473              	.LLST68:
 15474 04b6 0A010000 		.4byte	.LVL194
 15475 04ba 12010000 		.4byte	.LVL195
 15476 04be 0200     		.2byte	0x2
 15477 04c0 30       		.byte	0x30
 15478 04c1 9F       		.byte	0x9f
 15479 04c2 00000000 		.4byte	0
 15480 04c6 00000000 		.4byte	0
 15481              	.LLST72:
 15482 04ca 00000000 		.4byte	.LVL210
 15483 04ce 0C000000 		.4byte	.LVL211
 15484 04d2 0100     		.2byte	0x1
 15485 04d4 50       		.byte	0x50
 15486 04d5 0C000000 		.4byte	.LVL211
 15487 04d9 2C000000 		.4byte	.LFE272
 15488 04dd 0400     		.2byte	0x4
 15489 04df F3       		.byte	0xf3
 15490 04e0 01       		.uleb128 0x1
 15491 04e1 50       		.byte	0x50
 15492 04e2 9F       		.byte	0x9f
 15493 04e3 00000000 		.4byte	0
 15494 04e7 00000000 		.4byte	0
 15495              	.LLST13:
 15496 04eb 00000000 		.4byte	.LVL69
 15497 04ef 27000000 		.4byte	.LVL73-1
 15498 04f3 0100     		.2byte	0x1
 15499 04f5 50       		.byte	0x50
 15500 04f6 27000000 		.4byte	.LVL73-1
 15501 04fa 3C000000 		.4byte	.LVL75
 15502 04fe 0100     		.2byte	0x1
 15503 0500 54       		.byte	0x54
 15504 0501 3C000000 		.4byte	.LVL75
 15505 0505 40000000 		.4byte	.LVL76
 15506 0509 0400     		.2byte	0x4
 15507 050b F3       		.byte	0xf3
 15508 050c 01       		.uleb128 0x1
 15509 050d 50       		.byte	0x50
 15510 050e 9F       		.byte	0x9f
 15511 050f 40000000 		.4byte	.LVL76
 15512 0513 5D000000 		.4byte	.LVL81-1
 15513 0517 0100     		.2byte	0x1
 15514 0519 50       		.byte	0x50
 15515 051a 5D000000 		.4byte	.LVL81-1
 15516 051e 62000000 		.4byte	.LVL82
 15517 0522 0100     		.2byte	0x1
 15518 0524 54       		.byte	0x54
 15519 0525 62000000 		.4byte	.LVL82
 15520 0529 6D000000 		.4byte	.LVL85-1
 15521 052d 0100     		.2byte	0x1
 15522 052f 50       		.byte	0x50
 15523 0530 6D000000 		.4byte	.LVL85-1
 15524 0534 76000000 		.4byte	.LVL86
 15525 0538 0100     		.2byte	0x1
 15526 053a 54       		.byte	0x54
 15527 053b 76000000 		.4byte	.LVL86
ARM GAS  /var/folders/j2/t8glr22d56s93xphj_30s8g80000gn/T//cc8l81ic.s 			page 274


 15528 053f 8C000000 		.4byte	.LFE266
 15529 0543 0100     		.2byte	0x1
 15530 0545 50       		.byte	0x50
 15531 0546 00000000 		.4byte	0
 15532 054a 00000000 		.4byte	0
 15533              	.LLST14:
 15534 054e 00000000 		.4byte	.LVL69
 15535 0552 1E000000 		.4byte	.LVL70
 15536 0556 0100     		.2byte	0x1
 15537 0558 51       		.byte	0x51
 15538 0559 1E000000 		.4byte	.LVL70
 15539 055d 26000000 		.4byte	.LVL72
 15540 0561 0100     		.2byte	0x1
 15541 0563 53       		.byte	0x53
 15542 0564 26000000 		.4byte	.LVL72
 15543 0568 27000000 		.4byte	.LVL73-1
 15544 056c 0500     		.2byte	0x5
 15545 056e 71       		.byte	0x71
 15546 056f 00       		.sleb128 0
 15547 0570 31       		.byte	0x31
 15548 0571 24       		.byte	0x24
 15549 0572 9F       		.byte	0x9f
 15550 0573 27000000 		.4byte	.LVL73-1
 15551 0577 2C000000 		.4byte	.LVL74
 15552 057b 0600     		.2byte	0x6
 15553 057d F3       		.byte	0xf3
 15554 057e 01       		.uleb128 0x1
 15555 057f 51       		.byte	0x51
 15556 0580 31       		.byte	0x31
 15557 0581 24       		.byte	0x24
 15558 0582 9F       		.byte	0x9f
 15559 0583 40000000 		.4byte	.LVL76
 15560 0587 42000000 		.4byte	.LVL77
 15561 058b 0100     		.2byte	0x1
 15562 058d 51       		.byte	0x51
 15563 058e 46000000 		.4byte	.LVL78
 15564 0592 5C000000 		.4byte	.LVL80
 15565 0596 0100     		.2byte	0x1
 15566 0598 53       		.byte	0x53
 15567 0599 62000000 		.4byte	.LVL82
 15568 059d 68000000 		.4byte	.LVL84
 15569 05a1 0400     		.2byte	0x4
 15570 05a3 0A       		.byte	0xa
 15571 05a4 9808     		.2byte	0x898
 15572 05a6 9F       		.byte	0x9f
 15573 05a7 76000000 		.4byte	.LVL86
 15574 05ab 8C000000 		.4byte	.LFE266
 15575 05af 0100     		.2byte	0x1
 15576 05b1 53       		.byte	0x53
 15577 05b2 00000000 		.4byte	0
 15578 05b6 00000000 		.4byte	0
 15579              	.LLST15:
 15580 05ba 24000000 		.4byte	.LVL71
 15581 05be 2C000000 		.4byte	.LVL74
 15582 05c2 0400     		.2byte	0x4
 15583 05c4 0A       		.byte	0xa
 15584 05c5 E803     		.2byte	0x3e8
ARM GAS  /var/folders/j2/t8glr22d56s93xphj_30s8g80000gn/T//cc8l81ic.s 			page 275


 15585 05c7 9F       		.byte	0x9f
 15586 05c8 48000000 		.4byte	.LVL79
 15587 05cc 5C000000 		.4byte	.LVL80
 15588 05d0 0900     		.2byte	0x9
 15589 05d2 0C       		.byte	0xc
 15590 05d3 A0860100 		.4byte	0x186a0
 15591 05d7 73       		.byte	0x73
 15592 05d8 00       		.sleb128 0
 15593 05d9 1B       		.byte	0x1b
 15594 05da 9F       		.byte	0x9f
 15595 05db 66000000 		.4byte	.LVL83
 15596 05df 68000000 		.4byte	.LVL84
 15597 05e3 0300     		.2byte	0x3
 15598 05e5 08       		.byte	0x8
 15599 05e6 2D       		.byte	0x2d
 15600 05e7 9F       		.byte	0x9f
 15601 05e8 00000000 		.4byte	0
 15602 05ec 00000000 		.4byte	0
 15603              	.LLST3:
 15604 05f0 00000000 		.4byte	.LVL7
 15605 05f4 1C000000 		.4byte	.LVL8
 15606 05f8 0100     		.2byte	0x1
 15607 05fa 50       		.byte	0x50
 15608 05fb 1C000000 		.4byte	.LVL8
 15609 05ff 3C000000 		.4byte	.LFE261
 15610 0603 0400     		.2byte	0x4
 15611 0605 F3       		.byte	0xf3
 15612 0606 01       		.uleb128 0x1
 15613 0607 50       		.byte	0x50
 15614 0608 9F       		.byte	0x9f
 15615 0609 00000000 		.4byte	0
 15616 060d 00000000 		.4byte	0
 15617              	.LLST2:
 15618 0611 00000000 		.4byte	.LVL4
 15619 0615 1C000000 		.4byte	.LVL5
 15620 0619 0100     		.2byte	0x1
 15621 061b 50       		.byte	0x50
 15622 061c 1C000000 		.4byte	.LVL5
 15623 0620 3C000000 		.4byte	.LFE260
 15624 0624 0400     		.2byte	0x4
 15625 0626 F3       		.byte	0xf3
 15626 0627 01       		.uleb128 0x1
 15627 0628 50       		.byte	0x50
 15628 0629 9F       		.byte	0x9f
 15629 062a 00000000 		.4byte	0
 15630 062e 00000000 		.4byte	0
 15631              	.LLST1:
 15632 0632 00000000 		.4byte	.LVL2
 15633 0636 7F000000 		.4byte	.LVL3-1
 15634 063a 0100     		.2byte	0x1
 15635 063c 50       		.byte	0x50
 15636 063d 7F000000 		.4byte	.LVL3-1
 15637 0641 88000000 		.4byte	.LFE257
 15638 0645 0400     		.2byte	0x4
 15639 0647 F3       		.byte	0xf3
 15640 0648 01       		.uleb128 0x1
 15641 0649 50       		.byte	0x50
ARM GAS  /var/folders/j2/t8glr22d56s93xphj_30s8g80000gn/T//cc8l81ic.s 			page 276


 15642 064a 9F       		.byte	0x9f
 15643 064b 00000000 		.4byte	0
 15644 064f 00000000 		.4byte	0
 15645              	.LLST0:
 15646 0653 00000000 		.4byte	.LVL0
 15647 0657 7F000000 		.4byte	.LVL1-1
 15648 065b 0100     		.2byte	0x1
 15649 065d 50       		.byte	0x50
 15650 065e 7F000000 		.4byte	.LVL1-1
 15651 0662 88000000 		.4byte	.LFE256
 15652 0666 0400     		.2byte	0x4
 15653 0668 F3       		.byte	0xf3
 15654 0669 01       		.uleb128 0x1
 15655 066a 50       		.byte	0x50
 15656 066b 9F       		.byte	0x9f
 15657 066c 00000000 		.4byte	0
 15658 0670 00000000 		.4byte	0
 15659              	.LLST4:
 15660 0674 00000000 		.4byte	.LVL20
 15661 0678 18000000 		.4byte	.LVL21
 15662 067c 0100     		.2byte	0x1
 15663 067e 50       		.byte	0x50
 15664 067f 18000000 		.4byte	.LVL21
 15665 0683 38000000 		.4byte	.LVL25
 15666 0687 0400     		.2byte	0x4
 15667 0689 F3       		.byte	0xf3
 15668 068a 01       		.uleb128 0x1
 15669 068b 50       		.byte	0x50
 15670 068c 9F       		.byte	0x9f
 15671 068d 38000000 		.4byte	.LVL25
 15672 0691 46000000 		.4byte	.LVL26
 15673 0695 0100     		.2byte	0x1
 15674 0697 50       		.byte	0x50
 15675 0698 46000000 		.4byte	.LVL26
 15676 069c 4E000000 		.4byte	.LVL27
 15677 06a0 0400     		.2byte	0x4
 15678 06a2 F3       		.byte	0xf3
 15679 06a3 01       		.uleb128 0x1
 15680 06a4 50       		.byte	0x50
 15681 06a5 9F       		.byte	0x9f
 15682 06a6 4E000000 		.4byte	.LVL27
 15683 06aa 52000000 		.4byte	.LVL28
 15684 06ae 0100     		.2byte	0x1
 15685 06b0 50       		.byte	0x50
 15686 06b1 52000000 		.4byte	.LVL28
 15687 06b5 7C000000 		.4byte	.LFE258
 15688 06b9 0400     		.2byte	0x4
 15689 06bb F3       		.byte	0xf3
 15690 06bc 01       		.uleb128 0x1
 15691 06bd 50       		.byte	0x50
 15692 06be 9F       		.byte	0x9f
 15693 06bf 00000000 		.4byte	0
 15694 06c3 00000000 		.4byte	0
 15695              	.LLST5:
 15696 06c7 1E000000 		.4byte	.LVL22
 15697 06cb 2C000000 		.4byte	.LVL24
 15698 06cf 0100     		.2byte	0x1
ARM GAS  /var/folders/j2/t8glr22d56s93xphj_30s8g80000gn/T//cc8l81ic.s 			page 277


 15699 06d1 55       		.byte	0x55
 15700 06d2 00000000 		.4byte	0
 15701 06d6 00000000 		.4byte	0
 15702              	.LLST6:
 15703 06da 4E000000 		.4byte	.LVL27
 15704 06de 52000000 		.4byte	.LVL28
 15705 06e2 0100     		.2byte	0x1
 15706 06e4 50       		.byte	0x50
 15707 06e5 52000000 		.4byte	.LVL28
 15708 06e9 68000000 		.4byte	.LVL31
 15709 06ed 0400     		.2byte	0x4
 15710 06ef F3       		.byte	0xf3
 15711 06f0 01       		.uleb128 0x1
 15712 06f1 50       		.byte	0x50
 15713 06f2 9F       		.byte	0x9f
 15714 06f3 00000000 		.4byte	0
 15715 06f7 00000000 		.4byte	0
 15716              	.LLST7:
 15717 06fb 00000000 		.4byte	.LVL33
 15718 06ff 18000000 		.4byte	.LVL34
 15719 0703 0100     		.2byte	0x1
 15720 0705 50       		.byte	0x50
 15721 0706 18000000 		.4byte	.LVL34
 15722 070a 38000000 		.4byte	.LVL38
 15723 070e 0400     		.2byte	0x4
 15724 0710 F3       		.byte	0xf3
 15725 0711 01       		.uleb128 0x1
 15726 0712 50       		.byte	0x50
 15727 0713 9F       		.byte	0x9f
 15728 0714 38000000 		.4byte	.LVL38
 15729 0718 46000000 		.4byte	.LVL39
 15730 071c 0100     		.2byte	0x1
 15731 071e 50       		.byte	0x50
 15732 071f 46000000 		.4byte	.LVL39
 15733 0723 4E000000 		.4byte	.LVL40
 15734 0727 0400     		.2byte	0x4
 15735 0729 F3       		.byte	0xf3
 15736 072a 01       		.uleb128 0x1
 15737 072b 50       		.byte	0x50
 15738 072c 9F       		.byte	0x9f
 15739 072d 4E000000 		.4byte	.LVL40
 15740 0731 52000000 		.4byte	.LVL41
 15741 0735 0100     		.2byte	0x1
 15742 0737 50       		.byte	0x50
 15743 0738 52000000 		.4byte	.LVL41
 15744 073c 7C000000 		.4byte	.LFE259
 15745 0740 0400     		.2byte	0x4
 15746 0742 F3       		.byte	0xf3
 15747 0743 01       		.uleb128 0x1
 15748 0744 50       		.byte	0x50
 15749 0745 9F       		.byte	0x9f
 15750 0746 00000000 		.4byte	0
 15751 074a 00000000 		.4byte	0
 15752              	.LLST8:
 15753 074e 1E000000 		.4byte	.LVL35
 15754 0752 2C000000 		.4byte	.LVL37
 15755 0756 0100     		.2byte	0x1
ARM GAS  /var/folders/j2/t8glr22d56s93xphj_30s8g80000gn/T//cc8l81ic.s 			page 278


 15756 0758 55       		.byte	0x55
 15757 0759 00000000 		.4byte	0
 15758 075d 00000000 		.4byte	0
 15759              	.LLST9:
 15760 0761 4E000000 		.4byte	.LVL40
 15761 0765 52000000 		.4byte	.LVL41
 15762 0769 0100     		.2byte	0x1
 15763 076b 50       		.byte	0x50
 15764 076c 52000000 		.4byte	.LVL41
 15765 0770 68000000 		.4byte	.LVL44
 15766 0774 0400     		.2byte	0x4
 15767 0776 F3       		.byte	0xf3
 15768 0777 01       		.uleb128 0x1
 15769 0778 50       		.byte	0x50
 15770 0779 9F       		.byte	0x9f
 15771 077a 00000000 		.4byte	0
 15772 077e 00000000 		.4byte	0
 15773              	.LLST69:
 15774 0782 00000000 		.4byte	.LVL197
 15775 0786 16000000 		.4byte	.LVL198
 15776 078a 0100     		.2byte	0x1
 15777 078c 50       		.byte	0x50
 15778 078d 16000000 		.4byte	.LVL198
 15779 0791 1F000000 		.4byte	.LVL199-1
 15780 0795 0100     		.2byte	0x1
 15781 0797 51       		.byte	0x51
 15782 0798 1F000000 		.4byte	.LVL199-1
 15783 079c 20000000 		.4byte	.LVL199
 15784 07a0 0400     		.2byte	0x4
 15785 07a2 F3       		.byte	0xf3
 15786 07a3 01       		.uleb128 0x1
 15787 07a4 50       		.byte	0x50
 15788 07a5 9F       		.byte	0x9f
 15789 07a6 20000000 		.4byte	.LVL199
 15790 07aa 23000000 		.4byte	.LVL200-1
 15791 07ae 0100     		.2byte	0x1
 15792 07b0 50       		.byte	0x50
 15793 07b1 23000000 		.4byte	.LVL200-1
 15794 07b5 2C000000 		.4byte	.LFE267
 15795 07b9 0400     		.2byte	0x4
 15796 07bb F3       		.byte	0xf3
 15797 07bc 01       		.uleb128 0x1
 15798 07bd 50       		.byte	0x50
 15799 07be 9F       		.byte	0x9f
 15800 07bf 00000000 		.4byte	0
 15801 07c3 00000000 		.4byte	0
 15802              	.LLST70:
 15803 07c7 00000000 		.4byte	.LVL201
 15804 07cb 16000000 		.4byte	.LVL202
 15805 07cf 0100     		.2byte	0x1
 15806 07d1 50       		.byte	0x50
 15807 07d2 16000000 		.4byte	.LVL202
 15808 07d6 1F000000 		.4byte	.LVL203-1
 15809 07da 0100     		.2byte	0x1
 15810 07dc 51       		.byte	0x51
 15811 07dd 1F000000 		.4byte	.LVL203-1
 15812 07e1 20000000 		.4byte	.LVL203
ARM GAS  /var/folders/j2/t8glr22d56s93xphj_30s8g80000gn/T//cc8l81ic.s 			page 279


 15813 07e5 0400     		.2byte	0x4
 15814 07e7 F3       		.byte	0xf3
 15815 07e8 01       		.uleb128 0x1
 15816 07e9 50       		.byte	0x50
 15817 07ea 9F       		.byte	0x9f
 15818 07eb 20000000 		.4byte	.LVL203
 15819 07ef 23000000 		.4byte	.LVL204-1
 15820 07f3 0100     		.2byte	0x1
 15821 07f5 50       		.byte	0x50
 15822 07f6 23000000 		.4byte	.LVL204-1
 15823 07fa 2C000000 		.4byte	.LFE268
 15824 07fe 0400     		.2byte	0x4
 15825 0800 F3       		.byte	0xf3
 15826 0801 01       		.uleb128 0x1
 15827 0802 50       		.byte	0x50
 15828 0803 9F       		.byte	0x9f
 15829 0804 00000000 		.4byte	0
 15830 0808 00000000 		.4byte	0
 15831              	.LLST71:
 15832 080c 00000000 		.4byte	.LVL207
 15833 0810 0C000000 		.4byte	.LVL208
 15834 0814 0100     		.2byte	0x1
 15835 0816 50       		.byte	0x50
 15836 0817 0C000000 		.4byte	.LVL208
 15837 081b 2C000000 		.4byte	.LFE271
 15838 081f 0400     		.2byte	0x4
 15839 0821 F3       		.byte	0xf3
 15840 0822 01       		.uleb128 0x1
 15841 0823 50       		.byte	0x50
 15842 0824 9F       		.byte	0x9f
 15843 0825 00000000 		.4byte	0
 15844 0829 00000000 		.4byte	0
 15845              		.section	.debug_aranges,"",%progbits
 15846 0000 E4000000 		.4byte	0xe4
 15847 0004 0200     		.2byte	0x2
 15848 0006 00000000 		.4byte	.Ldebug_info0
 15849 000a 04       		.byte	0x4
 15850 000b 00       		.byte	0
 15851 000c 0000     		.2byte	0
 15852 000e 0000     		.2byte	0
 15853 0010 00000000 		.4byte	.LFB256
 15854 0014 88000000 		.4byte	.LFE256-.LFB256
 15855 0018 00000000 		.4byte	.LFB257
 15856 001c 88000000 		.4byte	.LFE257-.LFB257
 15857 0020 00000000 		.4byte	.LFB260
 15858 0024 3C000000 		.4byte	.LFE260-.LFB260
 15859 0028 00000000 		.4byte	.LFB261
 15860 002c 3C000000 		.4byte	.LFE261-.LFB261
 15861 0030 00000000 		.4byte	.LFB262
 15862 0034 38000000 		.4byte	.LFE262-.LFB262
 15863 0038 00000000 		.4byte	.LFB263
 15864 003c 38000000 		.4byte	.LFE263-.LFB263
 15865 0040 00000000 		.4byte	.LFB264
 15866 0044 2C000000 		.4byte	.LFE264-.LFB264
 15867 0048 00000000 		.4byte	.LFB265
 15868 004c 2C000000 		.4byte	.LFE265-.LFB265
 15869 0050 00000000 		.4byte	.LFB258
ARM GAS  /var/folders/j2/t8glr22d56s93xphj_30s8g80000gn/T//cc8l81ic.s 			page 280


 15870 0054 7C000000 		.4byte	.LFE258-.LFB258
 15871 0058 00000000 		.4byte	.LFB259
 15872 005c 7C000000 		.4byte	.LFE259-.LFB259
 15873 0060 00000000 		.4byte	.LFB275
 15874 0064 00010000 		.4byte	.LFE275-.LFB275
 15875 0068 00000000 		.4byte	.LFB266
 15876 006c 8C000000 		.4byte	.LFE266-.LFB266
 15877 0070 00000000 		.4byte	.LFB276
 15878 0074 54020000 		.4byte	.LFE276-.LFB276
 15879 0078 00000000 		.4byte	.LFB277
 15880 007c AC000000 		.4byte	.LFE277-.LFB277
 15881 0080 00000000 		.4byte	.LFB274
 15882 0084 40010000 		.4byte	.LFE274-.LFB274
 15883 0088 00000000 		.4byte	.LFB267
 15884 008c 2C000000 		.4byte	.LFE267-.LFB267
 15885 0090 00000000 		.4byte	.LFB268
 15886 0094 2C000000 		.4byte	.LFE268-.LFB268
 15887 0098 00000000 		.4byte	.LFB269
 15888 009c 30000000 		.4byte	.LFE269-.LFB269
 15889 00a0 00000000 		.4byte	.LFB270
 15890 00a4 30000000 		.4byte	.LFE270-.LFB270
 15891 00a8 00000000 		.4byte	.LFB271
 15892 00ac 2C000000 		.4byte	.LFE271-.LFB271
 15893 00b0 00000000 		.4byte	.LFB272
 15894 00b4 2C000000 		.4byte	.LFE272-.LFB272
 15895 00b8 00000000 		.4byte	.LFB273
 15896 00bc B0000000 		.4byte	.LFE273-.LFB273
 15897 00c0 00000000 		.4byte	.LFB278
 15898 00c4 38000000 		.4byte	.LFE278-.LFB278
 15899 00c8 00000000 		.4byte	.LFB279
 15900 00cc 38000000 		.4byte	.LFE279-.LFB279
 15901 00d0 00000000 		.4byte	.LFB280
 15902 00d4 38000000 		.4byte	.LFE280-.LFB280
 15903 00d8 00000000 		.4byte	.LFB281
 15904 00dc 38000000 		.4byte	.LFE281-.LFB281
 15905 00e0 00000000 		.4byte	0
 15906 00e4 00000000 		.4byte	0
 15907              		.section	.debug_ranges,"",%progbits
 15908              	.Ldebug_ranges0:
 15909 0000 04000000 		.4byte	.LBB185
 15910 0004 06000000 		.4byte	.LBE185
 15911 0008 08000000 		.4byte	.LBB189
 15912 000c 0C000000 		.4byte	.LBE189
 15913 0010 16000000 		.4byte	.LBB219
 15914 0014 18000000 		.4byte	.LBE219
 15915 0018 00000000 		.4byte	0
 15916 001c 00000000 		.4byte	0
 15917 0020 12000000 		.4byte	.LBB190
 15918 0024 16000000 		.4byte	.LBE190
 15919 0028 1A000000 		.4byte	.LBB220
 15920 002c 1E000000 		.4byte	.LBE220
 15921 0030 20000000 		.4byte	.LBB221
 15922 0034 24000000 		.4byte	.LBE221
 15923 0038 56000000 		.4byte	.LBB222
 15924 003c 86000000 		.4byte	.LBE222
 15925 0040 00000000 		.4byte	0
 15926 0044 00000000 		.4byte	0
ARM GAS  /var/folders/j2/t8glr22d56s93xphj_30s8g80000gn/T//cc8l81ic.s 			page 281


 15927 0048 12000000 		.4byte	.LBB192
 15928 004c 16000000 		.4byte	.LBE192
 15929 0050 20000000 		.4byte	.LBB211
 15930 0054 24000000 		.4byte	.LBE211
 15931 0058 64000000 		.4byte	.LBB215
 15932 005c 86000000 		.4byte	.LBE215
 15933 0060 00000000 		.4byte	0
 15934 0064 00000000 		.4byte	0
 15935 0068 20000000 		.4byte	.LBB194
 15936 006c 24000000 		.4byte	.LBE194
 15937 0070 82000000 		.4byte	.LBB199
 15938 0074 86000000 		.4byte	.LBE199
 15939 0078 00000000 		.4byte	0
 15940 007c 00000000 		.4byte	0
 15941 0080 1A000000 		.4byte	.LBB202
 15942 0084 1E000000 		.4byte	.LBE202
 15943 0088 56000000 		.4byte	.LBB212
 15944 008c 62000000 		.4byte	.LBE212
 15945 0090 00000000 		.4byte	0
 15946 0094 00000000 		.4byte	0
 15947 0098 1A000000 		.4byte	.LBB204
 15948 009c 1E000000 		.4byte	.LBE204
 15949 00a0 56000000 		.4byte	.LBB209
 15950 00a4 5A000000 		.4byte	.LBE209
 15951 00a8 00000000 		.4byte	0
 15952 00ac 00000000 		.4byte	0
 15953 00b0 04000000 		.4byte	.LBB303
 15954 00b4 06000000 		.4byte	.LBE303
 15955 00b8 08000000 		.4byte	.LBB307
 15956 00bc 0C000000 		.4byte	.LBE307
 15957 00c0 16000000 		.4byte	.LBB308
 15958 00c4 18000000 		.4byte	.LBE308
 15959 00c8 00000000 		.4byte	0
 15960 00cc 00000000 		.4byte	0
 15961 00d0 1A000000 		.4byte	.LBB309
 15962 00d4 1E000000 		.4byte	.LBE309
 15963 00d8 8A000000 		.4byte	.LBB330
 15964 00dc 8E000000 		.4byte	.LBE330
 15965 00e0 92000000 		.4byte	.LBB331
 15966 00e4 96000000 		.4byte	.LBE331
 15967 00e8 00000000 		.4byte	0
 15968 00ec 00000000 		.4byte	0
 15969 00f0 1E000000 		.4byte	.LBB313
 15970 00f4 20000000 		.4byte	.LBE313
 15971 00f8 96000000 		.4byte	.LBB332
 15972 00fc 9E000000 		.4byte	.LBE332
 15973 0100 00000000 		.4byte	0
 15974 0104 00000000 		.4byte	0
 15975 0108 3E010000 		.4byte	.LBB357
 15976 010c 42010000 		.4byte	.LBE357
 15977 0110 46010000 		.4byte	.LBB360
 15978 0114 4A010000 		.4byte	.LBE360
 15979 0118 00000000 		.4byte	0
 15980 011c 00000000 		.4byte	0
 15981 0120 74010000 		.4byte	.LBB367
 15982 0124 7A010000 		.4byte	.LBE367
 15983 0128 7E010000 		.4byte	.LBB370
ARM GAS  /var/folders/j2/t8glr22d56s93xphj_30s8g80000gn/T//cc8l81ic.s 			page 282


 15984 012c 82010000 		.4byte	.LBE370
 15985 0130 00000000 		.4byte	0
 15986 0134 00000000 		.4byte	0
 15987 0138 04000000 		.4byte	.LBB417
 15988 013c 06000000 		.4byte	.LBE417
 15989 0140 08000000 		.4byte	.LBB421
 15990 0144 0C000000 		.4byte	.LBE421
 15991 0148 14000000 		.4byte	.LBB439
 15992 014c 16000000 		.4byte	.LBE439
 15993 0150 00000000 		.4byte	0
 15994 0154 00000000 		.4byte	0
 15995 0158 10000000 		.4byte	.LBB422
 15996 015c 14000000 		.4byte	.LBE422
 15997 0160 42000000 		.4byte	.LBB448
 15998 0164 76000000 		.4byte	.LBE448
 15999 0168 00000000 		.4byte	0
 16000 016c 00000000 		.4byte	0
 16001 0170 10000000 		.4byte	.LBB424
 16002 0174 14000000 		.4byte	.LBE424
 16003 0178 52000000 		.4byte	.LBB437
 16004 017c 76000000 		.4byte	.LBE437
 16005 0180 00000000 		.4byte	0
 16006 0184 00000000 		.4byte	0
 16007 0188 18000000 		.4byte	.LBB440
 16008 018c 1C000000 		.4byte	.LBE440
 16009 0190 24000000 		.4byte	.LBB446
 16010 0194 2E000000 		.4byte	.LBE446
 16011 0198 00000000 		.4byte	0
 16012 019c 00000000 		.4byte	0
 16013 01a0 1C000000 		.4byte	.LBB443
 16014 01a4 1E000000 		.4byte	.LBE443
 16015 01a8 2E000000 		.4byte	.LBB447
 16016 01ac 38000000 		.4byte	.LBE447
 16017 01b0 00000000 		.4byte	0
 16018 01b4 00000000 		.4byte	0
 16019 01b8 04000000 		.4byte	.LBB493
 16020 01bc 06000000 		.4byte	.LBE493
 16021 01c0 08000000 		.4byte	.LBB497
 16022 01c4 10000000 		.4byte	.LBE497
 16023 01c8 16000000 		.4byte	.LBB498
 16024 01cc 18000000 		.4byte	.LBE498
 16025 01d0 00000000 		.4byte	0
 16026 01d4 00000000 		.4byte	0
 16027 01d8 1A000000 		.4byte	.LBB499
 16028 01dc 1C000000 		.4byte	.LBE499
 16029 01e0 82000000 		.4byte	.LBB522
 16030 01e4 8A000000 		.4byte	.LBE522
 16031 01e8 00000000 		.4byte	0
 16032 01ec 00000000 		.4byte	0
 16033 01f0 1E000000 		.4byte	.LBB502
 16034 01f4 22000000 		.4byte	.LBE502
 16035 01f8 76000000 		.4byte	.LBB520
 16036 01fc 7A000000 		.4byte	.LBE520
 16037 0200 7E000000 		.4byte	.LBB521
 16038 0204 82000000 		.4byte	.LBE521
 16039 0208 00000000 		.4byte	0
 16040 020c 00000000 		.4byte	0
ARM GAS  /var/folders/j2/t8glr22d56s93xphj_30s8g80000gn/T//cc8l81ic.s 			page 283


 16041 0210 98000000 		.4byte	.LBB523
 16042 0214 9C000000 		.4byte	.LBE523
 16043 0218 9E000000 		.4byte	.LBB529
 16044 021c A2000000 		.4byte	.LBE529
 16045 0220 00000000 		.4byte	0
 16046 0224 00000000 		.4byte	0
 16047 0228 9C000000 		.4byte	.LBB526
 16048 022c 9E000000 		.4byte	.LBE526
 16049 0230 F8000000 		.4byte	.LBB544
 16050 0234 00010000 		.4byte	.LBE544
 16051 0238 00000000 		.4byte	0
 16052 023c 00000000 		.4byte	0
 16053 0240 00000000 		.4byte	.LFB256
 16054 0244 88000000 		.4byte	.LFE256
 16055 0248 00000000 		.4byte	.LFB257
 16056 024c 88000000 		.4byte	.LFE257
 16057 0250 00000000 		.4byte	.LFB260
 16058 0254 3C000000 		.4byte	.LFE260
 16059 0258 00000000 		.4byte	.LFB261
 16060 025c 3C000000 		.4byte	.LFE261
 16061 0260 00000000 		.4byte	.LFB262
 16062 0264 38000000 		.4byte	.LFE262
 16063 0268 00000000 		.4byte	.LFB263
 16064 026c 38000000 		.4byte	.LFE263
 16065 0270 00000000 		.4byte	.LFB264
 16066 0274 2C000000 		.4byte	.LFE264
 16067 0278 00000000 		.4byte	.LFB265
 16068 027c 2C000000 		.4byte	.LFE265
 16069 0280 00000000 		.4byte	.LFB258
 16070 0284 7C000000 		.4byte	.LFE258
 16071 0288 00000000 		.4byte	.LFB259
 16072 028c 7C000000 		.4byte	.LFE259
 16073 0290 00000000 		.4byte	.LFB275
 16074 0294 00010000 		.4byte	.LFE275
 16075 0298 00000000 		.4byte	.LFB266
 16076 029c 8C000000 		.4byte	.LFE266
 16077 02a0 00000000 		.4byte	.LFB276
 16078 02a4 54020000 		.4byte	.LFE276
 16079 02a8 00000000 		.4byte	.LFB277
 16080 02ac AC000000 		.4byte	.LFE277
 16081 02b0 00000000 		.4byte	.LFB274
 16082 02b4 40010000 		.4byte	.LFE274
 16083 02b8 00000000 		.4byte	.LFB267
 16084 02bc 2C000000 		.4byte	.LFE267
 16085 02c0 00000000 		.4byte	.LFB268
 16086 02c4 2C000000 		.4byte	.LFE268
 16087 02c8 00000000 		.4byte	.LFB269
 16088 02cc 30000000 		.4byte	.LFE269
 16089 02d0 00000000 		.4byte	.LFB270
 16090 02d4 30000000 		.4byte	.LFE270
 16091 02d8 00000000 		.4byte	.LFB271
 16092 02dc 2C000000 		.4byte	.LFE271
 16093 02e0 00000000 		.4byte	.LFB272
 16094 02e4 2C000000 		.4byte	.LFE272
 16095 02e8 00000000 		.4byte	.LFB273
 16096 02ec B0000000 		.4byte	.LFE273
 16097 02f0 00000000 		.4byte	.LFB278
ARM GAS  /var/folders/j2/t8glr22d56s93xphj_30s8g80000gn/T//cc8l81ic.s 			page 284


 16098 02f4 38000000 		.4byte	.LFE278
 16099 02f8 00000000 		.4byte	.LFB279
 16100 02fc 38000000 		.4byte	.LFE279
 16101 0300 00000000 		.4byte	.LFB280
 16102 0304 38000000 		.4byte	.LFE280
 16103 0308 00000000 		.4byte	.LFB281
 16104 030c 38000000 		.4byte	.LFE281
 16105 0310 00000000 		.4byte	0
 16106 0314 00000000 		.4byte	0
 16107              		.section	.debug_line,"",%progbits
 16108              	.Ldebug_line0:
 16109 0000 620E0000 		.section	.debug_str,"MS",%progbits,1
 16109      02009808 
 16109      00000201 
 16109      FB0E0D00 
 16109      01010101 
 16110              	.LASF573:
 16111 0000 5553425F 		.ascii	"USB_STOP\000"
 16111      53544F50 
 16111      00
 16112              	.LASF186:
 16113 0009 706F7274 		.ascii	"port_intctx\000"
 16113      5F696E74 
 16113      63747800 
 16114              	.LASF195:
 16115 0015 63685F74 		.ascii	"ch_trace_buffer_t\000"
 16115      72616365 
 16115      5F627566 
 16115      6665725F 
 16115      7400
 16116              	.LASF228:
 16117 0027 63685F70 		.ascii	"ch_ptrsize\000"
 16117      74727369 
 16117      7A6500
 16118              	.LASF509:
 16119 0032 6576656E 		.ascii	"event\000"
 16119      7400
 16120              	.LASF360:
 16121 0038 43414E5F 		.ascii	"CAN_STARTING\000"
 16121      53544152 
 16121      54494E47 
 16121      00
 16122              	.LASF772:
 16123 0045 5F5F6675 		.ascii	"__func__\000"
 16123      6E635F5F 
 16123      00
 16124              	.LASF30:
 16125 004e 6D73675F 		.ascii	"msg_t\000"
 16125      7400
 16126              	.LASF304:
 16127 0054 61667268 		.ascii	"afrh\000"
 16127      00
 16128              	.LASF452:
 16129 0059 4F504D4F 		.ascii	"OPMODE_SMBUS_DEVICE\000"
 16129      44455F53 
 16129      4D425553 
 16129      5F444556 
ARM GAS  /var/folders/j2/t8glr22d56s93xphj_30s8g80000gn/T//cc8l81ic.s 			page 285


 16129      49434500 
 16130              	.LASF206:
 16131 006d 6D5F6372 		.ascii	"m_crit_isr\000"
 16131      69745F69 
 16131      737200
 16132              	.LASF632:
 16133 0078 44494550 		.ascii	"DIEPTXF0\000"
 16133      54584630 
 16133      00
 16134              	.LASF708:
 16135 0081 55534244 		.ascii	"USBD1\000"
 16135      3100
 16136              	.LASF359:
 16137 0087 43414E5F 		.ascii	"CAN_STOP\000"
 16137      53544F50 
 16137      00
 16138              	.LASF763:
 16139 0090 67707470 		.ascii	"gptp\000"
 16139      00
 16140              	.LASF241:
 16141 0095 63665F6F 		.ascii	"cf_off_time\000"
 16141      66665F74 
 16141      696D6500 
 16142              	.LASF89:
 16143 00a1 63685F73 		.ascii	"ch_system_t\000"
 16143      79737465 
 16143      6D5F7400 
 16144              	.LASF5:
 16145 00ad 5F5F7569 		.ascii	"__uint8_t\000"
 16145      6E74385F 
 16145      7400
 16146              	.LASF212:
 16147 00b7 77747365 		.ascii	"wtsemp\000"
 16147      6D7000
 16148              	.LASF288:
 16149 00be 5F426F6F 		.ascii	"_Bool\000"
 16149      6C00
 16150              	.LASF401:
 16151 00c4 64617461 		.ascii	"datamode\000"
 16151      6D6F6465 
 16151      00
 16152              	.LASF468:
 16153 00cd 646D6172 		.ascii	"dmarx\000"
 16153      7800
 16154              	.LASF473:
 16155 00d3 4932535F 		.ascii	"I2S_READY\000"
 16155      52454144 
 16155      5900
 16156              	.LASF349:
 16157 00dd 73717231 		.ascii	"sqr1\000"
 16157      00
 16158              	.LASF275:
 16159 00e2 424C4B5F 		.ascii	"BLK_UNINIT\000"
 16159      554E494E 
 16159      495400
 16160              	.LASF480:
 16161 00ed 72785F62 		.ascii	"rx_buffer\000"
ARM GAS  /var/folders/j2/t8glr22d56s93xphj_30s8g80000gn/T//cc8l81ic.s 			page 286


 16161      75666665 
 16161      7200
 16162              	.LASF464:
 16163 00f7 6572726F 		.ascii	"errors\000"
 16163      727300
 16164              	.LASF760:
 16165 00fe 6C656674 		.ascii	"left_motor_pwm_ch1_cb\000"
 16165      5F6D6F74 
 16165      6F725F70 
 16165      776D5F63 
 16165      68315F63 
 16166              	.LASF199:
 16167 0114 776F7273 		.ascii	"worst\000"
 16167      7400
 16168              	.LASF82:
 16169 011a 76745F73 		.ascii	"vt_systime\000"
 16169      79737469 
 16169      6D6500
 16170              	.LASF148:
 16171 0125 444F5231 		.ascii	"DOR1\000"
 16171      00
 16172              	.LASF149:
 16173 012a 444F5232 		.ascii	"DOR2\000"
 16173      00
 16174              	.LASF479:
 16175 012f 74785F62 		.ascii	"tx_buffer\000"
 16175      75666665 
 16175      7200
 16176              	.LASF766:
 16177 0139 6C656674 		.ascii	"left_motor_update\000"
 16177      5F6D6F74 
 16177      6F725F75 
 16177      70646174 
 16177      6500
 16178              	.LASF221:
 16179 014b 6D5F6E65 		.ascii	"m_next\000"
 16179      787400
 16180              	.LASF308:
 16181 0152 50434461 		.ascii	"PCData\000"
 16181      746100
 16182              	.LASF732:
 16183 0159 7761436C 		.ascii	"waClignotant\000"
 16183      69676E6F 
 16183      74616E74 
 16183      00
 16184              	.LASF171:
 16185 0166 4D41534B 		.ascii	"MASK\000"
 16185      00
 16186              	.LASF334:
 16187 016b 73616D70 		.ascii	"samples\000"
 16187      6C657300 
 16188              	.LASF636:
 16189 0173 47434346 		.ascii	"GCCFG\000"
 16189      4700
 16190              	.LASF430:
 16191 0179 42445452 		.ascii	"BDTR\000"
 16191      00
ARM GAS  /var/folders/j2/t8glr22d56s93xphj_30s8g80000gn/T//cc8l81ic.s 			page 287


 16192              	.LASF383:
 16193 017e 7265676D 		.ascii	"regmask\000"
 16193      61736B00 
 16194              	.LASF462:
 16195 0186 49324343 		.ascii	"I2CConfig\000"
 16195      6F6E6669 
 16195      6700
 16196              	.LASF19:
 16197 0190 75696E74 		.ascii	"uint16_t\000"
 16197      31365F74 
 16197      00
 16198              	.LASF469:
 16199 0199 646D6174 		.ascii	"dmatx\000"
 16199      7800
 16200              	.LASF706:
 16201 019f 736F665F 		.ascii	"sof_cb\000"
 16201      636200
 16202              	.LASF406:
 16203 01a6 4558545F 		.ascii	"EXT_ACTIVE\000"
 16203      41435449 
 16203      564500
 16204              	.LASF301:
 16205 01b1 6F737065 		.ascii	"ospeedr\000"
 16205      65647200 
 16206              	.LASF639:
 16207 01b9 44494550 		.ascii	"DIEPTXF\000"
 16207      54584600 
 16208              	.LASF247:
 16209 01c1 656C5F6E 		.ascii	"el_next\000"
 16209      65787400 
 16210              	.LASF329:
 16211 01c9 4144435F 		.ascii	"ADC_ERR_OVERFLOW\000"
 16211      4552525F 
 16211      4F564552 
 16211      464C4F57 
 16211      00
 16212              	.LASF87:
 16213 01da 6C6F636B 		.ascii	"lock_cnt\000"
 16213      5F636E74 
 16213      00
 16214              	.LASF63:
 16215 01e3 63685F74 		.ascii	"ch_threads_queue\000"
 16215      68726561 
 16215      64735F71 
 16215      75657565 
 16215      00
 16216              	.LASF41:
 16217 01f4 705F6E65 		.ascii	"p_newer\000"
 16217      77657200 
 16218              	.LASF649:
 16219 01fc 48505254 		.ascii	"HPRT\000"
 16219      00
 16220              	.LASF603:
 16221 0201 4843494E 		.ascii	"HCINT\000"
 16221      5400
 16222              	.LASF747:
 16223 0207 70776D63 		.ascii	"pwmcfg_left_motor\000"
ARM GAS  /var/folders/j2/t8glr22d56s93xphj_30s8g80000gn/T//cc8l81ic.s 			page 288


 16223      66675F6C 
 16223      6566745F 
 16223      6D6F746F 
 16223      7200
 16224              	.LASF98:
 16225 0219 534D5052 		.ascii	"SMPR1\000"
 16225      3100
 16226              	.LASF99:
 16227 021f 534D5052 		.ascii	"SMPR2\000"
 16227      3200
 16228              	.LASF238:
 16229 0225 63665F6F 		.ascii	"cf_off_flags\000"
 16229      66665F66 
 16229      6C616773 
 16229      00
 16230              	.LASF542:
 16231 0232 5350495F 		.ascii	"SPI_STOP\000"
 16231      53544F50 
 16231      00
 16232              	.LASF496:
 16233 023b 70776D63 		.ascii	"pwmchnmsk_t\000"
 16233      686E6D73 
 16233      6B5F7400 
 16234              	.LASF307:
 16235 0247 50424461 		.ascii	"PBData\000"
 16235      746100
 16236              	.LASF226:
 16237 024e 63685F73 		.ascii	"ch_size\000"
 16237      697A6500 
 16238              	.LASF645:
 16239 0256 48505458 		.ascii	"HPTXSTS\000"
 16239      53545300 
 16240              	.LASF300:
 16241 025e 6F747970 		.ascii	"otyper\000"
 16241      657200
 16242              	.LASF743:
 16243 0265 436C6967 		.ascii	"Clignotant\000"
 16243      6E6F7461 
 16243      6E7400
 16244              	.LASF291:
 16245 0270 4F545950 		.ascii	"OTYPER\000"
 16245      455200
 16246              	.LASF385:
 16247 0277 64616370 		.ascii	"dacparams_t\000"
 16247      6172616D 
 16247      735F7400 
 16248              	.LASF520:
 16249 0283 5344435F 		.ascii	"SDC_MODE_1BIT\000"
 16249      4D4F4445 
 16249      5F314249 
 16249      5400
 16250              	.LASF601:
 16251 0291 48434348 		.ascii	"HCCHAR\000"
 16251      415200
 16252              	.LASF446:
 16253 0298 4932435F 		.ascii	"I2C_ACTIVE_RX\000"
 16253      41435449 
ARM GAS  /var/folders/j2/t8glr22d56s93xphj_30s8g80000gn/T//cc8l81ic.s 			page 289


 16253      56455F52 
 16253      5800
 16254              	.LASF36:
 16255 02a6 74687265 		.ascii	"thread_t\000"
 16255      61645F74 
 16255      00
 16256              	.LASF249:
 16257 02af 656C5F65 		.ascii	"el_events\000"
 16257      76656E74 
 16257      7300
 16258              	.LASF489:
 16259 02b9 70776D73 		.ascii	"pwmstate_t\000"
 16259      74617465 
 16259      5F7400
 16260              	.LASF370:
 16261 02c4 736C6565 		.ascii	"sleep_event\000"
 16261      705F6576 
 16261      656E7400 
 16262              	.LASF81:
 16263 02d0 63685F76 		.ascii	"ch_virtual_timers_list\000"
 16263      69727475 
 16263      616C5F74 
 16263      696D6572 
 16263      735F6C69 
 16264              	.LASF272:
 16265 02e7 76656374 		.ascii	"vector\000"
 16265      6F7200
 16266              	.LASF20:
 16267 02ee 696E7433 		.ascii	"int32_t\000"
 16267      325F7400 
 16268              	.LASF460:
 16269 02f6 636C6F63 		.ascii	"clock_speed\000"
 16269      6B5F7370 
 16269      65656400 
 16270              	.LASF35:
 16271 0302 73797374 		.ascii	"systime_t\000"
 16271      696D655F 
 16271      7400
 16272              	.LASF403:
 16273 030c 44414344 		.ascii	"DACD2\000"
 16273      3200
 16274              	.LASF372:
 16275 0312 43414E44 		.ascii	"CANDriver\000"
 16275      72697665 
 16275      7200
 16276              	.LASF236:
 16277 031c 63665F6F 		.ascii	"cf_off_stklimit\000"
 16277      66665F73 
 16277      746B6C69 
 16277      6D697400 
 16278              	.LASF152:
 16279 032c 4D304152 		.ascii	"M0AR\000"
 16279      00
 16280              	.LASF608:
 16281 0331 72657376 		.ascii	"resvd1c\000"
 16281      64316300 
 16282              	.LASF450:
ARM GAS  /var/folders/j2/t8glr22d56s93xphj_30s8g80000gn/T//cc8l81ic.s 			page 290


 16283 0339 69326366 		.ascii	"i2cflags_t\000"
 16283      6C616773 
 16283      5F7400
 16284              	.LASF646:
 16285 0344 4841494E 		.ascii	"HAINT\000"
 16285      5400
 16286              	.LASF783:
 16287 034a 5F646267 		.ascii	"_dbg_check_lock\000"
 16287      5F636865 
 16287      636B5F6C 
 16287      6F636B00 
 16288              	.LASF134:
 16289 035a 46413152 		.ascii	"FA1R\000"
 16289      00
 16290              	.LASF643:
 16291 035f 48464E55 		.ascii	"HFNUM\000"
 16291      4D00
 16292              	.LASF265:
 16293 0365 716E6F74 		.ascii	"qnotify_t\000"
 16293      6966795F 
 16293      7400
 16294              	.LASF325:
 16295 036f 61646373 		.ascii	"adcstate_t\000"
 16295      74617465 
 16295      5F7400
 16296              	.LASF746:
 16297 037a 70776D63 		.ascii	"pwmcfg_right_motor\000"
 16297      66675F72 
 16297      69676874 
 16297      5F6D6F74 
 16297      6F7200
 16298              	.LASF270:
 16299 038d 69736869 		.ascii	"ishift\000"
 16299      667400
 16300              	.LASF420:
 16301 0394 4750545F 		.ascii	"GPT_ONESHOT\000"
 16301      4F4E4553 
 16301      484F5400 
 16302              	.LASF260:
 16303 03a0 715F746F 		.ascii	"q_top\000"
 16303      7000
 16304              	.LASF594:
 16305 03a6 75645F73 		.ascii	"ud_string\000"
 16305      7472696E 
 16305      6700
 16306              	.LASF463:
 16307 03b0 49324344 		.ascii	"I2CDriver\000"
 16307      72697665 
 16307      7200
 16308              	.LASF445:
 16309 03ba 4932435F 		.ascii	"I2C_ACTIVE_TX\000"
 16309      41435449 
 16309      56455F54 
 16309      5800
 16310              	.LASF515:
 16311 03c8 72656164 		.ascii	"read\000"
 16311      00
ARM GAS  /var/folders/j2/t8glr22d56s93xphj_30s8g80000gn/T//cc8l81ic.s 			page 291


 16312              	.LASF451:
 16313 03cd 4F504D4F 		.ascii	"OPMODE_I2C\000"
 16313      44455F49 
 16313      324300
 16314              	.LASF655:
 16315 03d8 72657376 		.ascii	"resvd80C\000"
 16315      64383043 
 16315      00
 16316              	.LASF703:
 16317 03e1 6576656E 		.ascii	"event_cb\000"
 16317      745F6362 
 16317      00
 16318              	.LASF622:
 16319 03ea 474F5447 		.ascii	"GOTGCTL\000"
 16319      43544C00 
 16320              	.LASF597:
 16321 03f2 75736265 		.ascii	"usbepcallback_t\000"
 16321      7063616C 
 16321      6C626163 
 16321      6B5F7400 
 16322              	.LASF449:
 16323 0402 69326361 		.ascii	"i2caddr_t\000"
 16323      6464725F 
 16323      7400
 16324              	.LASF92:
 16325 040c 76746C69 		.ascii	"vtlist\000"
 16325      737400
 16326              	.LASF157:
 16327 0413 54524953 		.ascii	"TRISE\000"
 16327      4500
 16328              	.LASF661:
 16329 0419 72657376 		.ascii	"resvd824\000"
 16329      64383234 
 16329      00
 16330              	.LASF50:
 16331 0422 705F7761 		.ascii	"p_waiting\000"
 16331      6974696E 
 16331      6700
 16332              	.LASF207:
 16333 042c 6B65726E 		.ascii	"kernel_stats_t\000"
 16333      656C5F73 
 16333      74617473 
 16333      5F7400
 16334              	.LASF257:
 16335 043b 715F7761 		.ascii	"q_waiting\000"
 16335      6974696E 
 16335      6700
 16336              	.LASF116:
 16337 0445 43414E5F 		.ascii	"CAN_TxMailBox_TypeDef\000"
 16337      54784D61 
 16337      696C426F 
 16337      785F5479 
 16337      70654465 
 16338              	.LASF91:
 16339 045b 726C6973 		.ascii	"rlist\000"
 16339      7400
 16340              	.LASF59:
ARM GAS  /var/folders/j2/t8glr22d56s93xphj_30s8g80000gn/T//cc8l81ic.s 			page 292


 16341 0461 74687265 		.ascii	"threads_list_t\000"
 16341      6164735F 
 16341      6C697374 
 16341      5F7400
 16342              	.LASF232:
 16343 0470 63665F6F 		.ascii	"cf_off_ctx\000"
 16343      66665F63 
 16343      747800
 16344              	.LASF266:
 16345 047b 696E7075 		.ascii	"input_queue_t\000"
 16345      745F7175 
 16345      6575655F 
 16345      7400
 16346              	.LASF352:
 16347 0489 41444343 		.ascii	"ADCConversionGroup\000"
 16347      6F6E7665 
 16347      7273696F 
 16347      6E47726F 
 16347      757000
 16348              	.LASF654:
 16349 049c 44535453 		.ascii	"DSTS\000"
 16349      00
 16350              	.LASF455:
 16351 04a1 5354445F 		.ascii	"STD_DUTY_CYCLE\000"
 16351      44555459 
 16351      5F435943 
 16351      4C4500
 16352              	.LASF361:
 16353 04b0 43414E5F 		.ascii	"CAN_READY\000"
 16353      52454144 
 16353      5900
 16354              	.LASF234:
 16355 04ba 63665F6F 		.ascii	"cf_off_older\000"
 16355      66665F6F 
 16355      6C646572 
 16355      00
 16356              	.LASF24:
 16357 04c7 72747469 		.ascii	"rttime_t\000"
 16357      6D655F74 
 16357      00
 16358              	.LASF415:
 16359 04d0 45585444 		.ascii	"EXTD1\000"
 16359      3100
 16360              	.LASF688:
 16361 04d6 72787175 		.ascii	"rxqueued\000"
 16361      65756564 
 16361      00
 16362              	.LASF734:
 16363 04df 77614465 		.ascii	"waDeplacement\000"
 16363      706C6163 
 16363      656D656E 
 16363      7400
 16364              	.LASF363:
 16365 04ed 63616E73 		.ascii	"canstate_t\000"
 16365      74617465 
 16365      5F7400
 16366              	.LASF136:
ARM GAS  /var/folders/j2/t8glr22d56s93xphj_30s8g80000gn/T//cc8l81ic.s 			page 293


 16367 04f8 7346696C 		.ascii	"sFilterRegister\000"
 16367      74657252 
 16367      65676973 
 16367      74657200 
 16368              	.LASF750:
 16369 0508 6C656674 		.ascii	"left_motor_set_pos\000"
 16369      5F6D6F74 
 16369      6F725F73 
 16369      65745F70 
 16369      6F7300
 16370              	.LASF660:
 16371 051b 72657376 		.ascii	"resvd820\000"
 16371      64383230 
 16371      00
 16372              	.LASF802:
 16373 0524 5F5F7374 		.ascii	"__stack_chk_fail\000"
 16373      61636B5F 
 16373      63686B5F 
 16373      6661696C 
 16373      00
 16374              	.LASF163:
 16375 0535 52455350 		.ascii	"RESP1\000"
 16375      3100
 16376              	.LASF164:
 16377 053b 52455350 		.ascii	"RESP2\000"
 16377      3200
 16378              	.LASF165:
 16379 0541 52455350 		.ascii	"RESP3\000"
 16379      3300
 16380              	.LASF166:
 16381 0547 52455350 		.ascii	"RESP4\000"
 16381      3400
 16382              	.LASF765:
 16383 054d 72696768 		.ascii	"right_motor_timer_callback\000"
 16383      745F6D6F 
 16383      746F725F 
 16383      74696D65 
 16383      725F6361 
 16384              	.LASF799:
 16385 0568 6C656674 		.ascii	"left_motor_get_pos\000"
 16385      5F6D6F74 
 16385      6F725F67 
 16385      65745F70 
 16385      6F7300
 16386              	.LASF442:
 16387 057b 4932435F 		.ascii	"I2C_UNINIT\000"
 16387      554E494E 
 16387      495400
 16388              	.LASF599:
 16389 0586 75736272 		.ascii	"usbreqhandler_t\000"
 16389      65716861 
 16389      6E646C65 
 16389      725F7400 
 16390              	.LASF323:
 16391 0596 4144435F 		.ascii	"ADC_COMPLETE\000"
 16391      434F4D50 
 16391      4C455445 
ARM GAS  /var/folders/j2/t8glr22d56s93xphj_30s8g80000gn/T//cc8l81ic.s 			page 294


 16391      00
 16392              	.LASF739:
 16393 05a3 5F5F4655 		.ascii	"__FUNCTION__\000"
 16393      4E435449 
 16393      4F4E5F5F 
 16393      00
 16394              	.LASF439:
 16395 05b0 47505443 		.ascii	"GPTConfig\000"
 16395      6F6E6669 
 16395      6700
 16396              	.LASF504:
 16397 05ba 53445F55 		.ascii	"SD_UNINIT\000"
 16397      4E494E49 
 16397      5400
 16398              	.LASF764:
 16399 05c4 6C656674 		.ascii	"left_motor_timer_callback\000"
 16399      5F6D6F74 
 16399      6F725F74 
 16399      696D6572 
 16399      5F63616C 
 16400              	.LASF29:
 16401 05de 74707269 		.ascii	"tprio_t\000"
 16401      6F5F7400 
 16402              	.LASF203:
 16403 05e6 6E5F6972 		.ascii	"n_irq\000"
 16403      7100
 16404              	.LASF483:
 16405 05ec 69327370 		.ascii	"i2spr\000"
 16405      7200
 16406              	.LASF781:
 16407 05f2 63685379 		.ascii	"chSysHalt\000"
 16407      7348616C 
 16407      7400
 16408              	.LASF664:
 16409 05fc 72657376 		.ascii	"resvd830\000"
 16409      64383330 
 16409      00
 16410              	.LASF444:
 16411 0605 4932435F 		.ascii	"I2C_READY\000"
 16411      52454144 
 16411      5900
 16412              	.LASF666:
 16413 060f 72657376 		.ascii	"resvd838\000"
 16413      64383338 
 16413      00
 16414              	.LASF458:
 16415 0618 69326364 		.ascii	"i2cdutycycle_t\000"
 16415      75747963 
 16415      79636C65 
 16415      5F7400
 16416              	.LASF667:
 16417 0627 72657376 		.ascii	"resvd83C\000"
 16417      64383343 
 16417      00
 16418              	.LASF337:
 16419 0630 74687265 		.ascii	"thread\000"
 16419      616400
ARM GAS  /var/folders/j2/t8glr22d56s93xphj_30s8g80000gn/T//cc8l81ic.s 			page 295


 16420              	.LASF382:
 16421 0637 72656773 		.ascii	"regshift\000"
 16421      68696674 
 16421      00
 16422              	.LASF562:
 16423 0640 73657475 		.ascii	"setup\000"
 16423      7000
 16424              	.LASF541:
 16425 0646 5350495F 		.ascii	"SPI_UNINIT\000"
 16425      554E494E 
 16425      495400
 16426              	.LASF615:
 16427 0651 44545846 		.ascii	"DTXFSTS\000"
 16427      53545300 
 16428              	.LASF285:
 16429 0659 626C6B5F 		.ascii	"blk_size\000"
 16429      73697A65 
 16429      00
 16430              	.LASF556:
 16431 0662 696E5F70 		.ascii	"in_params\000"
 16431      6172616D 
 16431      7300
 16432              	.LASF429:
 16433 066c 43434552 		.ascii	"CCER\000"
 16433      00
 16434              	.LASF179:
 16435 0671 49325350 		.ascii	"I2SPR\000"
 16435      5200
 16436              	.LASF486:
 16437 0677 50574D5F 		.ascii	"PWM_UNINIT\000"
 16437      554E494E 
 16437      495400
 16438              	.LASF198:
 16439 0682 62657374 		.ascii	"best\000"
 16439      00
 16440              	.LASF624:
 16441 0687 47414842 		.ascii	"GAHBCFG\000"
 16441      43464700 
 16442              	.LASF392:
 16443 068f 64616363 		.ascii	"daccallback_t\000"
 16443      616C6C62 
 16443      61636B5F 
 16443      7400
 16444              	.LASF668:
 16445 069d 72657376 		.ascii	"resvd840\000"
 16445      64383430 
 16445      00
 16446              	.LASF175:
 16447 06a6 43524350 		.ascii	"CRCPR\000"
 16447      5200
 16448              	.LASF280:
 16449 06ac 424C4B5F 		.ascii	"BLK_READY\000"
 16449      52454144 
 16449      5900
 16450              	.LASF7:
 16451 06b6 5F5F696E 		.ascii	"__int16_t\000"
 16451      7431365F 
ARM GAS  /var/folders/j2/t8glr22d56s93xphj_30s8g80000gn/T//cc8l81ic.s 			page 296


 16451      7400
 16452              	.LASF9:
 16453 06c0 5F5F7569 		.ascii	"__uint16_t\000"
 16453      6E743136 
 16453      5F7400
 16454              	.LASF419:
 16455 06cb 4750545F 		.ascii	"GPT_CONTINUOUS\000"
 16455      434F4E54 
 16455      494E554F 
 16455      555300
 16456              	.LASF682:
 16457 06da 74787175 		.ascii	"txqueued\000"
 16457      65756564 
 16457      00
 16458              	.LASF52:
 16459 06e3 705F6D73 		.ascii	"p_msg\000"
 16459      6700
 16460              	.LASF621:
 16461 06e9 73746D33 		.ascii	"stm32_otg_out_ep_t\000"
 16461      325F6F74 
 16461      675F6F75 
 16461      745F6570 
 16461      5F7400
 16462              	.LASF630:
 16463 06fc 47525853 		.ascii	"GRXSTSP\000"
 16463      54535000 
 16464              	.LASF629:
 16465 0704 47525853 		.ascii	"GRXSTSR\000"
 16465      54535200 
 16466              	.LASF209:
 16467 070c 65786974 		.ascii	"exitcode\000"
 16467      636F6465 
 16467      00
 16468              	.LASF153:
 16469 0715 4D314152 		.ascii	"M1AR\000"
 16469      00
 16470              	.LASF569:
 16471 071a 77616974 		.ascii	"wait\000"
 16471      00
 16472              	.LASF154:
 16473 071f 444D415F 		.ascii	"DMA_Stream_TypeDef\000"
 16473      53747265 
 16473      616D5F54 
 16473      79706544 
 16473      656600
 16474              	.LASF576:
 16475 0732 5553425F 		.ascii	"USB_ACTIVE\000"
 16475      41435449 
 16475      564500
 16476              	.LASF721:
 16477 073d 73746570 		.ascii	"stepper_motor_s\000"
 16477      7065725F 
 16477      6D6F746F 
 16477      725F7300 
 16478              	.LASF617:
 16479 074d 73746D33 		.ascii	"stm32_otg_in_ep_t\000"
 16479      325F6F74 
ARM GAS  /var/folders/j2/t8glr22d56s93xphj_30s8g80000gn/T//cc8l81ic.s 			page 297


 16479      675F696E 
 16479      5F65705F 
 16479      7400
 16480              	.LASF690:
 16481 075f 7278636E 		.ascii	"rxcnt\000"
 16481      7400
 16482              	.LASF319:
 16483 0765 4144435F 		.ascii	"ADC_UNINIT\000"
 16483      554E494E 
 16483      495400
 16484              	.LASF466:
 16485 0770 7278646D 		.ascii	"rxdmamode\000"
 16485      616D6F64 
 16485      6500
 16486              	.LASF411:
 16487 077a 6D6F6465 		.ascii	"mode\000"
 16487      00
 16488              	.LASF222:
 16489 077f 6D5F636E 		.ascii	"m_cnt\000"
 16489      7400
 16490              	.LASF408:
 16491 0785 45585444 		.ascii	"EXTDriver\000"
 16491      72697665 
 16491      7200
 16492              	.LASF237:
 16493 078f 63665F6F 		.ascii	"cf_off_state\000"
 16493      66665F73 
 16493      74617465 
 16493      00
 16494              	.LASF478:
 16495 079c 69327363 		.ascii	"i2scallback_t\000"
 16495      616C6C62 
 16495      61636B5F 
 16495      7400
 16496              	.LASF797:
 16497 07aa 2F557365 		.ascii	"/Users/BatouKF/Desktop/muinf/TP4_CamReg/CamReg_corr"
 16497      72732F42 
 16497      61746F75 
 16497      4B462F44 
 16497      65736B74 
 16498 07dd 65637469 		.ascii	"ection/\000"
 16498      6F6E2F00 
 16499              	.LASF467:
 16500 07e5 7478646D 		.ascii	"txdmamode\000"
 16500      616D6F64 
 16500      6500
 16501              	.LASF435:
 16502 07ef 67707466 		.ascii	"gptfreq_t\000"
 16502      7265715F 
 16502      7400
 16503              	.LASF675:
 16504 07f9 72785F66 		.ascii	"rx_fifo_size\000"
 16504      69666F5F 
 16504      73697A65 
 16504      00
 16505              	.LASF184:
 16506 0806 73746B61 		.ascii	"stkalign_t\000"
ARM GAS  /var/folders/j2/t8glr22d56s93xphj_30s8g80000gn/T//cc8l81ic.s 			page 298


 16506      6C69676E 
 16506      5F7400
 16507              	.LASF390:
 16508 0811 4441435F 		.ascii	"DAC_ERR_UNDERFLOW\000"
 16508      4552525F 
 16508      554E4445 
 16508      52464C4F 
 16508      5700
 16509              	.LASF371:
 16510 0823 77616B65 		.ascii	"wakeup_event\000"
 16510      75705F65 
 16510      76656E74 
 16510      00
 16511              	.LASF722:
 16512 0830 64697265 		.ascii	"direction\000"
 16512      6374696F 
 16512      6E00
 16513              	.LASF76:
 16514 083a 76745F70 		.ascii	"vt_prev\000"
 16514      72657600 
 16515              	.LASF345:
 16516 0842 656E645F 		.ascii	"end_cb\000"
 16516      636200
 16517              	.LASF778:
 16518 0849 63685468 		.ascii	"chThdCreateStatic\000"
 16518      64437265 
 16518      61746553 
 16518      74617469 
 16518      6300
 16519              	.LASF693:
 16520 085b 73657475 		.ascii	"setup_cb\000"
 16520      705F6362 
 16520      00
 16521              	.LASF6:
 16522 0864 756E7369 		.ascii	"unsigned char\000"
 16522      676E6564 
 16522      20636861 
 16522      7200
 16523              	.LASF173:
 16524 0872 4649464F 		.ascii	"FIFO\000"
 16524      00
 16525              	.LASF194:
 16526 0877 74625F62 		.ascii	"tb_buffer\000"
 16526      75666665 
 16526      7200
 16527              	.LASF365:
 16528 0881 74787175 		.ascii	"txqueue\000"
 16528      65756500 
 16529              	.LASF217:
 16530 0889 735F636E 		.ascii	"s_cnt\000"
 16530      7400
 16531              	.LASF64:
 16532 088f 72656164 		.ascii	"ready_list_t\000"
 16532      795F6C69 
 16532      73745F74 
 16532      00
 16533              	.LASF60:
ARM GAS  /var/folders/j2/t8glr22d56s93xphj_30s8g80000gn/T//cc8l81ic.s 			page 299


 16534 089c 63685F74 		.ascii	"ch_thread\000"
 16534      68726561 
 16534      6400
 16535              	.LASF453:
 16536 08a6 4F504D4F 		.ascii	"OPMODE_SMBUS_HOST\000"
 16536      44455F53 
 16536      4D425553 
 16536      5F484F53 
 16536      5400
 16537              	.LASF571:
 16538 08b8 75736265 		.ascii	"usbep_t\000"
 16538      705F7400 
 16539              	.LASF404:
 16540 08c0 4558545F 		.ascii	"EXT_UNINIT\000"
 16540      554E494E 
 16540      495400
 16541              	.LASF362:
 16542 08cb 43414E5F 		.ascii	"CAN_SLEEP\000"
 16542      534C4545 
 16542      5000
 16543              	.LASF785:
 16544 08d5 6765745F 		.ascii	"get_calibrated_prox\000"
 16544      63616C69 
 16544      62726174 
 16544      65645F70 
 16544      726F7800 
 16545              	.LASF190:
 16546 08e9 73655F73 		.ascii	"se_state\000"
 16546      74617465 
 16546      00
 16547              	.LASF358:
 16548 08f2 43414E5F 		.ascii	"CAN_UNINIT\000"
 16548      554E494E 
 16548      495400
 16549              	.LASF540:
 16550 08fd 53444344 		.ascii	"SDCD1\000"
 16550      3100
 16551              	.LASF83:
 16552 0903 73797374 		.ascii	"system_debug_t\000"
 16552      656D5F64 
 16552      65627567 
 16552      5F7400
 16553              	.LASF141:
 16554 0912 44485238 		.ascii	"DHR8R1\000"
 16554      523100
 16555              	.LASF144:
 16556 0919 44485238 		.ascii	"DHR8R2\000"
 16556      523200
 16557              	.LASF426:
 16558 0920 44494552 		.ascii	"DIER\000"
 16558      00
 16559              	.LASF738:
 16560 0925 636C6967 		.ascii	"clignotant_start\000"
 16560      6E6F7461 
 16560      6E745F73 
 16560      74617274 
 16560      00
ARM GAS  /var/folders/j2/t8glr22d56s93xphj_30s8g80000gn/T//cc8l81ic.s 			page 300


 16561              	.LASF40:
 16562 0936 705F6374 		.ascii	"p_ctx\000"
 16562      7800
 16563              	.LASF79:
 16564 093c 76745F70 		.ascii	"vt_par\000"
 16564      617200
 16565              	.LASF100:
 16566 0943 4A4F4652 		.ascii	"JOFR1\000"
 16566      3100
 16567              	.LASF101:
 16568 0949 4A4F4652 		.ascii	"JOFR2\000"
 16568      3200
 16569              	.LASF102:
 16570 094f 4A4F4652 		.ascii	"JOFR3\000"
 16570      3300
 16571              	.LASF103:
 16572 0955 4A4F4652 		.ascii	"JOFR4\000"
 16572      3400
 16573              	.LASF71:
 16574 095b 725F6375 		.ascii	"r_current\000"
 16574      7272656E 
 16574      7400
 16575              	.LASF177:
 16576 0965 54584352 		.ascii	"TXCRCR\000"
 16576      435200
 16577              	.LASF397:
 16578 096c 64616364 		.ascii	"dacdhrmode_t\000"
 16578      68726D6F 
 16578      64655F74 
 16578      00
 16579              	.LASF339:
 16580 0979 646D6173 		.ascii	"dmastp\000"
 16580      747000
 16581              	.LASF457:
 16582 0980 46415354 		.ascii	"FAST_DUTY_CYCLE_16_9\000"
 16582      5F445554 
 16582      595F4359 
 16582      434C455F 
 16582      31365F39 
 16583              	.LASF22:
 16584 0995 75696E74 		.ascii	"uint64_t\000"
 16584      36345F74 
 16584      00
 16585              	.LASF204:
 16586 099e 6E5F6374 		.ascii	"n_ctxswc\000"
 16586      78737763 
 16586      00
 16587              	.LASF243:
 16588 09a7 63685F64 		.ascii	"ch_debug\000"
 16588      65627567 
 16588      00
 16589              	.LASF400:
 16590 09b0 696E6974 		.ascii	"init\000"
 16590      00
 16591              	.LASF720:
 16592 09b5 4241434B 		.ascii	"BACKWARD\000"
 16592      57415244 
ARM GAS  /var/folders/j2/t8glr22d56s93xphj_30s8g80000gn/T//cc8l81ic.s 			page 301


 16592      00
 16593              	.LASF128:
 16594 09be 464D3152 		.ascii	"FM1R\000"
 16594      00
 16595              	.LASF315:
 16596 09c3 50414C43 		.ascii	"PALConfig\000"
 16596      6F6E6669 
 16596      6700
 16597              	.LASF744:
 16598 09cd 4D616E6F 		.ascii	"Manoeuvre\000"
 16598      65757672 
 16598      6500
 16599              	.LASF684:
 16600 09d7 7478636E 		.ascii	"txcnt\000"
 16600      7400
 16601              	.LASF598:
 16602 09dd 75736265 		.ascii	"usbeventcb_t\000"
 16602      76656E74 
 16602      63625F74 
 16602      00
 16603              	.LASF277:
 16604 09ea 424C4B5F 		.ascii	"BLK_ACTIVE\000"
 16604      41435449 
 16604      564500
 16605              	.LASF245:
 16606 09f5 6576656E 		.ascii	"event_listener_t\000"
 16606      745F6C69 
 16606      7374656E 
 16606      65725F74 
 16606      00
 16607              	.LASF725:
 16608 0a06 75706461 		.ascii	"update\000"
 16608      746500
 16609              	.LASF676:
 16610 0a0d 6F74675F 		.ascii	"otg_ram_size\000"
 16610      72616D5F 
 16610      73697A65 
 16610      00
 16611              	.LASF678:
 16612 0a1a 73746D33 		.ascii	"stm32_otg_params_t\000"
 16612      325F6F74 
 16612      675F7061 
 16612      72616D73 
 16612      5F7400
 16613              	.LASF671:
 16614 0a2d 72657376 		.ascii	"resvdD00\000"
 16614      64443030 
 16614      00
 16615              	.LASF176:
 16616 0a36 52584352 		.ascii	"RXCRCR\000"
 16616      435200
 16617              	.LASF687:
 16618 0a3d 72786275 		.ascii	"rxbuf\000"
 16618      6600
 16619              	.LASF627:
 16620 0a43 47494E54 		.ascii	"GINTSTS\000"
 16620      53545300 
ARM GAS  /var/folders/j2/t8glr22d56s93xphj_30s8g80000gn/T//cc8l81ic.s 			page 302


 16621              	.LASF218:
 16622 0a4b 63685F6D 		.ascii	"ch_mutex\000"
 16622      75746578 
 16622      00
 16623              	.LASF368:
 16624 0a54 7478656D 		.ascii	"txempty_event\000"
 16624      7074795F 
 16624      6576656E 
 16624      7400
 16625              	.LASF490:
 16626 0a62 50574D44 		.ascii	"PWMDriver\000"
 16626      72697665 
 16626      7200
 16627              	.LASF312:
 16628 0a6c 50474461 		.ascii	"PGData\000"
 16628      746100
 16629              	.LASF499:
 16630 0a73 50574D43 		.ascii	"PWMConfig\000"
 16630      6F6E6669 
 16630      6700
 16631              	.LASF736:
 16632 0a7d 6D616E6F 		.ascii	"manoeuvre_start\000"
 16632      65757672 
 16632      655F7374 
 16632      61727400 
 16633              	.LASF754:
 16634 0a8d 6D6F746F 		.ascii	"motor_set_speed\000"
 16634      725F7365 
 16634      745F7370 
 16634      65656400 
 16635              	.LASF777:
 16636 0a9d 76616C75 		.ascii	"value\000"
 16636      6500
 16637              	.LASF233:
 16638 0aa3 63665F6F 		.ascii	"cf_off_newer\000"
 16638      66665F6E 
 16638      65776572 
 16638      00
 16639              	.LASF656:
 16640 0ab0 44494550 		.ascii	"DIEPMSK\000"
 16640      4D534B00 
 16641              	.LASF623:
 16642 0ab8 474F5447 		.ascii	"GOTGINT\000"
 16642      494E5400 
 16643              	.LASF695:
 16644 0ac0 6F75745F 		.ascii	"out_cb\000"
 16644      636200
 16645              	.LASF647:
 16646 0ac7 4841494E 		.ascii	"HAINTMSK\000"
 16646      544D534B 
 16646      00
 16647              	.LASF557:
 16648 0ad0 6F75745F 		.ascii	"out_params\000"
 16648      70617261 
 16648      6D7300
 16649              	.LASF189:
 16650 0adb 73655F77 		.ascii	"se_wtobjp\000"
ARM GAS  /var/folders/j2/t8glr22d56s93xphj_30s8g80000gn/T//cc8l81ic.s 			page 303


 16650      746F626A 
 16650      7000
 16651              	.LASF107:
 16652 0ae5 4A535152 		.ascii	"JSQR\000"
 16652      00
 16653              	.LASF438:
 16654 0aea 64696572 		.ascii	"dier\000"
 16654      00
 16655              	.LASF535:
 16656 0aef 69735F70 		.ascii	"is_protected\000"
 16656      726F7465 
 16656      63746564 
 16656      00
 16657              	.LASF73:
 16658 0afc 76697274 		.ascii	"virtual_timer_t\000"
 16658      75616C5F 
 16658      74696D65 
 16658      725F7400 
 16659              	.LASF697:
 16660 0b0c 6F75745F 		.ascii	"out_maxsize\000"
 16660      6D617873 
 16660      697A6500 
 16661              	.LASF68:
 16662 0b18 725F6374 		.ascii	"r_ctx\000"
 16662      7800
 16663              	.LASF75:
 16664 0b1e 76745F6E 		.ascii	"vt_next\000"
 16664      65787400 
 16665              	.LASF472:
 16666 0b26 4932535F 		.ascii	"I2S_STOP\000"
 16666      53544F50 
 16666      00
 16667              	.LASF487:
 16668 0b2f 50574D5F 		.ascii	"PWM_STOP\000"
 16668      53544F50 
 16668      00
 16669              	.LASF758:
 16670 0b38 6C656674 		.ascii	"left_motor_enable_power_save\000"
 16670      5F6D6F74 
 16670      6F725F65 
 16670      6E61626C 
 16670      655F706F 
 16671              	.LASF23:
 16672 0b55 7274636E 		.ascii	"rtcnt_t\000"
 16672      745F7400 
 16673              	.LASF338:
 16674 0b5d 6D757465 		.ascii	"mutex\000"
 16674      7800
 16675              	.LASF481:
 16676 0b63 73697A65 		.ascii	"size\000"
 16676      00
 16677              	.LASF717:
 16678 0b68 73746570 		.ascii	"step_table\000"
 16678      5F746162 
 16678      6C6500
 16679              	.LASF386:
 16680 0b73 44414344 		.ascii	"DACDriver\000"
ARM GAS  /var/folders/j2/t8glr22d56s93xphj_30s8g80000gn/T//cc8l81ic.s 			page 304


 16680      72697665 
 16680      7200
 16681              	.LASF402:
 16682 0b7d 44414343 		.ascii	"DACConfig\000"
 16682      6F6E6669 
 16682      6700
 16683              	.LASF568:
 16684 0b87 74787065 		.ascii	"txpending\000"
 16684      6E64696E 
 16684      6700
 16685              	.LASF423:
 16686 0b91 636C6F63 		.ascii	"clock\000"
 16686      6B00
 16687              	.LASF550:
 16688 0b97 73737061 		.ascii	"sspad\000"
 16688      6400
 16689              	.LASF289:
 16690 0b9d 636C6561 		.ascii	"clear\000"
 16690      7200
 16691              	.LASF433:
 16692 0ba3 43435852 		.ascii	"CCXR\000"
 16692      00
 16693              	.LASF137:
 16694 0ba8 43414E5F 		.ascii	"CAN_TypeDef\000"
 16694      54797065 
 16694      44656600 
 16695              	.LASF191:
 16696 0bb4 63685F73 		.ascii	"ch_swc_event_t\000"
 16696      77635F65 
 16696      76656E74 
 16696      5F7400
 16697              	.LASF505:
 16698 0bc3 53445F53 		.ascii	"SD_STOP\000"
 16698      544F5000 
 16699              	.LASF602:
 16700 0bcb 72657376 		.ascii	"resvd8\000"
 16700      643800
 16701              	.LASF4:
 16702 0bd2 73697A65 		.ascii	"size_t\000"
 16702      5F7400
 16703              	.LASF94:
 16704 0bd9 6B65726E 		.ascii	"kernel_stats\000"
 16704      656C5F73 
 16704      74617473 
 16704      00
 16705              	.LASF669:
 16706 0be6 72657376 		.ascii	"resvd880\000"
 16706      64383830 
 16706      00
 16707              	.LASF17:
 16708 0bef 75696E74 		.ascii	"uint8_t\000"
 16708      385F7400 
 16709              	.LASF606:
 16710 0bf7 72657376 		.ascii	"resvd14\000"
 16710      64313400 
 16711              	.LASF607:
 16712 0bff 72657376 		.ascii	"resvd18\000"
ARM GAS  /var/folders/j2/t8glr22d56s93xphj_30s8g80000gn/T//cc8l81ic.s 			page 305


 16712      64313800 
 16713              	.LASF70:
 16714 0c07 725F6F6C 		.ascii	"r_older\000"
 16714      64657200 
 16715              	.LASF38:
 16716 0c0f 705F7072 		.ascii	"p_prev\000"
 16716      657600
 16717              	.LASF235:
 16718 0c16 63665F6F 		.ascii	"cf_off_name\000"
 16718      66665F6E 
 16718      616D6500 
 16719              	.LASF498:
 16720 0c22 50574D43 		.ascii	"PWMChannelConfig\000"
 16720      68616E6E 
 16720      656C436F 
 16720      6E666967 
 16720      00
 16721              	.LASF497:
 16722 0c33 70776D63 		.ascii	"pwmcnt_t\000"
 16722      6E745F74 
 16722      00
 16723              	.LASF665:
 16724 0c3c 44494550 		.ascii	"DIEPEMPMSK\000"
 16724      454D504D 
 16724      534B00
 16725              	.LASF610:
 16726 0c47 44494550 		.ascii	"DIEPCTL\000"
 16726      43544C00 
 16727              	.LASF251:
 16728 0c4f 656C5F77 		.ascii	"el_wflags\000"
 16728      666C6167 
 16728      7300
 16729              	.LASF566:
 16730 0c59 6F746770 		.ascii	"otgparams\000"
 16730      6172616D 
 16730      7300
 16731              	.LASF192:
 16732 0c63 74625F73 		.ascii	"tb_size\000"
 16732      697A6500 
 16733              	.LASF309:
 16734 0c6b 50444461 		.ascii	"PDData\000"
 16734      746100
 16735              	.LASF530:
 16736 0c72 73637261 		.ascii	"scratchpad\000"
 16736      74636870 
 16736      616400
 16737              	.LASF699:
 16738 0c7d 6F75745F 		.ascii	"out_state\000"
 16738      73746174 
 16738      6500
 16739              	.LASF255:
 16740 0c87 696F5F71 		.ascii	"io_queue_t\000"
 16740      75657565 
 16740      5F7400
 16741              	.LASF546:
 16742 0c92 73706973 		.ascii	"spistate_t\000"
 16742      74617465 
ARM GAS  /var/folders/j2/t8glr22d56s93xphj_30s8g80000gn/T//cc8l81ic.s 			page 306


 16742      5F7400
 16743              	.LASF443:
 16744 0c9d 4932435F 		.ascii	"I2C_STOP\000"
 16744      53544F50 
 16744      00
 16745              	.LASF465:
 16746 0ca6 61646472 		.ascii	"addr\000"
 16746      00
 16747              	.LASF122:
 16748 0cab 52463052 		.ascii	"RF0R\000"
 16748      00
 16749              	.LASF328:
 16750 0cb0 4144435F 		.ascii	"ADC_ERR_DMAFAILURE\000"
 16750      4552525F 
 16750      444D4146 
 16750      41494C55 
 16750      524500
 16751              	.LASF544:
 16752 0cc3 5350495F 		.ascii	"SPI_ACTIVE\000"
 16752      41435449 
 16752      564500
 16753              	.LASF412:
 16754 0cce 45585443 		.ascii	"EXTChannelConfig\000"
 16754      68616E6E 
 16754      656C436F 
 16754      6E666967 
 16754      00
 16755              	.LASF292:
 16756 0cdf 4F535045 		.ascii	"OSPEEDR\000"
 16756      45445200 
 16757              	.LASF376:
 16758 0ce7 4441435F 		.ascii	"DAC_READY\000"
 16758      52454144 
 16758      5900
 16759              	.LASF634:
 16760 0cf1 72657376 		.ascii	"resvd30\000"
 16760      64333000 
 16761              	.LASF635:
 16762 0cf9 72657376 		.ascii	"resvd34\000"
 16762      64333400 
 16763              	.LASF663:
 16764 0d01 44564255 		.ascii	"DVBUSPULSE\000"
 16764      5350554C 
 16764      534500
 16765              	.LASF276:
 16766 0d0c 424C4B5F 		.ascii	"BLK_STOP\000"
 16766      53544F50 
 16766      00
 16767              	.LASF513:
 16768 0d15 53657269 		.ascii	"SerialDriverVMT\000"
 16768      616C4472 
 16768      69766572 
 16768      564D5400 
 16769              	.LASF584:
 16770 0d25 5553425F 		.ascii	"USB_EP0_ERROR\000"
 16770      4550305F 
 16770      4552524F 
ARM GAS  /var/folders/j2/t8glr22d56s93xphj_30s8g80000gn/T//cc8l81ic.s 			page 307


 16770      5200
 16771              	.LASF536:
 16772 0d33 636F6E6E 		.ascii	"connect\000"
 16772      65637400 
 16773              	.LASF123:
 16774 0d3b 52463152 		.ascii	"RF1R\000"
 16774      00
 16775              	.LASF331:
 16776 0d40 41444344 		.ascii	"ADCDriver\000"
 16776      72697665 
 16776      7200
 16777              	.LASF677:
 16778 0d4a 6E756D5F 		.ascii	"num_endpoints\000"
 16778      656E6470 
 16778      6F696E74 
 16778      7300
 16779              	.LASF354:
 16780 0d58 41444343 		.ascii	"ADCConfig\000"
 16780      6F6E6669 
 16780      6700
 16781              	.LASF685:
 16782 0d62 746F7473 		.ascii	"totsize\000"
 16782      697A6500 
 16783              	.LASF506:
 16784 0d6a 53445F52 		.ascii	"SD_READY\000"
 16784      45414459 
 16784      00
 16785              	.LASF600:
 16786 0d73 75736267 		.ascii	"usbgetdescriptor_t\000"
 16786      65746465 
 16786      73637269 
 16786      70746F72 
 16786      5F7400
 16787              	.LASF795:
 16788 0d86 474E5520 		.ascii	"GNU C11 7.2.1 20170904 (release) [ARM/embedded-7-br"
 16788      43313120 
 16788      372E322E 
 16788      31203230 
 16788      31373039 
 16789 0db9 616E6368 		.ascii	"anch revision 255204] -mcpu=cortex-m4 -mfloat-abi=h"
 16789      20726576 
 16789      6973696F 
 16789      6E203235 
 16789      35323034 
 16790 0dec 61726420 		.ascii	"ard -mfpu=fpv4-sp-d16 -mno-thumb-interwork -mthumb "
 16790      2D6D6670 
 16790      753D6670 
 16790      76342D73 
 16790      702D6431 
 16791 0e1f 2D676764 		.ascii	"-ggdb -O2 -fomit-frame-pointer -falign-functions=16"
 16791      62202D4F 
 16791      32202D66 
 16791      6F6D6974 
 16791      2D667261 
 16792 0e52 202D666E 		.ascii	" -fno-strict-aliasing -fstack-protector-all -ffunct"
 16792      6F2D7374 
 16792      72696374 
ARM GAS  /var/folders/j2/t8glr22d56s93xphj_30s8g80000gn/T//cc8l81ic.s 			page 308


 16792      2D616C69 
 16792      6173696E 
 16793 0e85 696F6E2D 		.ascii	"ion-sections -fdata-sections -fno-common -fsingle-p"
 16793      73656374 
 16793      696F6E73 
 16793      202D6664 
 16793      6174612D 
 16794 0eb8 72656369 		.ascii	"recision-constant\000"
 16794      73696F6E 
 16794      2D636F6E 
 16794      7374616E 
 16794      7400
 16795              	.LASF379:
 16796 0eca 4441435F 		.ascii	"DAC_ERROR\000"
 16796      4552524F 
 16796      5200
 16797              	.LASF791:
 16798 0ed4 70776D43 		.ascii	"pwmChangePeriod\000"
 16798      68616E67 
 16798      65506572 
 16798      696F6400 
 16799              	.LASF579:
 16800 0ee4 5553425F 		.ascii	"USB_EP0_TX\000"
 16800      4550305F 
 16800      545800
 16801              	.LASF558:
 16802 0eef 65703073 		.ascii	"ep0state\000"
 16802      74617465 
 16802      00
 16803              	.LASF786:
 16804 0ef8 63685468 		.ascii	"chThdSleep\000"
 16804      64536C65 
 16804      657000
 16805              	.LASF269:
 16806 0f03 69666372 		.ascii	"ifcr\000"
 16806      00
 16807              	.LASF471:
 16808 0f08 4932535F 		.ascii	"I2S_UNINIT\000"
 16808      554E494E 
 16808      495400
 16809              	.LASF298:
 16810 0f13 73746D33 		.ascii	"stm32_gpio_t\000"
 16810      325F6770 
 16810      696F5F74 
 16810      00
 16811              	.LASF208:
 16812 0f20 7264796D 		.ascii	"rdymsg\000"
 16812      736700
 16813              	.LASF488:
 16814 0f27 50574D5F 		.ascii	"PWM_READY\000"
 16814      52454144 
 16814      5900
 16815              	.LASF113:
 16816 0f31 54445452 		.ascii	"TDTR\000"
 16816      00
 16817              	.LASF121:
 16818 0f36 43414E5F 		.ascii	"CAN_FilterRegister_TypeDef\000"
ARM GAS  /var/folders/j2/t8glr22d56s93xphj_30s8g80000gn/T//cc8l81ic.s 			page 309


 16818      46696C74 
 16818      65725265 
 16818      67697374 
 16818      65725F54 
 16819              	.LASF369:
 16820 0f51 6572726F 		.ascii	"error_event\000"
 16820      725F6576 
 16820      656E7400 
 16821              	.LASF344:
 16822 0f5d 6E756D5F 		.ascii	"num_channels\000"
 16822      6368616E 
 16822      6E656C73 
 16822      00
 16823              	.LASF637:
 16824 0f6a 72657376 		.ascii	"resvd58\000"
 16824      64353800 
 16825              	.LASF686:
 16826 0f72 55534249 		.ascii	"USBInEndpointState\000"
 16826      6E456E64 
 16826      706F696E 
 16826      74537461 
 16826      746500
 16827              	.LASF39:
 16828 0f85 705F7072 		.ascii	"p_prio\000"
 16828      696F00
 16829              	.LASF256:
 16830 0f8c 696F5F71 		.ascii	"io_queue\000"
 16830      75657565 
 16830      00
 16831              	.LASF306:
 16832 0f95 50414461 		.ascii	"PAData\000"
 16832      746100
 16833              	.LASF15:
 16834 0f9c 5F5F7569 		.ascii	"__uint64_t\000"
 16834      6E743634 
 16834      5F7400
 16835              	.LASF493:
 16836 0fa7 70776D63 		.ascii	"pwmcallback_t\000"
 16836      616C6C62 
 16836      61636B5F 
 16836      7400
 16837              	.LASF387:
 16838 0fb5 70617261 		.ascii	"params\000"
 16838      6D7300
 16839              	.LASF583:
 16840 0fbc 5553425F 		.ascii	"USB_EP0_SENDING_STS\000"
 16840      4550305F 
 16840      53454E44 
 16840      494E475F 
 16840      53545300 
 16841              	.LASF729:
 16842 0fd0 72696768 		.ascii	"right_motor\000"
 16842      745F6D6F 
 16842      746F7200 
 16843              	.LASF741:
 16844 0fdc 4465706C 		.ascii	"Deplacement\000"
 16844      6163656D 
ARM GAS  /var/folders/j2/t8glr22d56s93xphj_30s8g80000gn/T//cc8l81ic.s 			page 310


 16844      656E7400 
 16845              	.LASF448:
 16846 0fe8 69326373 		.ascii	"i2cstate_t\000"
 16846      74617465 
 16846      5F7400
 16847              	.LASF585:
 16848 0ff3 75736265 		.ascii	"usbep0state_t\000"
 16848      70307374 
 16848      6174655F 
 16848      7400
 16849              	.LASF391:
 16850 1001 64616365 		.ascii	"dacerror_t\000"
 16850      72726F72 
 16850      5F7400
 16851              	.LASF125:
 16852 100c 7354784D 		.ascii	"sTxMailBox\000"
 16852      61696C42 
 16852      6F7800
 16853              	.LASF326:
 16854 1017 61646373 		.ascii	"adcsample_t\000"
 16854      616D706C 
 16854      655F7400 
 16855              	.LASF424:
 16856 1023 67707463 		.ascii	"gptcallback_t\000"
 16856      616C6C62 
 16856      61636B5F 
 16856      7400
 16857              	.LASF259:
 16858 1031 715F6275 		.ascii	"q_buffer\000"
 16858      66666572 
 16858      00
 16859              	.LASF37:
 16860 103a 705F6E65 		.ascii	"p_next\000"
 16860      787400
 16861              	.LASF470:
 16862 1041 49324344 		.ascii	"I2CD1\000"
 16862      3100
 16863              	.LASF611:
 16864 1047 72657376 		.ascii	"resvd4\000"
 16864      643400
 16865              	.LASF553:
 16866 104e 55534244 		.ascii	"USBDriver\000"
 16866      72697665 
 16866      7200
 16867              	.LASF670:
 16868 1058 72657376 		.ascii	"resvd8C0\000"
 16868      64384330 
 16868      00
 16869              	.LASF707:
 16870 1061 55534243 		.ascii	"USBConfig\000"
 16870      6F6E6669 
 16870      6700
 16871              	.LASF613:
 16872 106b 72657376 		.ascii	"resvdC\000"
 16872      644300
 16873              	.LASF500:
 16874 1072 50574D44 		.ascii	"PWMD2\000"
ARM GAS  /var/folders/j2/t8glr22d56s93xphj_30s8g80000gn/T//cc8l81ic.s 			page 311


 16874      3200
 16875              	.LASF501:
 16876 1078 50574D44 		.ascii	"PWMD3\000"
 16876      3300
 16877              	.LASF502:
 16878 107e 50574D44 		.ascii	"PWMD4\000"
 16878      3400
 16879              	.LASF503:
 16880 1084 50574D44 		.ascii	"PWMD5\000"
 16880      3500
 16881              	.LASF511:
 16882 108a 6F717565 		.ascii	"oqueue\000"
 16882      756500
 16883              	.LASF27:
 16884 1091 74726566 		.ascii	"trefs_t\000"
 16884      735F7400 
 16885              	.LASF56:
 16886 1099 705F6D70 		.ascii	"p_mpool\000"
 16886      6F6F6C00 
 16887              	.LASF715:
 16888 10a1 6D6F6269 		.ascii	"mobile\000"
 16888      6C6500
 16889              	.LASF399:
 16890 10a8 44414343 		.ascii	"DACConversionGroup\000"
 16890      6F6E7665 
 16890      7273696F 
 16890      6E47726F 
 16890      757000
 16891              	.LASF700:
 16892 10bb 696E5F6D 		.ascii	"in_multiplier\000"
 16892      756C7469 
 16892      706C6965 
 16892      7200
 16893              	.LASF324:
 16894 10c9 4144435F 		.ascii	"ADC_ERROR\000"
 16894      4552524F 
 16894      5200
 16895              	.LASF25:
 16896 10d3 746D6F64 		.ascii	"tmode_t\000"
 16896      655F7400 
 16897              	.LASF749:
 16898 10db 636F756E 		.ascii	"counter_value\000"
 16898      7465725F 
 16898      76616C75 
 16898      6500
 16899              	.LASF322:
 16900 10e9 4144435F 		.ascii	"ADC_ACTIVE\000"
 16900      41435449 
 16900      564500
 16901              	.LASF104:
 16902 10f4 53515231 		.ascii	"SQR1\000"
 16902      00
 16903              	.LASF105:
 16904 10f9 53515232 		.ascii	"SQR2\000"
 16904      00
 16905              	.LASF106:
 16906 10fe 53515233 		.ascii	"SQR3\000"
ARM GAS  /var/folders/j2/t8glr22d56s93xphj_30s8g80000gn/T//cc8l81ic.s 			page 312


 16906      00
 16907              	.LASF294:
 16908 1103 42535252 		.ascii	"BSRR\000"
 16908      00
 16909              	.LASF273:
 16910 1108 73746D33 		.ascii	"stm32_dma_stream_t\000"
 16910      325F646D 
 16910      615F7374 
 16910      7265616D 
 16910      5F7400
 16911              	.LASF705:
 16912 111b 72657175 		.ascii	"requests_hook_cb\000"
 16912      65737473 
 16912      5F686F6F 
 16912      6B5F6362 
 16912      00
 16913              	.LASF522:
 16914 112c 5344435F 		.ascii	"SDC_MODE_8BIT\000"
 16914      4D4F4445 
 16914      5F384249 
 16914      5400
 16915              	.LASF683:
 16916 113a 74787369 		.ascii	"txsize\000"
 16916      7A6500
 16917              	.LASF716:
 16918 1141 73746570 		.ascii	"step_halt\000"
 16918      5F68616C 
 16918      7400
 16919              	.LASF395:
 16920 114b 4441435F 		.ascii	"DAC_DHRM_12BIT_LEFT\000"
 16920      4448524D 
 16920      5F313242 
 16920      49545F4C 
 16920      45465400 
 16921              	.LASF491:
 16922 115f 70657269 		.ascii	"period\000"
 16922      6F6400
 16923              	.LASF447:
 16924 1166 4932435F 		.ascii	"I2C_LOCKED\000"
 16924      4C4F434B 
 16924      454400
 16925              	.LASF86:
 16926 1171 6973725F 		.ascii	"isr_cnt\000"
 16926      636E7400 
 16927              	.LASF574:
 16928 1179 5553425F 		.ascii	"USB_READY\000"
 16928      52454144 
 16928      5900
 16929              	.LASF728:
 16930 1183 74696D65 		.ascii	"timer\000"
 16930      7200
 16931              	.LASF519:
 16932 1189 72656164 		.ascii	"readt\000"
 16932      7400
 16933              	.LASF733:
 16934 118f 77614465 		.ascii	"waDepassement\000"
 16934      70617373 
ARM GAS  /var/folders/j2/t8glr22d56s93xphj_30s8g80000gn/T//cc8l81ic.s 			page 313


 16934      656D656E 
 16934      7400
 16935              	.LASF626:
 16936 119d 47525354 		.ascii	"GRSTCTL\000"
 16936      43544C00 
 16937              	.LASF421:
 16938 11a5 67707473 		.ascii	"gptstate_t\000"
 16938      74617465 
 16938      5F7400
 16939              	.LASF85:
 16940 11b0 70616E69 		.ascii	"panic_msg\000"
 16940      635F6D73 
 16940      6700
 16941              	.LASF545:
 16942 11ba 5350495F 		.ascii	"SPI_COMPLETE\000"
 16942      434F4D50 
 16942      4C455445 
 16942      00
 16943              	.LASF167:
 16944 11c7 4454494D 		.ascii	"DTIMER\000"
 16944      455200
 16945              	.LASF69:
 16946 11ce 725F6E65 		.ascii	"r_newer\000"
 16946      77657200 
 16947              	.LASF591:
 16948 11d6 5553425F 		.ascii	"USB_EVENT_STALLED\000"
 16948      4556454E 
 16948      545F5354 
 16948      414C4C45 
 16948      4400
 16949              	.LASF242:
 16950 11e8 63686465 		.ascii	"chdebug_t\000"
 16950      6275675F 
 16950      7400
 16951              	.LASF779:
 16952 11f2 5F646267 		.ascii	"_dbg_check_unlock\000"
 16952      5F636865 
 16952      636B5F75 
 16952      6E6C6F63 
 16952      6B00
 16953              	.LASF689:
 16954 1204 72787369 		.ascii	"rxsize\000"
 16954      7A6500
 16955              	.LASF605:
 16956 120b 48435453 		.ascii	"HCTSIZ\000"
 16956      495A00
 16957              	.LASF588:
 16958 1212 5553425F 		.ascii	"USB_EVENT_CONFIGURED\000"
 16958      4556454E 
 16958      545F434F 
 16958      4E464947 
 16958      55524544 
 16959              	.LASF537:
 16960 1227 64697363 		.ascii	"disconnect\000"
 16960      6F6E6E65 
 16960      637400
 16961              	.LASF516:
ARM GAS  /var/folders/j2/t8glr22d56s93xphj_30s8g80000gn/T//cc8l81ic.s 			page 314


 16962 1232 70757474 		.ascii	"putt\000"
 16962      00
 16963              	.LASF28:
 16964 1237 74736C69 		.ascii	"tslices_t\000"
 16964      6365735F 
 16964      7400
 16965              	.LASF229:
 16966 1241 63685F74 		.ascii	"ch_timesize\000"
 16966      696D6573 
 16966      697A6500 
 16967              	.LASF570:
 16968 124d 77615F70 		.ascii	"wa_pump\000"
 16968      756D7000 
 16969              	.LASF172:
 16970 1255 4649464F 		.ascii	"FIFOCNT\000"
 16970      434E5400 
 16971              	.LASF254:
 16972 125d 6576656E 		.ascii	"event_source_t\000"
 16972      745F736F 
 16972      75726365 
 16972      5F7400
 16973              	.LASF640:
 16974 126c 72657376 		.ascii	"resvd140\000"
 16974      64313430 
 16974      00
 16975              	.LASF77:
 16976 1275 76745F64 		.ascii	"vt_delta\000"
 16976      656C7461 
 16976      00
 16977              	.LASF193:
 16978 127e 74625F70 		.ascii	"tb_ptr\000"
 16978      747200
 16979              	.LASF398:
 16980 1285 74726967 		.ascii	"trigger\000"
 16980      67657200 
 16981              	.LASF316:
 16982 128d 696F706F 		.ascii	"ioportmask_t\000"
 16982      72746D61 
 16982      736B5F74 
 16982      00
 16983              	.LASF589:
 16984 129a 5553425F 		.ascii	"USB_EVENT_SUSPEND\000"
 16984      4556454E 
 16984      545F5355 
 16984      5350454E 
 16984      4400
 16985              	.LASF18:
 16986 12ac 696E7431 		.ascii	"int16_t\000"
 16986      365F7400 
 16987              	.LASF417:
 16988 12b4 4750545F 		.ascii	"GPT_STOP\000"
 16988      53544F50 
 16988      00
 16989              	.LASF112:
 16990 12bd 4144435F 		.ascii	"ADC_TypeDef\000"
 16990      54797065 
 16990      44656600 
ARM GAS  /var/folders/j2/t8glr22d56s93xphj_30s8g80000gn/T//cc8l81ic.s 			page 315


 16991              	.LASF10:
 16992 12c9 73686F72 		.ascii	"short unsigned int\000"
 16992      7420756E 
 16992      7369676E 
 16992      65642069 
 16992      6E7400
 16993              	.LASF459:
 16994 12dc 6F705F6D 		.ascii	"op_mode\000"
 16994      6F646500 
 16995              	.LASF3:
 16996 12e4 7369676E 		.ascii	"signed char\000"
 16996      65642063 
 16996      68617200 
 16997              	.LASF528:
 16998 12f0 63617264 		.ascii	"cardmode\000"
 16998      6D6F6465 
 16998      00
 16999              	.LASF48:
 17000 12f9 705F7072 		.ascii	"p_preempt\000"
 17000      65656D70 
 17000      7400
 17001              	.LASF742:
 17002 1303 44657061 		.ascii	"Depassement\000"
 17002      7373656D 
 17002      656E7400 
 17003              	.LASF34:
 17004 130f 75636E74 		.ascii	"ucnt_t\000"
 17004      5F7400
 17005              	.LASF115:
 17006 1316 54444852 		.ascii	"TDHR\000"
 17006      00
 17007              	.LASF320:
 17008 131b 4144435F 		.ascii	"ADC_STOP\000"
 17008      53544F50 
 17008      00
 17009              	.LASF582:
 17010 1324 5553425F 		.ascii	"USB_EP0_RX\000"
 17010      4550305F 
 17010      525800
 17011              	.LASF730:
 17012 132f 6C656674 		.ascii	"left_motor\000"
 17012      5F6D6F74 
 17012      6F7200
 17013              	.LASF494:
 17014 133a 70776D6D 		.ascii	"pwmmode_t\000"
 17014      6F64655F 
 17014      7400
 17015              	.LASF563:
 17016 1344 73746174 		.ascii	"status\000"
 17016      757300
 17017              	.LASF168:
 17018 134b 444C454E 		.ascii	"DLEN\000"
 17018      00
 17019              	.LASF724:
 17020 1350 636F756E 		.ascii	"count\000"
 17020      7400
 17021              	.LASF521:
ARM GAS  /var/folders/j2/t8glr22d56s93xphj_30s8g80000gn/T//cc8l81ic.s 			page 316


 17022 1356 5344435F 		.ascii	"SDC_MODE_4BIT\000"
 17022      4D4F4445 
 17022      5F344249 
 17022      5400
 17023              	.LASF595:
 17024 1364 55534244 		.ascii	"USBDescriptor\000"
 17024      65736372 
 17024      6970746F 
 17024      7200
 17025              	.LASF548:
 17026 1372 73706963 		.ascii	"spicallback_t\000"
 17026      616C6C62 
 17026      61636B5F 
 17026      7400
 17027              	.LASF726:
 17028 1380 656E6162 		.ascii	"enable_power_save\000"
 17028      6C655F70 
 17028      6F776572 
 17028      5F736176 
 17028      6500
 17029              	.LASF564:
 17030 1392 61646472 		.ascii	"address\000"
 17030      65737300 
 17031              	.LASF51:
 17032 139a 705F6D73 		.ascii	"p_msgqueue\000"
 17032      67717565 
 17032      756500
 17033              	.LASF239:
 17034 13a5 63665F6F 		.ascii	"cf_off_refs\000"
 17034      66665F72 
 17034      65667300 
 17035              	.LASF532:
 17036 13b1 53444343 		.ascii	"SDCConfig\000"
 17036      6F6E6669 
 17036      6700
 17037              	.LASF220:
 17038 13bb 6D5F6F77 		.ascii	"m_owner\000"
 17038      6E657200 
 17039              	.LASF97:
 17040 13c3 53797374 		.ascii	"SystemCoreClock\000"
 17040      656D436F 
 17040      7265436C 
 17040      6F636B00 
 17041              	.LASF342:
 17042 13d3 61646365 		.ascii	"adcerrorcallback_t\000"
 17042      72726F72 
 17042      63616C6C 
 17042      6261636B 
 17042      5F7400
 17043              	.LASF377:
 17044 13e6 4441435F 		.ascii	"DAC_ACTIVE\000"
 17044      41435449 
 17044      564500
 17045              	.LASF332:
 17046 13f1 73746174 		.ascii	"state\000"
 17046      6500
 17047              	.LASF227:
ARM GAS  /var/folders/j2/t8glr22d56s93xphj_30s8g80000gn/T//cc8l81ic.s 			page 317


 17048 13f7 63685F76 		.ascii	"ch_version\000"
 17048      65727369 
 17048      6F6E00
 17049              	.LASF714:
 17050 1402 636C6967 		.ascii	"cligno\000"
 17050      6E6F00
 17051              	.LASF529:
 17052 1409 7364696F 		.ascii	"sdio\000"
 17052      00
 17053              	.LASF138:
 17054 140e 53575452 		.ascii	"SWTRIGR\000"
 17054      49475200 
 17055              	.LASF581:
 17056 1416 5553425F 		.ascii	"USB_EP0_WAITING_STS\000"
 17056      4550305F 
 17056      57414954 
 17056      494E475F 
 17056      53545300 
 17057              	.LASF159:
 17058 142a 4932435F 		.ascii	"I2C_TypeDef\000"
 17058      54797065 
 17058      44656600 
 17059              	.LASF119:
 17060 1436 52444852 		.ascii	"RDHR\000"
 17060      00
 17061              	.LASF756:
 17062 143b 6C656674 		.ascii	"left_motor_disable_power_save\000"
 17062      5F6D6F74 
 17062      6F725F64 
 17062      69736162 
 17062      6C655F70 
 17063              	.LASF431:
 17064 1459 444D4152 		.ascii	"DMAR\000"
 17064      00
 17065              	.LASF437:
 17066 145e 63616C6C 		.ascii	"callback\000"
 17066      6261636B 
 17066      00
 17067              	.LASF90:
 17068 1467 63685F73 		.ascii	"ch_system\000"
 17068      79737465 
 17068      6D00
 17069              	.LASF160:
 17070 1471 504F5745 		.ascii	"POWER\000"
 17070      5200
 17071              	.LASF88:
 17072 1477 74726163 		.ascii	"trace_buffer\000"
 17072      655F6275 
 17072      66666572 
 17072      00
 17073              	.LASF396:
 17074 1484 4441435F 		.ascii	"DAC_DHRM_8BIT_RIGHT\000"
 17074      4448524D 
 17074      5F384249 
 17074      545F5249 
 17074      47485400 
 17075              	.LASF416:
ARM GAS  /var/folders/j2/t8glr22d56s93xphj_30s8g80000gn/T//cc8l81ic.s 			page 318


 17076 1498 4750545F 		.ascii	"GPT_UNINIT\000"
 17076      554E494E 
 17076      495400
 17077              	.LASF215:
 17078 14a3 63685F73 		.ascii	"ch_semaphore\000"
 17078      656D6170 
 17078      686F7265 
 17078      00
 17079              	.LASF761:
 17080 14b0 70776D70 		.ascii	"pwmp\000"
 17080      00
 17081              	.LASF614:
 17082 14b5 44494550 		.ascii	"DIEPTSIZ\000"
 17082      5453495A 
 17082      00
 17083              	.LASF774:
 17084 14be 706F7274 		.ascii	"port_unlock\000"
 17084      5F756E6C 
 17084      6F636B00 
 17085              	.LASF347:
 17086 14ca 736D7072 		.ascii	"smpr1\000"
 17086      3100
 17087              	.LASF348:
 17088 14d0 736D7072 		.ascii	"smpr2\000"
 17088      3200
 17089              	.LASF718:
 17090 14d6 48414C54 		.ascii	"HALT\000"
 17090      00
 17091              	.LASF753:
 17092 14db 6C656674 		.ascii	"left_motor_set_speed\000"
 17092      5F6D6F74 
 17092      6F725F73 
 17092      65745F73 
 17092      70656564 
 17093              	.LASF62:
 17094 14f0 74687265 		.ascii	"threads_queue_t\000"
 17094      6164735F 
 17094      71756575 
 17094      655F7400 
 17095              	.LASF284:
 17096 1500 626C6B73 		.ascii	"blkstate_t\000"
 17096      74617465 
 17096      5F7400
 17097              	.LASF740:
 17098 150b 74696D65 		.ascii	"time\000"
 17098      00
 17099              	.LASF773:
 17100 1510 63685379 		.ascii	"chSysLock\000"
 17100      734C6F63 
 17100      6B00
 17101              	.LASF49:
 17102 151a 705F7469 		.ascii	"p_time\000"
 17102      6D6500
 17103              	.LASF47:
 17104 1521 705F7265 		.ascii	"p_refs\000"
 17104      667300
 17105              	.LASF692:
ARM GAS  /var/folders/j2/t8glr22d56s93xphj_30s8g80000gn/T//cc8l81ic.s 			page 319


 17106 1528 65705F6D 		.ascii	"ep_mode\000"
 17106      6F646500 
 17107              	.LASF495:
 17108 1530 70776D63 		.ascii	"pwmchannel_t\000"
 17108      68616E6E 
 17108      656C5F74 
 17108      00
 17109              	.LASF114:
 17110 153d 54444C52 		.ascii	"TDLR\000"
 17110      00
 17111              	.LASF737:
 17112 1542 64657061 		.ascii	"depassement_start\000"
 17112      7373656D 
 17112      656E745F 
 17112      73746172 
 17112      7400
 17113              	.LASF12:
 17114 1554 6C6F6E67 		.ascii	"long int\000"
 17114      20696E74 
 17114      00
 17115              	.LASF93:
 17116 155d 6D61696E 		.ascii	"mainthread\000"
 17116      74687265 
 17116      616400
 17117              	.LASF788:
 17118 1568 746F6767 		.ascii	"toggle_rgb_led\000"
 17118      6C655F72 
 17118      67625F6C 
 17118      656400
 17119              	.LASF751:
 17120 1577 72696768 		.ascii	"right_motor_set_speed\000"
 17120      745F6D6F 
 17120      746F725F 
 17120      7365745F 
 17120      73706565 
 17121              	.LASF560:
 17122 158d 6570306E 		.ascii	"ep0n\000"
 17122      00
 17123              	.LASF673:
 17124 1592 72657376 		.ascii	"resvdE04\000"
 17124      64453034 
 17124      00
 17125              	.LASF219:
 17126 159b 6D5F7175 		.ascii	"m_queue\000"
 17126      65756500 
 17127              	.LASF384:
 17128 15a3 646D6169 		.ascii	"dmairqprio\000"
 17128      72717072 
 17128      696F00
 17129              	.LASF422:
 17130 15ae 47505444 		.ascii	"GPTDriver\000"
 17130      72697665 
 17130      7200
 17131              	.LASF525:
 17132 15b8 73646366 		.ascii	"sdcflags_t\000"
 17132      6C616773 
 17132      5F7400
ARM GAS  /var/folders/j2/t8glr22d56s93xphj_30s8g80000gn/T//cc8l81ic.s 			page 320


 17133              	.LASF313:
 17134 15c3 50484461 		.ascii	"PHData\000"
 17134      746100
 17135              	.LASF317:
 17136 15ca 696F706F 		.ascii	"ioportid_t\000"
 17136      72746964 
 17136      5F7400
 17137              	.LASF355:
 17138 15d5 41444344 		.ascii	"ADCD1\000"
 17138      3100
 17139              	.LASF356:
 17140 15db 41444344 		.ascii	"ADCD2\000"
 17140      3200
 17141              	.LASF357:
 17142 15e1 41444344 		.ascii	"ADCD3\000"
 17142      3300
 17143              	.LASF641:
 17144 15e7 48434647 		.ascii	"HCFG\000"
 17144      00
 17145              	.LASF340:
 17146 15ec 646D616D 		.ascii	"dmamode\000"
 17146      6F646500 
 17147              	.LASF201:
 17148 15f4 63756D75 		.ascii	"cumulative\000"
 17148      6C617469 
 17148      766500
 17149              	.LASF552:
 17150 15ff 53504944 		.ascii	"SPID1\000"
 17150      3100
 17151              	.LASF517:
 17152 1605 67657474 		.ascii	"gett\000"
 17152      00
 17153              	.LASF211:
 17154 160a 77747472 		.ascii	"wttrp\000"
 17154      7000
 17155              	.LASF262:
 17156 1610 715F7264 		.ascii	"q_rdptr\000"
 17156      70747200 
 17157              	.LASF185:
 17158 1618 636F6E74 		.ascii	"context\000"
 17158      65787400 
 17159              	.LASF514:
 17160 1620 77726974 		.ascii	"write\000"
 17160      6500
 17161              	.LASF510:
 17162 1626 69717565 		.ascii	"iqueue\000"
 17162      756500
 17163              	.LASF694:
 17164 162d 696E5F63 		.ascii	"in_cb\000"
 17164      6200
 17165              	.LASF619:
 17166 1633 444F4550 		.ascii	"DOEPINT\000"
 17166      494E5400 
 17167              	.LASF200:
 17168 163b 6C617374 		.ascii	"last\000"
 17168      00
 17169              	.LASF295:
ARM GAS  /var/folders/j2/t8glr22d56s93xphj_30s8g80000gn/T//cc8l81ic.s 			page 321


 17170 1640 4C434B52 		.ascii	"LCKR\000"
 17170      00
 17171              	.LASF507:
 17172 1645 73647374 		.ascii	"sdstate_t\000"
 17172      6174655F 
 17172      7400
 17173              	.LASF21:
 17174 164f 75696E74 		.ascii	"uint32_t\000"
 17174      33325F74 
 17174      00
 17175              	.LASF381:
 17176 1658 64617461 		.ascii	"dataoffset\000"
 17176      6F666673 
 17176      657400
 17177              	.LASF282:
 17178 1663 424C4B5F 		.ascii	"BLK_WRITING\000"
 17178      57524954 
 17178      494E4700 
 17179              	.LASF118:
 17180 166f 52444C52 		.ascii	"RDLR\000"
 17180      00
 17181              	.LASF775:
 17182 1674 706F7274 		.ascii	"port_lock\000"
 17182      5F6C6F63 
 17182      6B00
 17183              	.LASF2:
 17184 167e 6C6F6E67 		.ascii	"long double\000"
 17184      20646F75 
 17184      626C6500 
 17185              	.LASF183:
 17186 168a 72656761 		.ascii	"regarm_t\000"
 17186      726D5F74 
 17186      00
 17187              	.LASF31:
 17188 1693 6576656E 		.ascii	"eventmask_t\000"
 17188      746D6173 
 17188      6B5F7400 
 17189              	.LASF335:
 17190 169f 64657074 		.ascii	"depth\000"
 17190      6800
 17191              	.LASF794:
 17192 16a5 70776D45 		.ascii	"pwmEnableChannelNotification\000"
 17192      6E61626C 
 17192      65436861 
 17192      6E6E656C 
 17192      4E6F7469 
 17193              	.LASF132:
 17194 16c2 46464131 		.ascii	"FFA1R\000"
 17194      5200
 17195              	.LASF755:
 17196 16c8 696E7465 		.ascii	"interval\000"
 17196      7276616C 
 17196      00
 17197              	.LASF575:
 17198 16d1 5553425F 		.ascii	"USB_SELECTED\000"
 17198      53454C45 
 17198      43544544 
ARM GAS  /var/folders/j2/t8glr22d56s93xphj_30s8g80000gn/T//cc8l81ic.s 			page 322


 17198      00
 17199              	.LASF14:
 17200 16de 6C6F6E67 		.ascii	"long unsigned int\000"
 17200      20756E73 
 17200      69676E65 
 17200      6420696E 
 17200      7400
 17201              	.LASF567:
 17202 16f0 706D6E65 		.ascii	"pmnext\000"
 17202      787400
 17203              	.LASF792:
 17204 16f7 70776D44 		.ascii	"pwmDisableChannel\000"
 17204      69736162 
 17204      6C654368 
 17204      616E6E65 
 17204      6C00
 17205              	.LASF474:
 17206 1709 4932535F 		.ascii	"I2S_ACTIVE\000"
 17206      41435449 
 17206      564500
 17207              	.LASF418:
 17208 1714 4750545F 		.ascii	"GPT_READY\000"
 17208      52454144 
 17208      5900
 17209              	.LASF380:
 17210 171e 64616373 		.ascii	"dacstate_t\000"
 17210      74617465 
 17210      5F7400
 17211              	.LASF188:
 17212 1729 73655F74 		.ascii	"se_tp\000"
 17212      7000
 17213              	.LASF745:
 17214 172f 6D6F746F 		.ascii	"motors_init\000"
 17214      72735F69 
 17214      6E697400 
 17215              	.LASF261:
 17216 173b 715F7772 		.ascii	"q_wrptr\000"
 17216      70747200 
 17217              	.LASF388:
 17218 1743 64616373 		.ascii	"dacsample_t\000"
 17218      616D706C 
 17218      655F7400 
 17219              	.LASF587:
 17220 174f 5553425F 		.ascii	"USB_EVENT_ADDRESS\000"
 17220      4556454E 
 17220      545F4144 
 17220      44524553 
 17220      5300
 17221              	.LASF759:
 17222 1761 72696768 		.ascii	"right_motor_enable_power_save\000"
 17222      745F6D6F 
 17222      746F725F 
 17222      656E6162 
 17222      6C655F70 
 17223              	.LASF482:
 17224 177f 69327363 		.ascii	"i2scfgr\000"
 17224      66677200 
ARM GAS  /var/folders/j2/t8glr22d56s93xphj_30s8g80000gn/T//cc8l81ic.s 			page 323


 17225              	.LASF162:
 17226 1787 52455350 		.ascii	"RESPCMD\000"
 17226      434D4400 
 17227              	.LASF367:
 17228 178f 72786675 		.ascii	"rxfull_event\000"
 17228      6C6C5F65 
 17228      76656E74 
 17228      00
 17229              	.LASF592:
 17230 179c 75736265 		.ascii	"usbevent_t\000"
 17230      76656E74 
 17230      5F7400
 17231              	.LASF223:
 17232 17a7 63686172 		.ascii	"char\000"
 17232      00
 17233              	.LASF364:
 17234 17ac 43414E43 		.ascii	"CANConfig\000"
 17234      6F6E6669 
 17234      6700
 17235              	.LASF310:
 17236 17b6 50454461 		.ascii	"PEData\000"
 17236      746100
 17237              	.LASF66:
 17238 17bd 725F7175 		.ascii	"r_queue\000"
 17238      65756500 
 17239              	.LASF492:
 17240 17c5 656E6162 		.ascii	"enabled\000"
 17240      6C656400 
 17241              	.LASF389:
 17242 17cd 4441435F 		.ascii	"DAC_ERR_DMAFAILURE\000"
 17242      4552525F 
 17242      444D4146 
 17242      41494C55 
 17242      524500
 17243              	.LASF631:
 17244 17e0 47525846 		.ascii	"GRXFSIZ\000"
 17244      53495A00 
 17245              	.LASF538:
 17246 17e8 73796E63 		.ascii	"sync\000"
 17246      00
 17247              	.LASF512:
 17248 17ed 75736172 		.ascii	"usart\000"
 17248      7400
 17249              	.LASF780:
 17250 17f3 5F737461 		.ascii	"_stats_stop_measure_crit_thd\000"
 17250      74735F73 
 17250      746F705F 
 17250      6D656173 
 17250      7572655F 
 17251              	.LASF524:
 17252 1810 7364636D 		.ascii	"sdcmode_t\000"
 17252      6F64655F 
 17252      7400
 17253              	.LASF264:
 17254 181a 715F6C69 		.ascii	"q_link\000"
 17254      6E6B00
 17255              	.LASF735:
ARM GAS  /var/folders/j2/t8glr22d56s93xphj_30s8g80000gn/T//cc8l81ic.s 			page 324


 17256 1821 6465706C 		.ascii	"deplacement_start\000"
 17256      6163656D 
 17256      656E745F 
 17256      73746172 
 17256      7400
 17257              	.LASF652:
 17258 1833 44434647 		.ascii	"DCFG\000"
 17258      00
 17259              	.LASF662:
 17260 1838 44564255 		.ascii	"DVBUSDIS\000"
 17260      53444953 
 17260      00
 17261              	.LASF628:
 17262 1841 47494E54 		.ascii	"GINTMSK\000"
 17262      4D534B00 
 17263              	.LASF633:
 17264 1849 484E5054 		.ascii	"HNPTXSTS\000"
 17264      58535453 
 17264      00
 17265              	.LASF565:
 17266 1852 636F6E66 		.ascii	"configuration\000"
 17266      69677572 
 17266      6174696F 
 17266      6E00
 17267              	.LASF709:
 17268 1860 4C454432 		.ascii	"LED2\000"
 17268      00
 17269              	.LASF710:
 17270 1865 4C454434 		.ascii	"LED4\000"
 17270      00
 17271              	.LASF711:
 17272 186a 4C454436 		.ascii	"LED6\000"
 17272      00
 17273              	.LASF712:
 17274 186f 4C454438 		.ascii	"LED8\000"
 17274      00
 17275              	.LASF305:
 17276 1874 73746D33 		.ascii	"stm32_gpio_setup_t\000"
 17276      325F6770 
 17276      696F5F73 
 17276      65747570 
 17276      5F7400
 17277              	.LASF274:
 17278 1887 5F73746D 		.ascii	"_stm32_dma_streams\000"
 17278      33325F64 
 17278      6D615F73 
 17278      74726561 
 17278      6D7300
 17279              	.LASF140:
 17280 189a 44485231 		.ascii	"DHR12L1\000"
 17280      324C3100 
 17281              	.LASF143:
 17282 18a2 44485231 		.ascii	"DHR12L2\000"
 17282      324C3200 
 17283              	.LASF523:
 17284 18aa 73646362 		.ascii	"sdcbusmode_t\000"
 17284      75736D6F 
ARM GAS  /var/folders/j2/t8glr22d56s93xphj_30s8g80000gn/T//cc8l81ic.s 			page 325


 17284      64655F74 
 17284      00
 17285              	.LASF146:
 17286 18b7 44485231 		.ascii	"DHR12LD\000"
 17286      324C4400 
 17287              	.LASF341:
 17288 18bf 61646363 		.ascii	"adccallback_t\000"
 17288      616C6C62 
 17288      61636B5F 
 17288      7400
 17289              	.LASF44:
 17290 18cd 705F7374 		.ascii	"p_stklimit\000"
 17290      6B6C696D 
 17290      697400
 17291              	.LASF33:
 17292 18d8 636E745F 		.ascii	"cnt_t\000"
 17292      7400
 17293              	.LASF407:
 17294 18de 65787473 		.ascii	"extstate_t\000"
 17294      74617465 
 17294      5F7400
 17295              	.LASF580:
 17296 18e9 5553425F 		.ascii	"USB_EP0_WAITING_TX0\000"
 17296      4550305F 
 17296      57414954 
 17296      494E475F 
 17296      54583000 
 17297              	.LASF559:
 17298 18fd 6570306E 		.ascii	"ep0next\000"
 17298      65787400 
 17299              	.LASF609:
 17300 1905 73746D33 		.ascii	"stm32_otg_host_chn_t\000"
 17300      325F6F74 
 17300      675F686F 
 17300      73745F63 
 17300      686E5F74 
 17301              	.LASF297:
 17302 191a 41465248 		.ascii	"AFRH\000"
 17302      00
 17303              	.LASF296:
 17304 191f 4146524C 		.ascii	"AFRL\000"
 17304      00
 17305              	.LASF240:
 17306 1924 63665F6F 		.ascii	"cf_off_preempt\000"
 17306      66665F70 
 17306      7265656D 
 17306      707400
 17307              	.LASF378:
 17308 1933 4441435F 		.ascii	"DAC_COMPLETE\000"
 17308      434F4D50 
 17308      4C455445 
 17308      00
 17309              	.LASF618:
 17310 1940 444F4550 		.ascii	"DOEPCTL\000"
 17310      43544C00 
 17311              	.LASF604:
 17312 1948 4843494E 		.ascii	"HCINTMSK\000"
ARM GAS  /var/folders/j2/t8glr22d56s93xphj_30s8g80000gn/T//cc8l81ic.s 			page 326


 17312      544D534B 
 17312      00
 17313              	.LASF333:
 17314 1951 636F6E66 		.ascii	"config\000"
 17314      696700
 17315              	.LASF441:
 17316 1958 47505444 		.ascii	"GPTD11\000"
 17316      313100
 17317              	.LASF278:
 17318 195f 424C4B5F 		.ascii	"BLK_CONNECTING\000"
 17318      434F4E4E 
 17318      45435449 
 17318      4E4700
 17319              	.LASF374:
 17320 196e 4441435F 		.ascii	"DAC_UNINIT\000"
 17320      554E494E 
 17320      495400
 17321              	.LASF327:
 17322 1979 6164635F 		.ascii	"adc_channels_num_t\000"
 17322      6368616E 
 17322      6E656C73 
 17322      5F6E756D 
 17322      5F7400
 17323              	.LASF72:
 17324 198c 76746675 		.ascii	"vtfunc_t\000"
 17324      6E635F74 
 17324      00
 17325              	.LASF120:
 17326 1995 43414E5F 		.ascii	"CAN_FIFOMailBox_TypeDef\000"
 17326      4649464F 
 17326      4D61696C 
 17326      426F785F 
 17326      54797065 
 17327              	.LASF150:
 17328 19ad 4441435F 		.ascii	"DAC_TypeDef\000"
 17328      54797065 
 17328      44656600 
 17329              	.LASF210:
 17330 19b9 77746F62 		.ascii	"wtobjp\000"
 17330      6A7000
 17331              	.LASF394:
 17332 19c0 4441435F 		.ascii	"DAC_DHRM_12BIT_RIGHT\000"
 17332      4448524D 
 17332      5F313242 
 17332      49545F52 
 17332      49474854 
 17333              	.LASF55:
 17334 19d5 705F7265 		.ascii	"p_realprio\000"
 17334      616C7072 
 17334      696F00
 17335              	.LASF527:
 17336 19e0 63617061 		.ascii	"capacity\000"
 17336      63697479 
 17336      00
 17337              	.LASF263:
 17338 19e9 715F6E6F 		.ascii	"q_notify\000"
 17338      74696679 
ARM GAS  /var/folders/j2/t8glr22d56s93xphj_30s8g80000gn/T//cc8l81ic.s 			page 327


 17338      00
 17339              	.LASF213:
 17340 19f2 77746D74 		.ascii	"wtmtxp\000"
 17340      787000
 17341              	.LASF801:
 17342 19f9 63685654 		.ascii	"chVTGetSystemTimeX\000"
 17342      47657453 
 17342      79737465 
 17342      6D54696D 
 17342      655800
 17343              	.LASF731:
 17344 1a0c 77614D61 		.ascii	"waManoeuvre\000"
 17344      6E6F6575 
 17344      76726500 
 17345              	.LASF691:
 17346 1a18 5553424F 		.ascii	"USBOutEndpointState\000"
 17346      7574456E 
 17346      64706F69 
 17346      6E745374 
 17346      61746500 
 17347              	.LASF648:
 17348 1a2c 72657376 		.ascii	"resvd41C\000"
 17348      64343143 
 17348      00
 17349              	.LASF790:
 17350 1a35 70776D45 		.ascii	"pwmEnablePeriodicNotification\000"
 17350      6E61626C 
 17350      65506572 
 17350      696F6469 
 17350      634E6F74 
 17351              	.LASF117:
 17352 1a53 52445452 		.ascii	"RDTR\000"
 17352      00
 17353              	.LASF286:
 17354 1a58 626C6B5F 		.ascii	"blk_num\000"
 17354      6E756D00 
 17355              	.LASF586:
 17356 1a60 5553425F 		.ascii	"USB_EVENT_RESET\000"
 17356      4556454E 
 17356      545F5245 
 17356      53455400 
 17357              	.LASF752:
 17358 1a70 73706565 		.ascii	"speed\000"
 17358      6400
 17359              	.LASF65:
 17360 1a76 63685F72 		.ascii	"ch_ready_list\000"
 17360      65616479 
 17360      5F6C6973 
 17360      7400
 17361              	.LASF293:
 17362 1a84 50555044 		.ascii	"PUPDR\000"
 17362      5200
 17363              	.LASF11:
 17364 1a8a 5F5F696E 		.ascii	"__int32_t\000"
 17364      7433325F 
 17364      7400
 17365              	.LASF13:
ARM GAS  /var/folders/j2/t8glr22d56s93xphj_30s8g80000gn/T//cc8l81ic.s 			page 328


 17366 1a94 5F5F7569 		.ascii	"__uint32_t\000"
 17366      6E743332 
 17366      5F7400
 17367              	.LASF762:
 17368 1a9f 72696768 		.ascii	"right_motor_pwm_ch1_cb\000"
 17368      745F6D6F 
 17368      746F725F 
 17368      70776D5F 
 17368      6368315F 
 17369              	.LASF84:
 17370 1ab6 63685F73 		.ascii	"ch_system_debug\000"
 17370      79737465 
 17370      6D5F6465 
 17370      62756700 
 17371              	.LASF659:
 17372 1ac6 4441494E 		.ascii	"DAINTMSK\000"
 17372      544D534B 
 17372      00
 17373              	.LASF414:
 17374 1acf 45585443 		.ascii	"EXTConfig\000"
 17374      6F6E6669 
 17374      6700
 17375              	.LASF258:
 17376 1ad9 715F636F 		.ascii	"q_counter\000"
 17376      756E7465 
 17376      7200
 17377              	.LASF578:
 17378 1ae3 5553425F 		.ascii	"USB_EP0_WAITING_SETUP\000"
 17378      4550305F 
 17378      57414954 
 17378      494E475F 
 17378      53455455 
 17379              	.LASF281:
 17380 1af9 424C4B5F 		.ascii	"BLK_READING\000"
 17380      52454144 
 17380      494E4700 
 17381              	.LASF303:
 17382 1b05 6166726C 		.ascii	"afrl\000"
 17382      00
 17383              	.LASF719:
 17384 1b0a 464F5257 		.ascii	"FORWARD\000"
 17384      41524400 
 17385              	.LASF681:
 17386 1b12 71756575 		.ascii	"queue\000"
 17386      6500
 17387              	.LASF561:
 17388 1b18 65703065 		.ascii	"ep0endcb\000"
 17388      6E646362 
 17388      00
 17389              	.LASF271:
 17390 1b21 73656C66 		.ascii	"selfindex\000"
 17390      696E6465 
 17390      7800
 17391              	.LASF244:
 17392 1b2b 6D757465 		.ascii	"mutex_t\000"
 17392      785F7400 
 17393              	.LASF53:
ARM GAS  /var/folders/j2/t8glr22d56s93xphj_30s8g80000gn/T//cc8l81ic.s 			page 329


 17394 1b33 705F6570 		.ascii	"p_epending\000"
 17394      656E6469 
 17394      6E6700
 17395              	.LASF290:
 17396 1b3e 4D4F4445 		.ascii	"MODER\000"
 17396      5200
 17397              	.LASF767:
 17398 1b44 72696768 		.ascii	"right_motor_update\000"
 17398      745F6D6F 
 17398      746F725F 
 17398      75706461 
 17398      746500
 17399              	.LASF475:
 17400 1b57 4932535F 		.ascii	"I2S_COMPLETE\000"
 17400      434F4D50 
 17400      4C455445 
 17400      00
 17401              	.LASF124:
 17402 1b64 52455345 		.ascii	"RESERVED0\000"
 17402      52564544 
 17402      3000
 17403              	.LASF127:
 17404 1b6e 52455345 		.ascii	"RESERVED1\000"
 17404      52564544 
 17404      3100
 17405              	.LASF129:
 17406 1b78 52455345 		.ascii	"RESERVED2\000"
 17406      52564544 
 17406      3200
 17407              	.LASF131:
 17408 1b82 52455345 		.ascii	"RESERVED3\000"
 17408      52564544 
 17408      3300
 17409              	.LASF133:
 17410 1b8c 52455345 		.ascii	"RESERVED4\000"
 17410      52564544 
 17410      3400
 17411              	.LASF135:
 17412 1b96 52455345 		.ascii	"RESERVED5\000"
 17412      52564544 
 17412      3500
 17413              	.LASF702:
 17414 1ba0 55534245 		.ascii	"USBEndpointConfig\000"
 17414      6E64706F 
 17414      696E7443 
 17414      6F6E6669 
 17414      6700
 17415              	.LASF139:
 17416 1bb2 44485231 		.ascii	"DHR12R1\000"
 17416      32523100 
 17417              	.LASF142:
 17418 1bba 44485231 		.ascii	"DHR12R2\000"
 17418      32523200 
 17419              	.LASF410:
 17420 1bc2 65787463 		.ascii	"extcallback_t\000"
 17420      616C6C62 
 17420      61636B5F 
ARM GAS  /var/folders/j2/t8glr22d56s93xphj_30s8g80000gn/T//cc8l81ic.s 			page 330


 17420      7400
 17421              	.LASF366:
 17422 1bd0 72787175 		.ascii	"rxqueue\000"
 17422      65756500 
 17423              	.LASF187:
 17424 1bd8 73655F74 		.ascii	"se_time\000"
 17424      696D6500 
 17425              	.LASF650:
 17426 1be0 72657376 		.ascii	"resvd444\000"
 17426      64343434 
 17426      00
 17427              	.LASF318:
 17428 1be9 70616C5F 		.ascii	"pal_default_config\000"
 17428      64656661 
 17428      756C745F 
 17428      636F6E66 
 17428      696700
 17429              	.LASF336:
 17430 1bfc 67727070 		.ascii	"grpp\000"
 17430      00
 17431              	.LASF145:
 17432 1c01 44485231 		.ascii	"DHR12RD\000"
 17432      32524400 
 17433              	.LASF248:
 17434 1c09 656C5F6C 		.ascii	"el_listener\000"
 17434      69737465 
 17434      6E657200 
 17435              	.LASF680:
 17436 1c15 6C696E65 		.ascii	"linear\000"
 17436      617200
 17437              	.LASF434:
 17438 1c1c 73746D33 		.ascii	"stm32_tim_t\000"
 17438      325F7469 
 17438      6D5F7400 
 17439              	.LASF67:
 17440 1c28 725F7072 		.ascii	"r_prio\000"
 17440      696F00
 17441              	.LASF796:
 17442 1c2f 2E2E2F2E 		.ascii	"../../lib/e-puck2_main-processor/src/motors.c\000"
 17442      2E2F6C69 
 17442      622F652D 
 17442      7075636B 
 17442      325F6D61 
 17443              	.LASF96:
 17444 1c5d 49544D5F 		.ascii	"ITM_RxBuffer\000"
 17444      52784275 
 17444      66666572 
 17444      00
 17445              	.LASF287:
 17446 1c6a 426C6F63 		.ascii	"BlockDeviceInfo\000"
 17446      6B446576 
 17446      69636549 
 17446      6E666F00 
 17447              	.LASF16:
 17448 1c7a 6C6F6E67 		.ascii	"long long unsigned int\000"
 17448      206C6F6E 
 17448      6720756E 
ARM GAS  /var/folders/j2/t8glr22d56s93xphj_30s8g80000gn/T//cc8l81ic.s 			page 331


 17448      7369676E 
 17448      65642069 
 17449              	.LASF174:
 17450 1c91 5344494F 		.ascii	"SDIO_TypeDef\000"
 17450      5F547970 
 17450      65446566 
 17450      00
 17451              	.LASF196:
 17452 1c9e 6F666673 		.ascii	"offset\000"
 17452      657400
 17453              	.LASF768:
 17454 1ca5 63685265 		.ascii	"chRegSetThreadName\000"
 17454      67536574 
 17454      54687265 
 17454      61644E61 
 17454      6D6500
 17455              	.LASF771:
 17456 1cb8 63685379 		.ascii	"chSysUnlock\000"
 17456      73556E6C 
 17456      6F636B00 
 17457              	.LASF151:
 17458 1cc4 4E445452 		.ascii	"NDTR\000"
 17458      00
 17459              	.LASF253:
 17460 1cc9 65735F6E 		.ascii	"es_next\000"
 17460      65787400 
 17461              	.LASF616:
 17462 1cd1 72657376 		.ascii	"resvd1C\000"
 17462      64314300 
 17463              	.LASF95:
 17464 1cd9 69646C65 		.ascii	"idle_thread_wa\000"
 17464      5F746872 
 17464      6561645F 
 17464      776100
 17465              	.LASF612:
 17466 1ce8 44494550 		.ascii	"DIEPINT\000"
 17466      494E5400 
 17467              	.LASF180:
 17468 1cf0 5350495F 		.ascii	"SPI_TypeDef\000"
 17468      54797065 
 17468      44656600 
 17469              	.LASF78:
 17470 1cfc 76745F66 		.ascii	"vt_func\000"
 17470      756E6300 
 17471              	.LASF425:
 17472 1d04 534D4352 		.ascii	"SMCR\000"
 17472      00
 17473              	.LASF657:
 17474 1d09 444F4550 		.ascii	"DOEPMSK\000"
 17474      4D534B00 
 17475              	.LASF74:
 17476 1d11 63685F76 		.ascii	"ch_virtual_timer\000"
 17476      69727475 
 17476      616C5F74 
 17476      696D6572 
 17476      00
 17477              	.LASF46:
ARM GAS  /var/folders/j2/t8glr22d56s93xphj_30s8g80000gn/T//cc8l81ic.s 			page 332


 17478 1d22 705F666C 		.ascii	"p_flags\000"
 17478      61677300 
 17479              	.LASF723:
 17480 1d2a 73746570 		.ascii	"step_index\000"
 17480      5F696E64 
 17480      657800
 17481              	.LASF214:
 17482 1d35 65776D61 		.ascii	"ewmask\000"
 17482      736B00
 17483              	.LASF250:
 17484 1d3c 656C5F66 		.ascii	"el_flags\000"
 17484      6C616773 
 17484      00
 17485              	.LASF252:
 17486 1d45 6576656E 		.ascii	"event_source\000"
 17486      745F736F 
 17486      75726365 
 17486      00
 17487              	.LASF54:
 17488 1d52 705F6D74 		.ascii	"p_mtxlist\000"
 17488      786C6973 
 17488      7400
 17489              	.LASF373:
 17490 1d5c 43414E44 		.ascii	"CAND1\000"
 17490      3100
 17491              	.LASF130:
 17492 1d62 46533152 		.ascii	"FS1R\000"
 17492      00
 17493              	.LASF26:
 17494 1d67 74737461 		.ascii	"tstate_t\000"
 17494      74655F74 
 17494      00
 17495              	.LASF547:
 17496 1d70 53504944 		.ascii	"SPIDriver\000"
 17496      72697665 
 17496      7200
 17497              	.LASF658:
 17498 1d7a 4441494E 		.ascii	"DAINT\000"
 17498      5400
 17499              	.LASF551:
 17500 1d80 53504943 		.ascii	"SPIConfig\000"
 17500      6F6E6669 
 17500      6700
 17501              	.LASF302:
 17502 1d8a 70757064 		.ascii	"pupdr\000"
 17502      7200
 17503              	.LASF393:
 17504 1d90 64616365 		.ascii	"dacerrorcallback_t\000"
 17504      72726F72 
 17504      63616C6C 
 17504      6261636B 
 17504      5F7400
 17505              	.LASF554:
 17506 1da3 7472616E 		.ascii	"transmitting\000"
 17506      736D6974 
 17506      74696E67 
 17506      00
ARM GAS  /var/folders/j2/t8glr22d56s93xphj_30s8g80000gn/T//cc8l81ic.s 			page 333


 17507              	.LASF787:
 17508 1db0 7365745F 		.ascii	"set_rgb_led\000"
 17508      7267625F 
 17508      6C656400 
 17509              	.LASF413:
 17510 1dbc 6368616E 		.ascii	"channels\000"
 17510      6E656C73 
 17510      00
 17511              	.LASF161:
 17512 1dc5 434C4B43 		.ascii	"CLKCR\000"
 17512      5200
 17513              	.LASF526:
 17514 1dcb 53444344 		.ascii	"SDCDriver\000"
 17514      72697665 
 17514      7200
 17515              	.LASF43:
 17516 1dd5 705F6E61 		.ascii	"p_name\000"
 17516      6D6500
 17517              	.LASF508:
 17518 1ddc 53657269 		.ascii	"SerialDriver\000"
 17518      616C4472 
 17518      69766572 
 17518      00
 17519              	.LASF108:
 17520 1de9 4A445231 		.ascii	"JDR1\000"
 17520      00
 17521              	.LASF109:
 17522 1dee 4A445232 		.ascii	"JDR2\000"
 17522      00
 17523              	.LASF110:
 17524 1df3 4A445233 		.ascii	"JDR3\000"
 17524      00
 17525              	.LASF111:
 17526 1df8 4A445234 		.ascii	"JDR4\000"
 17526      00
 17527              	.LASF620:
 17528 1dfd 444F4550 		.ascii	"DOEPTSIZ\000"
 17528      5453495A 
 17528      00
 17529              	.LASF757:
 17530 1e06 72696768 		.ascii	"right_motor_disable_power_save\000"
 17530      745F6D6F 
 17530      746F725F 
 17530      64697361 
 17530      626C655F 
 17531              	.LASF321:
 17532 1e25 4144435F 		.ascii	"ADC_READY\000"
 17532      52454144 
 17532      5900
 17533              	.LASF769:
 17534 1e2f 6E616D65 		.ascii	"name\000"
 17534      00
 17535              	.LASF80:
 17536 1e34 76697274 		.ascii	"virtual_timers_list_t\000"
 17536      75616C5F 
 17536      74696D65 
 17536      72735F6C 
ARM GAS  /var/folders/j2/t8glr22d56s93xphj_30s8g80000gn/T//cc8l81ic.s 			page 334


 17536      6973745F 
 17537              	.LASF644:
 17538 1e4a 72657376 		.ascii	"resvd40C\000"
 17538      64343043 
 17538      00
 17539              	.LASF343:
 17540 1e53 63697263 		.ascii	"circular\000"
 17540      756C6172 
 17540      00
 17541              	.LASF476:
 17542 1e5c 69327373 		.ascii	"i2sstate_t\000"
 17542      74617465 
 17542      5F7400
 17543              	.LASF299:
 17544 1e67 6D6F6465 		.ascii	"moder\000"
 17544      7200
 17545              	.LASF216:
 17546 1e6d 735F7175 		.ascii	"s_queue\000"
 17546      65756500 
 17547              	.LASF205:
 17548 1e75 6D5F6372 		.ascii	"m_crit_thd\000"
 17548      69745F74 
 17548      686400
 17549              	.LASF375:
 17550 1e80 4441435F 		.ascii	"DAC_STOP\000"
 17550      53544F50 
 17550      00
 17551              	.LASF651:
 17552 1e89 72657376 		.ascii	"resvd700\000"
 17552      64373030 
 17552      00
 17553              	.LASF178:
 17554 1e92 49325343 		.ascii	"I2SCFGR\000"
 17554      46475200 
 17555              	.LASF224:
 17556 1e9a 63685F69 		.ascii	"ch_identifier\000"
 17556      64656E74 
 17556      69666965 
 17556      7200
 17557              	.LASF518:
 17558 1ea8 77726974 		.ascii	"writet\000"
 17558      657400
 17559              	.LASF1:
 17560 1eaf 6C6F6E67 		.ascii	"long long int\000"
 17560      206C6F6E 
 17560      6720696E 
 17560      7400
 17561              	.LASF638:
 17562 1ebd 48505458 		.ascii	"HPTXFSIZ\000"
 17562      4653495A 
 17562      00
 17563              	.LASF793:
 17564 1ec6 70776D45 		.ascii	"pwmEnableChannel\000"
 17564      6E61626C 
 17564      65436861 
 17564      6E6E656C 
 17564      00
ARM GAS  /var/folders/j2/t8glr22d56s93xphj_30s8g80000gn/T//cc8l81ic.s 			page 335


 17565              	.LASF231:
 17566 1ed7 63665F6F 		.ascii	"cf_off_prio\000"
 17566      66665F70 
 17566      72696F00 
 17567              	.LASF202:
 17568 1ee3 74696D65 		.ascii	"time_measurement_t\000"
 17568      5F6D6561 
 17568      73757265 
 17568      6D656E74 
 17568      5F7400
 17569              	.LASF800:
 17570 1ef6 63685654 		.ascii	"chVTGetSystemTime\000"
 17570      47657453 
 17570      79737465 
 17570      6D54696D 
 17570      6500
 17571              	.LASF539:
 17572 1f08 6765745F 		.ascii	"get_info\000"
 17572      696E666F 
 17572      00
 17573              	.LASF330:
 17574 1f11 61646365 		.ascii	"adcerror_t\000"
 17574      72726F72 
 17574      5F7400
 17575              	.LASF704:
 17576 1f1c 6765745F 		.ascii	"get_descriptor_cb\000"
 17576      64657363 
 17576      72697074 
 17576      6F725F63 
 17576      6200
 17577              	.LASF32:
 17578 1f2e 6576656E 		.ascii	"eventflags_t\000"
 17578      74666C61 
 17578      67735F74 
 17578      00
 17579              	.LASF543:
 17580 1f3b 5350495F 		.ascii	"SPI_READY\000"
 17580      52454144 
 17580      5900
 17581              	.LASF713:
 17582 1f45 4E554D5F 		.ascii	"NUM_RGB_LED\000"
 17582      5247425F 
 17582      4C454400 
 17583              	.LASF126:
 17584 1f51 73464946 		.ascii	"sFIFOMailBox\000"
 17584      4F4D6169 
 17584      6C426F78 
 17584      00
 17585              	.LASF531:
 17586 1f5e 6275735F 		.ascii	"bus_width\000"
 17586      77696474 
 17586      6800
 17587              	.LASF147:
 17588 1f68 44485238 		.ascii	"DHR8RD\000"
 17588      524400
 17589              	.LASF653:
 17590 1f6f 4443544C 		.ascii	"DCTL\000"
ARM GAS  /var/folders/j2/t8glr22d56s93xphj_30s8g80000gn/T//cc8l81ic.s 			page 336


 17590      00
 17591              	.LASF533:
 17592 1f74 53444344 		.ascii	"SDCDriverVMT\000"
 17592      72697665 
 17592      72564D54 
 17592      00
 17593              	.LASF770:
 17594 1f81 73797374 		.ascii	"systime\000"
 17594      696D6500 
 17595              	.LASF679:
 17596 1f89 74786275 		.ascii	"txbuf\000"
 17596      6600
 17597              	.LASF672:
 17598 1f8f 50434743 		.ascii	"PCGCCTL\000"
 17598      43544C00 
 17599              	.LASF590:
 17600 1f97 5553425F 		.ascii	"USB_EVENT_WAKEUP\000"
 17600      4556454E 
 17600      545F5741 
 17600      4B455550 
 17600      00
 17601              	.LASF776:
 17602 1fa8 5F5F7365 		.ascii	"__set_BASEPRI\000"
 17602      745F4241 
 17602      53455052 
 17602      4900
 17603              	.LASF42:
 17604 1fb6 705F6F6C 		.ascii	"p_older\000"
 17604      64657200 
 17605              	.LASF283:
 17606 1fbe 424C4B5F 		.ascii	"BLK_SYNCING\000"
 17606      53594E43 
 17606      494E4700 
 17607              	.LASF314:
 17608 1fca 50494461 		.ascii	"PIData\000"
 17608      746100
 17609              	.LASF748:
 17610 1fd1 72696768 		.ascii	"right_motor_set_pos\000"
 17610      745F6D6F 
 17610      746F725F 
 17610      7365745F 
 17610      706F7300 
 17611              	.LASF701:
 17612 1fe5 73657475 		.ascii	"setup_buf\000"
 17612      705F6275 
 17612      6600
 17613              	.LASF440:
 17614 1fef 47505444 		.ascii	"GPTD6\000"
 17614      3600
 17615              	.LASF346:
 17616 1ff5 6572726F 		.ascii	"error_cb\000"
 17616      725F6362 
 17616      00
 17617              	.LASF279:
 17618 1ffe 424C4B5F 		.ascii	"BLK_DISCONNECTING\000"
 17618      44495343 
 17618      4F4E4E45 
ARM GAS  /var/folders/j2/t8glr22d56s93xphj_30s8g80000gn/T//cc8l81ic.s 			page 337


 17618      4354494E 
 17618      4700
 17619              	.LASF549:
 17620 2010 7373706F 		.ascii	"ssport\000"
 17620      727400
 17621              	.LASF798:
 17622 2017 72696768 		.ascii	"right_motor_get_pos\000"
 17622      745F6D6F 
 17622      746F725F 
 17622      6765745F 
 17622      706F7300 
 17623              	.LASF58:
 17624 202b 74687265 		.ascii	"thread_reference_t\000"
 17624      61645F72 
 17624      65666572 
 17624      656E6365 
 17624      5F7400
 17625              	.LASF409:
 17626 203e 65787063 		.ascii	"expchannel_t\000"
 17626      68616E6E 
 17626      656C5F74 
 17626      00
 17627              	.LASF555:
 17628 204b 72656365 		.ascii	"receiving\000"
 17628      6976696E 
 17628      6700
 17629              	.LASF784:
 17630 2055 63685468 		.ascii	"chThdSleepUntilWindowed\000"
 17630      64536C65 
 17630      6570556E 
 17630      74696C57 
 17630      696E646F 
 17631              	.LASF436:
 17632 206d 66726571 		.ascii	"frequency\000"
 17632      75656E63 
 17632      7900
 17633              	.LASF782:
 17634 2077 5F737461 		.ascii	"_stats_start_measure_crit_thd\000"
 17634      74735F73 
 17634      74617274 
 17634      5F6D6561 
 17634      73757265 
 17635              	.LASF197:
 17636 2095 746D5F63 		.ascii	"tm_calibration_t\000"
 17636      616C6962 
 17636      72617469 
 17636      6F6E5F74 
 17636      00
 17637              	.LASF698:
 17638 20a6 696E5F73 		.ascii	"in_state\000"
 17638      74617465 
 17638      00
 17639              	.LASF181:
 17640 20af 47545052 		.ascii	"GTPR\000"
 17640      00
 17641              	.LASF225:
 17642 20b4 63685F7A 		.ascii	"ch_zero\000"
ARM GAS  /var/folders/j2/t8glr22d56s93xphj_30s8g80000gn/T//cc8l81ic.s 			page 338


 17642      65726F00 
 17643              	.LASF789:
 17644 20bc 70776D53 		.ascii	"pwmStart\000"
 17644      74617274 
 17644      00
 17645              	.LASF456:
 17646 20c5 46415354 		.ascii	"FAST_DUTY_CYCLE_2\000"
 17646      5F445554 
 17646      595F4359 
 17646      434C455F 
 17646      3200
 17647              	.LASF169:
 17648 20d7 44435452 		.ascii	"DCTRL\000"
 17648      4C00
 17649              	.LASF230:
 17650 20dd 63685F74 		.ascii	"ch_threadsize\000"
 17650      68726561 
 17650      6473697A 
 17650      6500
 17651              	.LASF158:
 17652 20eb 464C5452 		.ascii	"FLTR\000"
 17652      00
 17653              	.LASF427:
 17654 20f0 43434D52 		.ascii	"CCMR1\000"
 17654      3100
 17655              	.LASF428:
 17656 20f6 43434D52 		.ascii	"CCMR2\000"
 17656      3200
 17657              	.LASF432:
 17658 20fc 43434D52 		.ascii	"CCMR3\000"
 17658      3300
 17659              	.LASF0:
 17660 2102 756E7369 		.ascii	"unsigned int\000"
 17660      676E6564 
 17660      20696E74 
 17660      00
 17661              	.LASF350:
 17662 210f 73717232 		.ascii	"sqr2\000"
 17662      00
 17663              	.LASF351:
 17664 2114 73717233 		.ascii	"sqr3\000"
 17664      00
 17665              	.LASF642:
 17666 2119 48464952 		.ascii	"HFIR\000"
 17666      00
 17667              	.LASF572:
 17668 211e 5553425F 		.ascii	"USB_UNINIT\000"
 17668      554E494E 
 17668      495400
 17669              	.LASF268:
 17670 2129 73747265 		.ascii	"stream\000"
 17670      616D00
 17671              	.LASF353:
 17672 2130 64756D6D 		.ascii	"dummy\000"
 17672      7900
 17673              	.LASF454:
 17674 2136 6932636F 		.ascii	"i2copmode_t\000"
ARM GAS  /var/folders/j2/t8glr22d56s93xphj_30s8g80000gn/T//cc8l81ic.s 			page 339


 17674      706D6F64 
 17674      655F7400 
 17675              	.LASF246:
 17676 2142 6576656E 		.ascii	"event_listener\000"
 17676      745F6C69 
 17676      7374656E 
 17676      657200
 17677              	.LASF8:
 17678 2151 73686F72 		.ascii	"short int\000"
 17678      7420696E 
 17678      7400
 17679              	.LASF596:
 17680 215b 75736263 		.ascii	"usbcallback_t\000"
 17680      616C6C62 
 17680      61636B5F 
 17680      7400
 17681              	.LASF625:
 17682 2169 47555342 		.ascii	"GUSBCFG\000"
 17682      43464700 
 17683              	.LASF182:
 17684 2171 55534152 		.ascii	"USART_TypeDef\000"
 17684      545F5479 
 17684      70654465 
 17684      6600
 17685              	.LASF267:
 17686 217f 6F757470 		.ascii	"output_queue_t\000"
 17686      75745F71 
 17686      75657565 
 17686      5F7400
 17687              	.LASF674:
 17688 218e 73746D33 		.ascii	"stm32_otg_t\000"
 17688      325F6F74 
 17688      675F7400 
 17689              	.LASF477:
 17690 219a 49325344 		.ascii	"I2SDriver\000"
 17690      72697665 
 17690      7200
 17691              	.LASF461:
 17692 21a4 64757479 		.ascii	"duty_cycle\000"
 17692      5F637963 
 17692      6C6500
 17693              	.LASF484:
 17694 21af 49325343 		.ascii	"I2SConfig\000"
 17694      6F6E6669 
 17694      6700
 17695              	.LASF593:
 17696 21b9 75645F73 		.ascii	"ud_size\000"
 17696      697A6500 
 17697              	.LASF727:
 17698 21c1 64697361 		.ascii	"disable_power_save\000"
 17698      626C655F 
 17698      706F7765 
 17698      725F7361 
 17698      766500
 17699              	.LASF696:
 17700 21d4 696E5F6D 		.ascii	"in_maxsize\000"
 17700      61787369 
ARM GAS  /var/folders/j2/t8glr22d56s93xphj_30s8g80000gn/T//cc8l81ic.s 			page 340


 17700      7A6500
 17701              	.LASF311:
 17702 21df 50464461 		.ascii	"PFData\000"
 17702      746100
 17703              	.LASF405:
 17704 21e6 4558545F 		.ascii	"EXT_STOP\000"
 17704      53544F50 
 17704      00
 17705              	.LASF45:
 17706 21ef 705F7374 		.ascii	"p_state\000"
 17706      61746500 
 17707              	.LASF485:
 17708 21f7 49325344 		.ascii	"I2SD2\000"
 17708      3200
 17709              	.LASF534:
 17710 21fd 69735F69 		.ascii	"is_inserted\000"
 17710      6E736572 
 17710      74656400 
 17711              	.LASF61:
 17712 2209 63685F74 		.ascii	"ch_threads_list\000"
 17712      68726561 
 17712      64735F6C 
 17712      69737400 
 17713              	.LASF170:
 17714 2219 44434F55 		.ascii	"DCOUNT\000"
 17714      4E5400
 17715              	.LASF155:
 17716 2220 4F415231 		.ascii	"OAR1\000"
 17716      00
 17717              	.LASF156:
 17718 2225 4F415232 		.ascii	"OAR2\000"
 17718      00
 17719              	.LASF57:
 17720 222a 705F7374 		.ascii	"p_stats\000"
 17720      61747300 
 17721              	.LASF577:
 17722 2232 75736273 		.ascii	"usbstate_t\000"
 17722      74617465 
 17722      5F7400
 17723              		.ident	"GCC: (GNU Tools for Arm Embedded Processors 7-2017-q4-major) 7.2.1 20170904 (release) [ARM
ARM GAS  /var/folders/j2/t8glr22d56s93xphj_30s8g80000gn/T//cc8l81ic.s 			page 341


DEFINED SYMBOLS
                            *ABS*:0000000000000000 motors.c
/var/folders/j2/t8glr22d56s93xphj_30s8g80000gn/T//cc8l81ic.s:18     .text.right_motor_update:0000000000000000 $t
/var/folders/j2/t8glr22d56s93xphj_30s8g80000gn/T//cc8l81ic.s:25     .text.right_motor_update:0000000000000000 right_motor_update
/var/folders/j2/t8glr22d56s93xphj_30s8g80000gn/T//cc8l81ic.s:123    .text.right_motor_update:0000000000000080 $d
/var/folders/j2/t8glr22d56s93xphj_30s8g80000gn/T//cc8l81ic.s:129    .text.left_motor_update:0000000000000000 $t
/var/folders/j2/t8glr22d56s93xphj_30s8g80000gn/T//cc8l81ic.s:136    .text.left_motor_update:0000000000000000 left_motor_update
/var/folders/j2/t8glr22d56s93xphj_30s8g80000gn/T//cc8l81ic.s:233    .text.left_motor_update:0000000000000080 $d
/var/folders/j2/t8glr22d56s93xphj_30s8g80000gn/T//cc8l81ic.s:239    .text.right_motor_pwm_ch1_cb:0000000000000000 $t
/var/folders/j2/t8glr22d56s93xphj_30s8g80000gn/T//cc8l81ic.s:246    .text.right_motor_pwm_ch1_cb:0000000000000000 right_motor_pwm_ch1_cb
/var/folders/j2/t8glr22d56s93xphj_30s8g80000gn/T//cc8l81ic.s:301    .text.right_motor_pwm_ch1_cb:0000000000000034 $d
/var/folders/j2/t8glr22d56s93xphj_30s8g80000gn/T//cc8l81ic.s:307    .text.left_motor_pwm_ch1_cb:0000000000000000 $t
/var/folders/j2/t8glr22d56s93xphj_30s8g80000gn/T//cc8l81ic.s:314    .text.left_motor_pwm_ch1_cb:0000000000000000 left_motor_pwm_ch1_cb
/var/folders/j2/t8glr22d56s93xphj_30s8g80000gn/T//cc8l81ic.s:369    .text.left_motor_pwm_ch1_cb:0000000000000034 $d
/var/folders/j2/t8glr22d56s93xphj_30s8g80000gn/T//cc8l81ic.s:375    .text.right_motor_enable_power_save:0000000000000000 $t
/var/folders/j2/t8glr22d56s93xphj_30s8g80000gn/T//cc8l81ic.s:383    .text.right_motor_enable_power_save:0000000000000000 right_motor_enable_power_save
/var/folders/j2/t8glr22d56s93xphj_30s8g80000gn/T//cc8l81ic.s:434    .text.right_motor_enable_power_save:0000000000000030 $d
/var/folders/j2/t8glr22d56s93xphj_30s8g80000gn/T//cc8l81ic.s:440    .text.left_motor_enable_power_save:0000000000000000 $t
/var/folders/j2/t8glr22d56s93xphj_30s8g80000gn/T//cc8l81ic.s:448    .text.left_motor_enable_power_save:0000000000000000 left_motor_enable_power_save
/var/folders/j2/t8glr22d56s93xphj_30s8g80000gn/T//cc8l81ic.s:499    .text.left_motor_enable_power_save:0000000000000030 $d
/var/folders/j2/t8glr22d56s93xphj_30s8g80000gn/T//cc8l81ic.s:505    .text.right_motor_disable_power_save:0000000000000000 $t
/var/folders/j2/t8glr22d56s93xphj_30s8g80000gn/T//cc8l81ic.s:513    .text.right_motor_disable_power_save:0000000000000000 right_motor_disable_power_save
/var/folders/j2/t8glr22d56s93xphj_30s8g80000gn/T//cc8l81ic.s:553    .text.right_motor_disable_power_save:0000000000000024 $d
/var/folders/j2/t8glr22d56s93xphj_30s8g80000gn/T//cc8l81ic.s:559    .text.left_motor_disable_power_save:0000000000000000 $t
/var/folders/j2/t8glr22d56s93xphj_30s8g80000gn/T//cc8l81ic.s:567    .text.left_motor_disable_power_save:0000000000000000 left_motor_disable_power_save
/var/folders/j2/t8glr22d56s93xphj_30s8g80000gn/T//cc8l81ic.s:607    .text.left_motor_disable_power_save:0000000000000024 $d
/var/folders/j2/t8glr22d56s93xphj_30s8g80000gn/T//cc8l81ic.s:613    .text.right_motor_timer_callback:0000000000000000 $t
/var/folders/j2/t8glr22d56s93xphj_30s8g80000gn/T//cc8l81ic.s:620    .text.right_motor_timer_callback:0000000000000000 right_motor_timer_callback
/var/folders/j2/t8glr22d56s93xphj_30s8g80000gn/T//cc8l81ic.s:744    .text.right_motor_timer_callback:000000000000006c $d
/var/folders/j2/t8glr22d56s93xphj_30s8g80000gn/T//cc8l81ic.s:752    .text.left_motor_timer_callback:0000000000000000 $t
/var/folders/j2/t8glr22d56s93xphj_30s8g80000gn/T//cc8l81ic.s:759    .text.left_motor_timer_callback:0000000000000000 left_motor_timer_callback
/var/folders/j2/t8glr22d56s93xphj_30s8g80000gn/T//cc8l81ic.s:883    .text.left_motor_timer_callback:000000000000006c $d
/var/folders/j2/t8glr22d56s93xphj_30s8g80000gn/T//cc8l81ic.s:891    .text.Clignotant:0000000000000000 $t
/var/folders/j2/t8glr22d56s93xphj_30s8g80000gn/T//cc8l81ic.s:898    .text.Clignotant:0000000000000000 Clignotant
/var/folders/j2/t8glr22d56s93xphj_30s8g80000gn/T//cc8l81ic.s:1164   .text.Clignotant:00000000000000ec $d
/var/folders/j2/t8glr22d56s93xphj_30s8g80000gn/T//cc8l81ic.s:1173   .text.motor_set_speed:0000000000000000 $t
/var/folders/j2/t8glr22d56s93xphj_30s8g80000gn/T//cc8l81ic.s:1181   .text.motor_set_speed:0000000000000000 motor_set_speed
/var/folders/j2/t8glr22d56s93xphj_30s8g80000gn/T//cc8l81ic.s:1308   .text.motor_set_speed:0000000000000080 $d
/var/folders/j2/t8glr22d56s93xphj_30s8g80000gn/T//cc8l81ic.s:1315   .text.Depassement:0000000000000000 $t
/var/folders/j2/t8glr22d56s93xphj_30s8g80000gn/T//cc8l81ic.s:1322   .text.Depassement:0000000000000000 Depassement
/var/folders/j2/t8glr22d56s93xphj_30s8g80000gn/T//cc8l81ic.s:1877   .text.Depassement:0000000000000230 $d
/var/folders/j2/t8glr22d56s93xphj_30s8g80000gn/T//cc8l81ic.s:1890   .text.Deplacement:0000000000000000 $t
/var/folders/j2/t8glr22d56s93xphj_30s8g80000gn/T//cc8l81ic.s:1897   .text.Deplacement:0000000000000000 Deplacement
/var/folders/j2/t8glr22d56s93xphj_30s8g80000gn/T//cc8l81ic.s:2087   .text.Deplacement:0000000000000090 $d
/var/folders/j2/t8glr22d56s93xphj_30s8g80000gn/T//cc8l81ic.s:2098   .text.Manoeuvre:0000000000000000 $t
/var/folders/j2/t8glr22d56s93xphj_30s8g80000gn/T//cc8l81ic.s:2105   .text.Manoeuvre:0000000000000000 Manoeuvre
/var/folders/j2/t8glr22d56s93xphj_30s8g80000gn/T//cc8l81ic.s:2425   .text.Manoeuvre:000000000000011c $d
/var/folders/j2/t8glr22d56s93xphj_30s8g80000gn/T//cc8l81ic.s:2440   .text.left_motor_set_speed:0000000000000000 $t
/var/folders/j2/t8glr22d56s93xphj_30s8g80000gn/T//cc8l81ic.s:2448   .text.left_motor_set_speed:0000000000000000 left_motor_set_speed
/var/folders/j2/t8glr22d56s93xphj_30s8g80000gn/T//cc8l81ic.s:2490   .text.left_motor_set_speed:0000000000000024 $d
/var/folders/j2/t8glr22d56s93xphj_30s8g80000gn/T//cc8l81ic.s:2496   .text.right_motor_set_speed:0000000000000000 $t
/var/folders/j2/t8glr22d56s93xphj_30s8g80000gn/T//cc8l81ic.s:2504   .text.right_motor_set_speed:0000000000000000 right_motor_set_speed
/var/folders/j2/t8glr22d56s93xphj_30s8g80000gn/T//cc8l81ic.s:2546   .text.right_motor_set_speed:0000000000000024 $d
/var/folders/j2/t8glr22d56s93xphj_30s8g80000gn/T//cc8l81ic.s:2552   .text.left_motor_get_pos:0000000000000000 $t
/var/folders/j2/t8glr22d56s93xphj_30s8g80000gn/T//cc8l81ic.s:2560   .text.left_motor_get_pos:0000000000000000 left_motor_get_pos
/var/folders/j2/t8glr22d56s93xphj_30s8g80000gn/T//cc8l81ic.s:2601   .text.left_motor_get_pos:0000000000000028 $d
/var/folders/j2/t8glr22d56s93xphj_30s8g80000gn/T//cc8l81ic.s:2607   .text.right_motor_get_pos:0000000000000000 $t
ARM GAS  /var/folders/j2/t8glr22d56s93xphj_30s8g80000gn/T//cc8l81ic.s 			page 342


/var/folders/j2/t8glr22d56s93xphj_30s8g80000gn/T//cc8l81ic.s:2615   .text.right_motor_get_pos:0000000000000000 right_motor_get_pos
/var/folders/j2/t8glr22d56s93xphj_30s8g80000gn/T//cc8l81ic.s:2656   .text.right_motor_get_pos:0000000000000028 $d
/var/folders/j2/t8glr22d56s93xphj_30s8g80000gn/T//cc8l81ic.s:2662   .text.left_motor_set_pos:0000000000000000 $t
/var/folders/j2/t8glr22d56s93xphj_30s8g80000gn/T//cc8l81ic.s:2670   .text.left_motor_set_pos:0000000000000000 left_motor_set_pos
/var/folders/j2/t8glr22d56s93xphj_30s8g80000gn/T//cc8l81ic.s:2712   .text.left_motor_set_pos:0000000000000024 $d
/var/folders/j2/t8glr22d56s93xphj_30s8g80000gn/T//cc8l81ic.s:2718   .text.right_motor_set_pos:0000000000000000 $t
/var/folders/j2/t8glr22d56s93xphj_30s8g80000gn/T//cc8l81ic.s:2726   .text.right_motor_set_pos:0000000000000000 right_motor_set_pos
/var/folders/j2/t8glr22d56s93xphj_30s8g80000gn/T//cc8l81ic.s:2768   .text.right_motor_set_pos:0000000000000024 $d
/var/folders/j2/t8glr22d56s93xphj_30s8g80000gn/T//cc8l81ic.s:2774   .text.motors_init:0000000000000000 $t
/var/folders/j2/t8glr22d56s93xphj_30s8g80000gn/T//cc8l81ic.s:2782   .text.motors_init:0000000000000000 motors_init
/var/folders/j2/t8glr22d56s93xphj_30s8g80000gn/T//cc8l81ic.s:2899   .text.motors_init:0000000000000078 $d
/var/folders/j2/t8glr22d56s93xphj_30s8g80000gn/T//cc8l81ic.s:2917   .text.clignotant_start:0000000000000000 $t
/var/folders/j2/t8glr22d56s93xphj_30s8g80000gn/T//cc8l81ic.s:2925   .text.clignotant_start:0000000000000000 clignotant_start
/var/folders/j2/t8glr22d56s93xphj_30s8g80000gn/T//cc8l81ic.s:2972   .text.clignotant_start:000000000000002c $d
/var/folders/j2/t8glr22d56s93xphj_30s8g80000gn/T//cc8l81ic.s:2979   .text.depassement_start:0000000000000000 $t
/var/folders/j2/t8glr22d56s93xphj_30s8g80000gn/T//cc8l81ic.s:2987   .text.depassement_start:0000000000000000 depassement_start
/var/folders/j2/t8glr22d56s93xphj_30s8g80000gn/T//cc8l81ic.s:3034   .text.depassement_start:000000000000002c $d
/var/folders/j2/t8glr22d56s93xphj_30s8g80000gn/T//cc8l81ic.s:3041   .text.manoeuvre_start:0000000000000000 $t
/var/folders/j2/t8glr22d56s93xphj_30s8g80000gn/T//cc8l81ic.s:3049   .text.manoeuvre_start:0000000000000000 manoeuvre_start
/var/folders/j2/t8glr22d56s93xphj_30s8g80000gn/T//cc8l81ic.s:3096   .text.manoeuvre_start:000000000000002c $d
/var/folders/j2/t8glr22d56s93xphj_30s8g80000gn/T//cc8l81ic.s:3103   .text.deplacement_start:0000000000000000 $t
/var/folders/j2/t8glr22d56s93xphj_30s8g80000gn/T//cc8l81ic.s:3111   .text.deplacement_start:0000000000000000 deplacement_start
/var/folders/j2/t8glr22d56s93xphj_30s8g80000gn/T//cc8l81ic.s:3158   .text.deplacement_start:000000000000002c $d
/var/folders/j2/t8glr22d56s93xphj_30s8g80000gn/T//cc8l81ic.s:3178   .bss.left_motor:0000000000000000 left_motor
/var/folders/j2/t8glr22d56s93xphj_30s8g80000gn/T//cc8l81ic.s:3185   .bss.right_motor:0000000000000000 right_motor
/var/folders/j2/t8glr22d56s93xphj_30s8g80000gn/T//cc8l81ic.s:3167   .bss.cligno:0000000000000000 $d
/var/folders/j2/t8glr22d56s93xphj_30s8g80000gn/T//cc8l81ic.s:3171   .bss.cligno:0000000000000000 cligno
/var/folders/j2/t8glr22d56s93xphj_30s8g80000gn/T//cc8l81ic.s:3174   .bss.left_motor:0000000000000000 $d
/var/folders/j2/t8glr22d56s93xphj_30s8g80000gn/T//cc8l81ic.s:3181   .bss.right_motor:0000000000000000 $d
/var/folders/j2/t8glr22d56s93xphj_30s8g80000gn/T//cc8l81ic.s:3188   .bss.waClignotant:0000000000000000 $d
/var/folders/j2/t8glr22d56s93xphj_30s8g80000gn/T//cc8l81ic.s:3192   .bss.waClignotant:0000000000000000 waClignotant
/var/folders/j2/t8glr22d56s93xphj_30s8g80000gn/T//cc8l81ic.s:3195   .bss.waDepassement:0000000000000000 $d
/var/folders/j2/t8glr22d56s93xphj_30s8g80000gn/T//cc8l81ic.s:3199   .bss.waDepassement:0000000000000000 waDepassement
/var/folders/j2/t8glr22d56s93xphj_30s8g80000gn/T//cc8l81ic.s:3202   .bss.waDeplacement:0000000000000000 $d
/var/folders/j2/t8glr22d56s93xphj_30s8g80000gn/T//cc8l81ic.s:3206   .bss.waDeplacement:0000000000000000 waDeplacement
/var/folders/j2/t8glr22d56s93xphj_30s8g80000gn/T//cc8l81ic.s:3209   .bss.waManoeuvre:0000000000000000 $d
/var/folders/j2/t8glr22d56s93xphj_30s8g80000gn/T//cc8l81ic.s:3213   .bss.waManoeuvre:0000000000000000 waManoeuvre
/var/folders/j2/t8glr22d56s93xphj_30s8g80000gn/T//cc8l81ic.s:3216   .data.mobile:0000000000000000 $d
/var/folders/j2/t8glr22d56s93xphj_30s8g80000gn/T//cc8l81ic.s:3220   .data.mobile:0000000000000000 mobile
/var/folders/j2/t8glr22d56s93xphj_30s8g80000gn/T//cc8l81ic.s:3223   .rodata.__FUNCTION__.10003:0000000000000000 $d
/var/folders/j2/t8glr22d56s93xphj_30s8g80000gn/T//cc8l81ic.s:3227   .rodata.__FUNCTION__.10003:0000000000000000 __FUNCTION__.10003
/var/folders/j2/t8glr22d56s93xphj_30s8g80000gn/T//cc8l81ic.s:3230   .rodata.__FUNCTION__.10013:0000000000000000 $d
/var/folders/j2/t8glr22d56s93xphj_30s8g80000gn/T//cc8l81ic.s:3234   .rodata.__FUNCTION__.10013:0000000000000000 __FUNCTION__.10013
/var/folders/j2/t8glr22d56s93xphj_30s8g80000gn/T//cc8l81ic.s:3237   .rodata.__FUNCTION__.10020:0000000000000000 $d
/var/folders/j2/t8glr22d56s93xphj_30s8g80000gn/T//cc8l81ic.s:3241   .rodata.__FUNCTION__.10020:0000000000000000 __FUNCTION__.10020
/var/folders/j2/t8glr22d56s93xphj_30s8g80000gn/T//cc8l81ic.s:3244   .rodata.__FUNCTION__.10027:0000000000000000 $d
/var/folders/j2/t8glr22d56s93xphj_30s8g80000gn/T//cc8l81ic.s:3248   .rodata.__FUNCTION__.10027:0000000000000000 __FUNCTION__.10027
/var/folders/j2/t8glr22d56s93xphj_30s8g80000gn/T//cc8l81ic.s:3251   .rodata.__func__.7153:0000000000000000 $d
/var/folders/j2/t8glr22d56s93xphj_30s8g80000gn/T//cc8l81ic.s:3255   .rodata.__func__.7153:0000000000000000 __func__.7153
/var/folders/j2/t8glr22d56s93xphj_30s8g80000gn/T//cc8l81ic.s:3258   .rodata.pwmcfg_left_motor.9998:0000000000000000 $d
/var/folders/j2/t8glr22d56s93xphj_30s8g80000gn/T//cc8l81ic.s:3262   .rodata.pwmcfg_left_motor.9998:0000000000000000 pwmcfg_left_motor.9998
/var/folders/j2/t8glr22d56s93xphj_30s8g80000gn/T//cc8l81ic.s:3277   .rodata.pwmcfg_right_motor.9997:0000000000000000 $d
/var/folders/j2/t8glr22d56s93xphj_30s8g80000gn/T//cc8l81ic.s:3281   .rodata.pwmcfg_right_motor.9997:0000000000000000 pwmcfg_right_motor.9997
/var/folders/j2/t8glr22d56s93xphj_30s8g80000gn/T//cc8l81ic.s:3296   .rodata.step_halt:0000000000000000 $d
/var/folders/j2/t8glr22d56s93xphj_30s8g80000gn/T//cc8l81ic.s:3300   .rodata.step_halt:0000000000000000 step_halt
/var/folders/j2/t8glr22d56s93xphj_30s8g80000gn/T//cc8l81ic.s:3303   .rodata.step_table:0000000000000000 $d
/var/folders/j2/t8glr22d56s93xphj_30s8g80000gn/T//cc8l81ic.s:3307   .rodata.step_table:0000000000000000 step_table
ARM GAS  /var/folders/j2/t8glr22d56s93xphj_30s8g80000gn/T//cc8l81ic.s 			page 343



UNDEFINED SYMBOLS
__stack_chk_fail
__stack_chk_guard
pwmEnableChannel
pwmEnableChannelNotification
PWMD3
PWMD4
pwmDisableChannel
set_rgb_led
chThdSleepUntilWindowed
_stats_start_measure_crit_thd
_dbg_check_lock
_dbg_check_unlock
_stats_stop_measure_crit_thd
chSysHalt
toggle_rgb_led
ch
pwmChangePeriod
get_calibrated_prox
chThdSleep
pwmStart
pwmEnablePeriodicNotification
chThdCreateStatic
