ARM GAS  /var/folders/j2/t8glr22d56s93xphj_30s8g80000gn/T//cc8l81ic.s 			page 1


   1              		.cpu cortex-m4
   2              		.eabi_attribute 27, 1
   3              		.eabi_attribute 28, 1
   4              		.eabi_attribute 20, 1
   5              		.eabi_attribute 21, 1
   6              		.eabi_attribute 23, 3
   7              		.eabi_attribute 24, 1
   8              		.eabi_attribute 25, 1
   9              		.eabi_attribute 26, 1
  10              		.eabi_attribute 30, 2
  11              		.eabi_attribute 34, 1
  12              		.eabi_attribute 18, 4
  13              		.file	"motors.c"
  14              		.text
  15              	.Ltext0:
  16              		.cfi_sections	.debug_frame
  17              		.section	.text.right_motor_update,"ax",%progbits
  18              		.align	1
  19              		.p2align 4,,15
  20              		.syntax unified
  21              		.thumb
  22              		.thumb_func
  23              		.fpu fpv4-sp-d16
  24              		.type	right_motor_update, %function
  25              	right_motor_update:
  26              	.LFB256:
  27              		.file 1 "../../lib/e-puck2_main-processor/src/motors.c"
  28              		.loc 1 55 0
  29              		.cfi_startproc
  30              		@ args = 0, pretend = 0, frame = 8
  31              		@ frame_needed = 0, uses_anonymous_args = 0
  32              	.LVL0:
  33 0000 00B5     		push	{lr}
  34              		.cfi_def_cfa_offset 4
  35              		.cfi_offset 14, -4
  36 0002 1F4B     		ldr	r3, .L17
  37              		.loc 1 57 0
  38 0004 0278     		ldrb	r2, [r0]	@ zero_extendqisi2
  39              		.loc 1 55 0
  40 0006 1968     		ldr	r1, [r3]
  41 0008 83B0     		sub	sp, sp, #12
  42              		.cfi_def_cfa_offset 16
  43              		.loc 1 55 0
  44 000a 0191     		str	r1, [sp, #4]
  45              		.loc 1 57 0
  46 000c E2B1     		cbz	r2, .L2
  47              		.loc 1 57 0 is_stmt 0 discriminator 1
  48 000e 1D4A     		ldr	r2, .L17+4
  49 0010 4FF40051 		mov	r1, #8192
  50 0014 1183     		strh	r1, [r2, #24]	@ movhi
  51              		.loc 1 58 0 is_stmt 1 discriminator 1
  52 0016 4278     		ldrb	r2, [r0, #1]	@ zero_extendqisi2
  53 0018 EAB1     		cbz	r2, .L4
  54              	.L15:
  55 001a 1A4A     		ldr	r2, .L17+4
  56 001c 4FF48051 		mov	r1, #4096
  57 0020 1183     		strh	r1, [r2, #24]	@ movhi
ARM GAS  /var/folders/j2/t8glr22d56s93xphj_30s8g80000gn/T//cc8l81ic.s 			page 2


  58              		.loc 1 59 0 discriminator 1
  59 0022 8278     		ldrb	r2, [r0, #2]	@ zero_extendqisi2
  60 0024 F2B1     		cbz	r2, .L6
  61              	.L16:
  62 0026 174A     		ldr	r2, .L17+4
  63 0028 4FF48041 		mov	r1, #16384
  64 002c 1183     		strh	r1, [r2, #24]	@ movhi
  65              		.loc 1 60 0 discriminator 1
  66 002e C278     		ldrb	r2, [r0, #3]	@ zero_extendqisi2
  67 0030 FAB9     		cbnz	r2, .L13
  68              	.L8:
  69              		.loc 1 60 0 is_stmt 0 discriminator 2
  70 0032 144A     		ldr	r2, .L17+4
  71 0034 4FF40041 		mov	r1, #32768
  72 0038 5183     		strh	r1, [r2, #26]	@ movhi
  73              	.L1:
  74              		.loc 1 61 0 is_stmt 1
  75 003a 019A     		ldr	r2, [sp, #4]
  76 003c 1B68     		ldr	r3, [r3]
  77 003e 9A42     		cmp	r2, r3
  78 0040 1CD1     		bne	.L14
  79 0042 03B0     		add	sp, sp, #12
  80              		.cfi_remember_state
  81              		.cfi_def_cfa_offset 4
  82              		@ sp needed
  83 0044 5DF804FB 		ldr	pc, [sp], #4
  84              	.L2:
  85              		.cfi_restore_state
  86              		.loc 1 57 0 discriminator 2
  87 0048 0E4A     		ldr	r2, .L17+4
  88 004a 4FF40051 		mov	r1, #8192
  89 004e 5183     		strh	r1, [r2, #26]	@ movhi
  90              		.loc 1 58 0 discriminator 2
  91 0050 4278     		ldrb	r2, [r0, #1]	@ zero_extendqisi2
  92 0052 002A     		cmp	r2, #0
  93 0054 E1D1     		bne	.L15
  94              	.L4:
  95 0056 0B4A     		ldr	r2, .L17+4
  96 0058 4FF48051 		mov	r1, #4096
  97 005c 5183     		strh	r1, [r2, #26]	@ movhi
  98              		.loc 1 59 0 discriminator 2
  99 005e 8278     		ldrb	r2, [r0, #2]	@ zero_extendqisi2
 100 0060 002A     		cmp	r2, #0
 101 0062 E0D1     		bne	.L16
 102              	.L6:
 103 0064 074A     		ldr	r2, .L17+4
 104 0066 4FF48041 		mov	r1, #16384
 105 006a 5183     		strh	r1, [r2, #26]	@ movhi
 106              		.loc 1 60 0 discriminator 2
 107 006c C278     		ldrb	r2, [r0, #3]	@ zero_extendqisi2
 108 006e 002A     		cmp	r2, #0
 109 0070 DFD0     		beq	.L8
 110              	.L13:
 111              		.loc 1 60 0 is_stmt 0 discriminator 1
 112 0072 044A     		ldr	r2, .L17+4
 113 0074 4FF40041 		mov	r1, #32768
 114 0078 1183     		strh	r1, [r2, #24]	@ movhi
ARM GAS  /var/folders/j2/t8glr22d56s93xphj_30s8g80000gn/T//cc8l81ic.s 			page 3


 115 007a DEE7     		b	.L1
 116              	.L14:
 117              		.loc 1 61 0 is_stmt 1
 118 007c FFF7FEFF 		bl	__stack_chk_fail
 119              	.LVL1:
 120              	.L18:
 121              		.align	2
 122              	.L17:
 123 0080 00000000 		.word	__stack_chk_guard
 124 0084 00100240 		.word	1073876992
 125              		.cfi_endproc
 126              	.LFE256:
 127              		.size	right_motor_update, .-right_motor_update
 128              		.section	.text.left_motor_update,"ax",%progbits
 129              		.align	1
 130              		.p2align 4,,15
 131              		.syntax unified
 132              		.thumb
 133              		.thumb_func
 134              		.fpu fpv4-sp-d16
 135              		.type	left_motor_update, %function
 136              	left_motor_update:
 137              	.LFB257:
 138              		.loc 1 70 0
 139              		.cfi_startproc
 140              		@ args = 0, pretend = 0, frame = 8
 141              		@ frame_needed = 0, uses_anonymous_args = 0
 142              	.LVL2:
 143 0000 00B5     		push	{lr}
 144              		.cfi_def_cfa_offset 4
 145              		.cfi_offset 14, -4
 146 0002 1F4B     		ldr	r3, .L34
 147              		.loc 1 72 0
 148 0004 0278     		ldrb	r2, [r0]	@ zero_extendqisi2
 149              		.loc 1 70 0
 150 0006 1968     		ldr	r1, [r3]
 151 0008 83B0     		sub	sp, sp, #12
 152              		.cfi_def_cfa_offset 16
 153              		.loc 1 70 0
 154 000a 0191     		str	r1, [sp, #4]
 155              		.loc 1 72 0
 156 000c E2B1     		cbz	r2, .L20
 157              		.loc 1 72 0 is_stmt 0 discriminator 1
 158 000e 1D4A     		ldr	r2, .L34+4
 159 0010 4FF40071 		mov	r1, #512
 160 0014 1183     		strh	r1, [r2, #24]	@ movhi
 161              		.loc 1 73 0 is_stmt 1 discriminator 1
 162 0016 4278     		ldrb	r2, [r0, #1]	@ zero_extendqisi2
 163 0018 EAB1     		cbz	r2, .L22
 164              	.L32:
 165 001a 1A4A     		ldr	r2, .L34+4
 166 001c 4FF48071 		mov	r1, #256
 167 0020 1183     		strh	r1, [r2, #24]	@ movhi
 168              		.loc 1 74 0 discriminator 1
 169 0022 8278     		ldrb	r2, [r0, #2]	@ zero_extendqisi2
 170 0024 F2B1     		cbz	r2, .L24
 171              	.L33:
ARM GAS  /var/folders/j2/t8glr22d56s93xphj_30s8g80000gn/T//cc8l81ic.s 			page 4


 172 0026 174A     		ldr	r2, .L34+4
 173 0028 4FF40061 		mov	r1, #2048
 174 002c 1183     		strh	r1, [r2, #24]	@ movhi
 175              		.loc 1 75 0 discriminator 1
 176 002e C278     		ldrb	r2, [r0, #3]	@ zero_extendqisi2
 177 0030 FAB9     		cbnz	r2, .L30
 178              	.L26:
 179              		.loc 1 75 0 is_stmt 0 discriminator 2
 180 0032 144A     		ldr	r2, .L34+4
 181 0034 4FF48061 		mov	r1, #1024
 182 0038 5183     		strh	r1, [r2, #26]	@ movhi
 183              	.L19:
 184              		.loc 1 76 0 is_stmt 1
 185 003a 019A     		ldr	r2, [sp, #4]
 186 003c 1B68     		ldr	r3, [r3]
 187 003e 9A42     		cmp	r2, r3
 188 0040 1CD1     		bne	.L31
 189 0042 03B0     		add	sp, sp, #12
 190              		.cfi_remember_state
 191              		.cfi_def_cfa_offset 4
 192              		@ sp needed
 193 0044 5DF804FB 		ldr	pc, [sp], #4
 194              	.L20:
 195              		.cfi_restore_state
 196              		.loc 1 72 0 discriminator 2
 197 0048 0E4A     		ldr	r2, .L34+4
 198 004a 4FF40071 		mov	r1, #512
 199 004e 5183     		strh	r1, [r2, #26]	@ movhi
 200              		.loc 1 73 0 discriminator 2
 201 0050 4278     		ldrb	r2, [r0, #1]	@ zero_extendqisi2
 202 0052 002A     		cmp	r2, #0
 203 0054 E1D1     		bne	.L32
 204              	.L22:
 205 0056 0B4A     		ldr	r2, .L34+4
 206 0058 4FF48071 		mov	r1, #256
 207 005c 5183     		strh	r1, [r2, #26]	@ movhi
 208              		.loc 1 74 0 discriminator 2
 209 005e 8278     		ldrb	r2, [r0, #2]	@ zero_extendqisi2
 210 0060 002A     		cmp	r2, #0
 211 0062 E0D1     		bne	.L33
 212              	.L24:
 213 0064 074A     		ldr	r2, .L34+4
 214 0066 4FF40061 		mov	r1, #2048
 215 006a 5183     		strh	r1, [r2, #26]	@ movhi
 216              		.loc 1 75 0 discriminator 2
 217 006c C278     		ldrb	r2, [r0, #3]	@ zero_extendqisi2
 218 006e 002A     		cmp	r2, #0
 219 0070 DFD0     		beq	.L26
 220              	.L30:
 221              		.loc 1 75 0 is_stmt 0 discriminator 1
 222 0072 044A     		ldr	r2, .L34+4
 223 0074 4FF48061 		mov	r1, #1024
 224 0078 1183     		strh	r1, [r2, #24]	@ movhi
 225 007a DEE7     		b	.L19
 226              	.L31:
 227              		.loc 1 76 0 is_stmt 1
 228 007c FFF7FEFF 		bl	__stack_chk_fail
ARM GAS  /var/folders/j2/t8glr22d56s93xphj_30s8g80000gn/T//cc8l81ic.s 			page 5


 229              	.LVL3:
 230              	.L35:
 231              		.align	2
 232              	.L34:
 233 0080 00000000 		.word	__stack_chk_guard
 234 0084 00100240 		.word	1073876992
 235              		.cfi_endproc
 236              	.LFE257:
 237              		.size	left_motor_update, .-left_motor_update
 238              		.section	.text.right_motor_pwm_ch1_cb,"ax",%progbits
 239              		.align	1
 240              		.p2align 4,,15
 241              		.syntax unified
 242              		.thumb
 243              		.thumb_func
 244              		.fpu fpv4-sp-d16
 245              		.type	right_motor_pwm_ch1_cb, %function
 246              	right_motor_pwm_ch1_cb:
 247              	.LFB260:
 248              		.loc 1 135 0
 249              		.cfi_startproc
 250              		@ args = 0, pretend = 0, frame = 8
 251              		@ frame_needed = 0, uses_anonymous_args = 0
 252              	.LVL4:
 253 0000 30B5     		push	{r4, r5, lr}
 254              		.cfi_def_cfa_offset 12
 255              		.cfi_offset 4, -12
 256              		.cfi_offset 5, -8
 257              		.cfi_offset 14, -4
 258 0002 0C4A     		ldr	r2, .L40
 259              		.loc 1 137 0
 260 0004 0C4B     		ldr	r3, .L40+4
 261              		.loc 1 135 0
 262 0006 1168     		ldr	r1, [r2]
 263 0008 83B0     		sub	sp, sp, #12
 264              		.cfi_def_cfa_offset 24
 265              		.loc 1 137 0
 266 000a 4FF40055 		mov	r5, #8192
 267              		.loc 1 135 0
 268 000e 0191     		str	r1, [sp, #4]
 269              		.loc 1 138 0
 270 0010 4FF48054 		mov	r4, #4096
 271              		.loc 1 140 0
 272 0014 4FF40041 		mov	r1, #32768
 273              		.loc 1 139 0
 274 0018 4FF48040 		mov	r0, #16384
 275              	.LVL5:
 276              		.loc 1 137 0
 277 001c 5D83     		strh	r5, [r3, #26]	@ movhi
 278              		.loc 1 138 0
 279 001e 5C83     		strh	r4, [r3, #26]	@ movhi
 280              		.loc 1 139 0
 281 0020 5883     		strh	r0, [r3, #26]	@ movhi
 282              		.loc 1 140 0
 283 0022 5983     		strh	r1, [r3, #26]	@ movhi
 284              		.loc 1 141 0
 285 0024 0199     		ldr	r1, [sp, #4]
ARM GAS  /var/folders/j2/t8glr22d56s93xphj_30s8g80000gn/T//cc8l81ic.s 			page 6


 286 0026 1368     		ldr	r3, [r2]
 287 0028 9942     		cmp	r1, r3
 288 002a 01D1     		bne	.L39
 289 002c 03B0     		add	sp, sp, #12
 290              		.cfi_remember_state
 291              		.cfi_def_cfa_offset 12
 292              		@ sp needed
 293 002e 30BD     		pop	{r4, r5, pc}
 294              	.L39:
 295              		.cfi_restore_state
 296 0030 FFF7FEFF 		bl	__stack_chk_fail
 297              	.LVL6:
 298              	.L41:
 299              		.align	2
 300              	.L40:
 301 0034 00000000 		.word	__stack_chk_guard
 302 0038 00100240 		.word	1073876992
 303              		.cfi_endproc
 304              	.LFE260:
 305              		.size	right_motor_pwm_ch1_cb, .-right_motor_pwm_ch1_cb
 306              		.section	.text.left_motor_pwm_ch1_cb,"ax",%progbits
 307              		.align	1
 308              		.p2align 4,,15
 309              		.syntax unified
 310              		.thumb
 311              		.thumb_func
 312              		.fpu fpv4-sp-d16
 313              		.type	left_motor_pwm_ch1_cb, %function
 314              	left_motor_pwm_ch1_cb:
 315              	.LFB261:
 316              		.loc 1 150 0
 317              		.cfi_startproc
 318              		@ args = 0, pretend = 0, frame = 8
 319              		@ frame_needed = 0, uses_anonymous_args = 0
 320              	.LVL7:
 321 0000 30B5     		push	{r4, r5, lr}
 322              		.cfi_def_cfa_offset 12
 323              		.cfi_offset 4, -12
 324              		.cfi_offset 5, -8
 325              		.cfi_offset 14, -4
 326 0002 0C4A     		ldr	r2, .L46
 327              		.loc 1 152 0
 328 0004 0C4B     		ldr	r3, .L46+4
 329              		.loc 1 150 0
 330 0006 1168     		ldr	r1, [r2]
 331 0008 83B0     		sub	sp, sp, #12
 332              		.cfi_def_cfa_offset 24
 333              		.loc 1 152 0
 334 000a 4FF40075 		mov	r5, #512
 335              		.loc 1 150 0
 336 000e 0191     		str	r1, [sp, #4]
 337              		.loc 1 153 0
 338 0010 4FF48074 		mov	r4, #256
 339              		.loc 1 155 0
 340 0014 4FF48061 		mov	r1, #1024
 341              		.loc 1 154 0
 342 0018 4FF40060 		mov	r0, #2048
ARM GAS  /var/folders/j2/t8glr22d56s93xphj_30s8g80000gn/T//cc8l81ic.s 			page 7


 343              	.LVL8:
 344              		.loc 1 152 0
 345 001c 5D83     		strh	r5, [r3, #26]	@ movhi
 346              		.loc 1 153 0
 347 001e 5C83     		strh	r4, [r3, #26]	@ movhi
 348              		.loc 1 154 0
 349 0020 5883     		strh	r0, [r3, #26]	@ movhi
 350              		.loc 1 155 0
 351 0022 5983     		strh	r1, [r3, #26]	@ movhi
 352              		.loc 1 156 0
 353 0024 0199     		ldr	r1, [sp, #4]
 354 0026 1368     		ldr	r3, [r2]
 355 0028 9942     		cmp	r1, r3
 356 002a 01D1     		bne	.L45
 357 002c 03B0     		add	sp, sp, #12
 358              		.cfi_remember_state
 359              		.cfi_def_cfa_offset 12
 360              		@ sp needed
 361 002e 30BD     		pop	{r4, r5, pc}
 362              	.L45:
 363              		.cfi_restore_state
 364 0030 FFF7FEFF 		bl	__stack_chk_fail
 365              	.LVL9:
 366              	.L47:
 367              		.align	2
 368              	.L46:
 369 0034 00000000 		.word	__stack_chk_guard
 370 0038 00100240 		.word	1073876992
 371              		.cfi_endproc
 372              	.LFE261:
 373              		.size	left_motor_pwm_ch1_cb, .-left_motor_pwm_ch1_cb
 374              		.section	.text.right_motor_enable_power_save,"ax",%progbits
 375              		.align	1
 376              		.p2align 4,,15
 377              		.global	right_motor_enable_power_save
 378              		.syntax unified
 379              		.thumb
 380              		.thumb_func
 381              		.fpu fpv4-sp-d16
 382              		.type	right_motor_enable_power_save, %function
 383              	right_motor_enable_power_save:
 384              	.LFB262:
 385              		.loc 1 161 0
 386              		.cfi_startproc
 387              		@ args = 0, pretend = 0, frame = 8
 388              		@ frame_needed = 0, uses_anonymous_args = 0
 389 0000 10B5     		push	{r4, lr}
 390              		.cfi_def_cfa_offset 8
 391              		.cfi_offset 4, -8
 392              		.cfi_offset 14, -4
 393 0002 0B4C     		ldr	r4, .L53
 394              		.loc 1 163 0
 395 0004 0B48     		ldr	r0, .L53+4
 396              		.loc 1 161 0
 397 0006 2368     		ldr	r3, [r4]
 398 0008 82B0     		sub	sp, sp, #8
 399              		.cfi_def_cfa_offset 16
ARM GAS  /var/folders/j2/t8glr22d56s93xphj_30s8g80000gn/T//cc8l81ic.s 			page 8


 400              		.loc 1 163 0
 401 000a 9922     		movs	r2, #153
 402 000c 0021     		movs	r1, #0
 403              		.loc 1 161 0
 404 000e 0193     		str	r3, [sp, #4]
 405              		.loc 1 163 0
 406 0010 FFF7FEFF 		bl	pwmEnableChannel
 407              	.LVL10:
 408              		.loc 1 165 0
 409 0014 019A     		ldr	r2, [sp, #4]
 410 0016 2368     		ldr	r3, [r4]
 411 0018 9A42     		cmp	r2, r3
 412 001a 06D1     		bne	.L52
 413 001c 0548     		ldr	r0, .L53+4
 414 001e 0021     		movs	r1, #0
 415              		.loc 1 166 0
 416 0020 02B0     		add	sp, sp, #8
 417              		.cfi_remember_state
 418              		.cfi_def_cfa_offset 8
 419              		@ sp needed
 420 0022 BDE81040 		pop	{r4, lr}
 421              		.cfi_restore 14
 422              		.cfi_restore 4
 423              		.cfi_def_cfa_offset 0
 424              		.loc 1 165 0
 425 0026 FFF7FEBF 		b	pwmEnableChannelNotification
 426              	.LVL11:
 427              	.L52:
 428              		.cfi_restore_state
 429 002a FFF7FEFF 		bl	__stack_chk_fail
 430              	.LVL12:
 431              	.L54:
 432 002e 00BF     		.align	2
 433              	.L53:
 434 0030 00000000 		.word	__stack_chk_guard
 435 0034 00000000 		.word	PWMD3
 436              		.cfi_endproc
 437              	.LFE262:
 438              		.size	right_motor_enable_power_save, .-right_motor_enable_power_save
 439              		.section	.text.left_motor_enable_power_save,"ax",%progbits
 440              		.align	1
 441              		.p2align 4,,15
 442              		.global	left_motor_enable_power_save
 443              		.syntax unified
 444              		.thumb
 445              		.thumb_func
 446              		.fpu fpv4-sp-d16
 447              		.type	left_motor_enable_power_save, %function
 448              	left_motor_enable_power_save:
 449              	.LFB263:
 450              		.loc 1 171 0
 451              		.cfi_startproc
 452              		@ args = 0, pretend = 0, frame = 8
 453              		@ frame_needed = 0, uses_anonymous_args = 0
 454 0000 10B5     		push	{r4, lr}
 455              		.cfi_def_cfa_offset 8
 456              		.cfi_offset 4, -8
ARM GAS  /var/folders/j2/t8glr22d56s93xphj_30s8g80000gn/T//cc8l81ic.s 			page 9


 457              		.cfi_offset 14, -4
 458 0002 0B4C     		ldr	r4, .L60
 459              		.loc 1 173 0
 460 0004 0B48     		ldr	r0, .L60+4
 461              		.loc 1 171 0
 462 0006 2368     		ldr	r3, [r4]
 463 0008 82B0     		sub	sp, sp, #8
 464              		.cfi_def_cfa_offset 16
 465              		.loc 1 173 0
 466 000a 9922     		movs	r2, #153
 467 000c 0021     		movs	r1, #0
 468              		.loc 1 171 0
 469 000e 0193     		str	r3, [sp, #4]
 470              		.loc 1 173 0
 471 0010 FFF7FEFF 		bl	pwmEnableChannel
 472              	.LVL13:
 473              		.loc 1 175 0
 474 0014 019A     		ldr	r2, [sp, #4]
 475 0016 2368     		ldr	r3, [r4]
 476 0018 9A42     		cmp	r2, r3
 477 001a 06D1     		bne	.L59
 478 001c 0548     		ldr	r0, .L60+4
 479 001e 0021     		movs	r1, #0
 480              		.loc 1 176 0
 481 0020 02B0     		add	sp, sp, #8
 482              		.cfi_remember_state
 483              		.cfi_def_cfa_offset 8
 484              		@ sp needed
 485 0022 BDE81040 		pop	{r4, lr}
 486              		.cfi_restore 14
 487              		.cfi_restore 4
 488              		.cfi_def_cfa_offset 0
 489              		.loc 1 175 0
 490 0026 FFF7FEBF 		b	pwmEnableChannelNotification
 491              	.LVL14:
 492              	.L59:
 493              		.cfi_restore_state
 494 002a FFF7FEFF 		bl	__stack_chk_fail
 495              	.LVL15:
 496              	.L61:
 497 002e 00BF     		.align	2
 498              	.L60:
 499 0030 00000000 		.word	__stack_chk_guard
 500 0034 00000000 		.word	PWMD4
 501              		.cfi_endproc
 502              	.LFE263:
 503              		.size	left_motor_enable_power_save, .-left_motor_enable_power_save
 504              		.section	.text.right_motor_disable_power_save,"ax",%progbits
 505              		.align	1
 506              		.p2align 4,,15
 507              		.global	right_motor_disable_power_save
 508              		.syntax unified
 509              		.thumb
 510              		.thumb_func
 511              		.fpu fpv4-sp-d16
 512              		.type	right_motor_disable_power_save, %function
 513              	right_motor_disable_power_save:
ARM GAS  /var/folders/j2/t8glr22d56s93xphj_30s8g80000gn/T//cc8l81ic.s 			page 10


 514              	.LFB264:
 515              		.loc 1 181 0
 516              		.cfi_startproc
 517              		@ args = 0, pretend = 0, frame = 8
 518              		@ frame_needed = 0, uses_anonymous_args = 0
 519 0000 00B5     		push	{lr}
 520              		.cfi_def_cfa_offset 4
 521              		.cfi_offset 14, -4
 522 0002 084B     		ldr	r3, .L67
 523 0004 83B0     		sub	sp, sp, #12
 524              		.cfi_def_cfa_offset 16
 525              		.loc 1 181 0
 526 0006 1A68     		ldr	r2, [r3]
 527 0008 0192     		str	r2, [sp, #4]
 528              		.loc 1 182 0
 529 000a 019A     		ldr	r2, [sp, #4]
 530 000c 1B68     		ldr	r3, [r3]
 531 000e 9A42     		cmp	r2, r3
 532 0010 06D1     		bne	.L66
 533 0012 0548     		ldr	r0, .L67+4
 534 0014 0021     		movs	r1, #0
 535              		.loc 1 183 0
 536 0016 03B0     		add	sp, sp, #12
 537              		.cfi_remember_state
 538              		.cfi_def_cfa_offset 4
 539              		@ sp needed
 540 0018 5DF804EB 		ldr	lr, [sp], #4
 541              		.cfi_restore 14
 542              		.cfi_def_cfa_offset 0
 543              		.loc 1 182 0
 544 001c FFF7FEBF 		b	pwmDisableChannel
 545              	.LVL16:
 546              	.L66:
 547              		.cfi_restore_state
 548 0020 FFF7FEFF 		bl	__stack_chk_fail
 549              	.LVL17:
 550              	.L68:
 551              		.align	2
 552              	.L67:
 553 0024 00000000 		.word	__stack_chk_guard
 554 0028 00000000 		.word	PWMD3
 555              		.cfi_endproc
 556              	.LFE264:
 557              		.size	right_motor_disable_power_save, .-right_motor_disable_power_save
 558              		.section	.text.left_motor_disable_power_save,"ax",%progbits
 559              		.align	1
 560              		.p2align 4,,15
 561              		.global	left_motor_disable_power_save
 562              		.syntax unified
 563              		.thumb
 564              		.thumb_func
 565              		.fpu fpv4-sp-d16
 566              		.type	left_motor_disable_power_save, %function
 567              	left_motor_disable_power_save:
 568              	.LFB265:
 569              		.loc 1 188 0
 570              		.cfi_startproc
ARM GAS  /var/folders/j2/t8glr22d56s93xphj_30s8g80000gn/T//cc8l81ic.s 			page 11


 571              		@ args = 0, pretend = 0, frame = 8
 572              		@ frame_needed = 0, uses_anonymous_args = 0
 573 0000 00B5     		push	{lr}
 574              		.cfi_def_cfa_offset 4
 575              		.cfi_offset 14, -4
 576 0002 084B     		ldr	r3, .L74
 577 0004 83B0     		sub	sp, sp, #12
 578              		.cfi_def_cfa_offset 16
 579              		.loc 1 188 0
 580 0006 1A68     		ldr	r2, [r3]
 581 0008 0192     		str	r2, [sp, #4]
 582              		.loc 1 189 0
 583 000a 019A     		ldr	r2, [sp, #4]
 584 000c 1B68     		ldr	r3, [r3]
 585 000e 9A42     		cmp	r2, r3
 586 0010 06D1     		bne	.L73
 587 0012 0548     		ldr	r0, .L74+4
 588 0014 0021     		movs	r1, #0
 589              		.loc 1 190 0
 590 0016 03B0     		add	sp, sp, #12
 591              		.cfi_remember_state
 592              		.cfi_def_cfa_offset 4
 593              		@ sp needed
 594 0018 5DF804EB 		ldr	lr, [sp], #4
 595              		.cfi_restore 14
 596              		.cfi_def_cfa_offset 0
 597              		.loc 1 189 0
 598 001c FFF7FEBF 		b	pwmDisableChannel
 599              	.LVL18:
 600              	.L73:
 601              		.cfi_restore_state
 602 0020 FFF7FEFF 		bl	__stack_chk_fail
 603              	.LVL19:
 604              	.L75:
 605              		.align	2
 606              	.L74:
 607 0024 00000000 		.word	__stack_chk_guard
 608 0028 00000000 		.word	PWMD4
 609              		.cfi_endproc
 610              	.LFE265:
 611              		.size	left_motor_disable_power_save, .-left_motor_disable_power_save
 612              		.section	.text.right_motor_timer_callback,"ax",%progbits
 613              		.align	1
 614              		.p2align 4,,15
 615              		.syntax unified
 616              		.thumb
 617              		.thumb_func
 618              		.fpu fpv4-sp-d16
 619              		.type	right_motor_timer_callback, %function
 620              	right_motor_timer_callback:
 621              	.LFB258:
 622              		.loc 1 85 0
 623              		.cfi_startproc
 624              		@ args = 0, pretend = 0, frame = 8
 625              		@ frame_needed = 0, uses_anonymous_args = 0
 626              	.LVL20:
 627 0000 70B5     		push	{r4, r5, r6, lr}
ARM GAS  /var/folders/j2/t8glr22d56s93xphj_30s8g80000gn/T//cc8l81ic.s 			page 12


 628              		.cfi_def_cfa_offset 16
 629              		.cfi_offset 4, -16
 630              		.cfi_offset 5, -12
 631              		.cfi_offset 6, -8
 632              		.cfi_offset 14, -4
 633              		.loc 1 88 0
 634 0002 1A4C     		ldr	r4, .L85
 635              		.loc 1 85 0
 636 0004 1A4E     		ldr	r6, .L85+4
 637              		.loc 1 88 0
 638 0006 2378     		ldrb	r3, [r4]	@ zero_extendqisi2
 639              		.loc 1 85 0
 640 0008 3268     		ldr	r2, [r6]
 641 000a 82B0     		sub	sp, sp, #8
 642              		.cfi_def_cfa_offset 24
 643              		.loc 1 88 0
 644 000c 022B     		cmp	r3, #2
 645              		.loc 1 85 0
 646 000e 0192     		str	r2, [sp, #4]
 647 0010 A268     		ldr	r2, [r4, #8]
 648              		.loc 1 88 0
 649 0012 11D1     		bne	.L77
 650              		.loc 1 89 0
 651 0014 6578     		ldrb	r5, [r4, #1]	@ zero_extendqisi2
 652              		.loc 1 90 0
 653 0016 1748     		ldr	r0, .L85+8
 654              	.LVL21:
 655              		.loc 1 89 0
 656 0018 0135     		adds	r5, r5, #1
 657 001a 05F00705 		and	r5, r5, #7
 658              	.LVL22:
 659              		.loc 1 90 0
 660 001e 00EB8500 		add	r0, r0, r5, lsl #2
 661 0022 9047     		blx	r2
 662              	.LVL23:
 663              		.loc 1 91 0
 664 0024 6368     		ldr	r3, [r4, #4]
 665              		.loc 1 92 0
 666 0026 6570     		strb	r5, [r4, #1]
 667              		.loc 1 91 0
 668 0028 013B     		subs	r3, r3, #1
 669 002a 6360     		str	r3, [r4, #4]
 670              	.LVL24:
 671              	.L76:
 672              		.loc 1 101 0
 673 002c 019A     		ldr	r2, [sp, #4]
 674 002e 3368     		ldr	r3, [r6]
 675 0030 9A42     		cmp	r2, r3
 676 0032 19D1     		bne	.L83
 677 0034 02B0     		add	sp, sp, #8
 678              		.cfi_remember_state
 679              		.cfi_def_cfa_offset 16
 680              		@ sp needed
 681 0036 70BD     		pop	{r4, r5, r6, pc}
 682              	.LVL25:
 683              	.L77:
 684              		.cfi_restore_state
ARM GAS  /var/folders/j2/t8glr22d56s93xphj_30s8g80000gn/T//cc8l81ic.s 			page 13


 685              		.loc 1 93 0
 686 0038 012B     		cmp	r3, #1
 687 003a 08D0     		beq	.L84
 688              		.loc 1 99 0
 689 003c 0199     		ldr	r1, [sp, #4]
 690 003e 3368     		ldr	r3, [r6]
 691 0040 9942     		cmp	r1, r3
 692 0042 11D1     		bne	.L83
 693 0044 0C48     		ldr	r0, .L85+12
 694              	.LVL26:
 695              		.loc 1 101 0
 696 0046 02B0     		add	sp, sp, #8
 697              		.cfi_remember_state
 698              		.cfi_def_cfa_offset 16
 699              		@ sp needed
 700 0048 BDE87040 		pop	{r4, r5, r6, lr}
 701              		.cfi_restore 14
 702              		.cfi_restore 6
 703              		.cfi_restore 5
 704              		.cfi_restore 4
 705              		.cfi_def_cfa_offset 0
 706              		.loc 1 99 0
 707 004c 1047     		bx	r2	@ indirect register sibling call
 708              	.LVL27:
 709              	.L84:
 710              		.cfi_restore_state
 711              	.LBB163:
 712              	.LBB164:
 713              		.loc 1 94 0
 714 004e 6578     		ldrb	r5, [r4, #1]	@ zero_extendqisi2
 715              		.loc 1 95 0
 716 0050 0848     		ldr	r0, .L85+8
 717              	.LVL28:
 718              		.loc 1 94 0
 719 0052 013D     		subs	r5, r5, #1
 720 0054 05F00705 		and	r5, r5, #7
 721              	.LVL29:
 722              		.loc 1 95 0
 723 0058 00EB8500 		add	r0, r0, r5, lsl #2
 724 005c 9047     		blx	r2
 725              	.LVL30:
 726              		.loc 1 96 0
 727 005e 6368     		ldr	r3, [r4, #4]
 728              		.loc 1 97 0
 729 0060 6570     		strb	r5, [r4, #1]
 730              		.loc 1 96 0
 731 0062 0133     		adds	r3, r3, #1
 732 0064 6360     		str	r3, [r4, #4]
 733 0066 E1E7     		b	.L76
 734              	.LVL31:
 735              	.L83:
 736              	.LBE164:
 737              	.LBE163:
 738              		.loc 1 101 0
 739 0068 FFF7FEFF 		bl	__stack_chk_fail
 740              	.LVL32:
 741              	.L86:
ARM GAS  /var/folders/j2/t8glr22d56s93xphj_30s8g80000gn/T//cc8l81ic.s 			page 14


 742              		.align	2
 743              	.L85:
 744 006c 00000000 		.word	.LANCHOR0
 745 0070 00000000 		.word	__stack_chk_guard
 746 0074 00000000 		.word	.LANCHOR1
 747 0078 00000000 		.word	.LANCHOR2
 748              		.cfi_endproc
 749              	.LFE258:
 750              		.size	right_motor_timer_callback, .-right_motor_timer_callback
 751              		.section	.text.left_motor_timer_callback,"ax",%progbits
 752              		.align	1
 753              		.p2align 4,,15
 754              		.syntax unified
 755              		.thumb
 756              		.thumb_func
 757              		.fpu fpv4-sp-d16
 758              		.type	left_motor_timer_callback, %function
 759              	left_motor_timer_callback:
 760              	.LFB259:
 761              		.loc 1 110 0
 762              		.cfi_startproc
 763              		@ args = 0, pretend = 0, frame = 8
 764              		@ frame_needed = 0, uses_anonymous_args = 0
 765              	.LVL33:
 766 0000 70B5     		push	{r4, r5, r6, lr}
 767              		.cfi_def_cfa_offset 16
 768              		.cfi_offset 4, -16
 769              		.cfi_offset 5, -12
 770              		.cfi_offset 6, -8
 771              		.cfi_offset 14, -4
 772              		.loc 1 113 0
 773 0002 1A4C     		ldr	r4, .L96
 774              		.loc 1 110 0
 775 0004 1A4E     		ldr	r6, .L96+4
 776              		.loc 1 113 0
 777 0006 2378     		ldrb	r3, [r4]	@ zero_extendqisi2
 778              		.loc 1 110 0
 779 0008 3268     		ldr	r2, [r6]
 780 000a 82B0     		sub	sp, sp, #8
 781              		.cfi_def_cfa_offset 24
 782              		.loc 1 113 0
 783 000c 012B     		cmp	r3, #1
 784              		.loc 1 110 0
 785 000e 0192     		str	r2, [sp, #4]
 786 0010 A268     		ldr	r2, [r4, #8]
 787              		.loc 1 113 0
 788 0012 11D1     		bne	.L88
 789              		.loc 1 114 0
 790 0014 6578     		ldrb	r5, [r4, #1]	@ zero_extendqisi2
 791              		.loc 1 115 0
 792 0016 1748     		ldr	r0, .L96+8
 793              	.LVL34:
 794              		.loc 1 114 0
 795 0018 0135     		adds	r5, r5, #1
 796 001a 05F00705 		and	r5, r5, #7
 797              	.LVL35:
 798              		.loc 1 115 0
ARM GAS  /var/folders/j2/t8glr22d56s93xphj_30s8g80000gn/T//cc8l81ic.s 			page 15


 799 001e 00EB8500 		add	r0, r0, r5, lsl #2
 800 0022 9047     		blx	r2
 801              	.LVL36:
 802              		.loc 1 116 0
 803 0024 6368     		ldr	r3, [r4, #4]
 804              		.loc 1 117 0
 805 0026 6570     		strb	r5, [r4, #1]
 806              		.loc 1 116 0
 807 0028 0133     		adds	r3, r3, #1
 808 002a 6360     		str	r3, [r4, #4]
 809              	.LVL37:
 810              	.L87:
 811              		.loc 1 126 0
 812 002c 019A     		ldr	r2, [sp, #4]
 813 002e 3368     		ldr	r3, [r6]
 814 0030 9A42     		cmp	r2, r3
 815 0032 19D1     		bne	.L94
 816 0034 02B0     		add	sp, sp, #8
 817              		.cfi_remember_state
 818              		.cfi_def_cfa_offset 16
 819              		@ sp needed
 820 0036 70BD     		pop	{r4, r5, r6, pc}
 821              	.LVL38:
 822              	.L88:
 823              		.cfi_restore_state
 824              		.loc 1 118 0
 825 0038 022B     		cmp	r3, #2
 826 003a 08D0     		beq	.L95
 827              		.loc 1 124 0
 828 003c 0199     		ldr	r1, [sp, #4]
 829 003e 3368     		ldr	r3, [r6]
 830 0040 9942     		cmp	r1, r3
 831 0042 11D1     		bne	.L94
 832 0044 0C48     		ldr	r0, .L96+12
 833              	.LVL39:
 834              		.loc 1 126 0
 835 0046 02B0     		add	sp, sp, #8
 836              		.cfi_remember_state
 837              		.cfi_def_cfa_offset 16
 838              		@ sp needed
 839 0048 BDE87040 		pop	{r4, r5, r6, lr}
 840              		.cfi_restore 14
 841              		.cfi_restore 6
 842              		.cfi_restore 5
 843              		.cfi_restore 4
 844              		.cfi_def_cfa_offset 0
 845              		.loc 1 124 0
 846 004c 1047     		bx	r2	@ indirect register sibling call
 847              	.LVL40:
 848              	.L95:
 849              		.cfi_restore_state
 850              	.LBB167:
 851              	.LBB168:
 852              		.loc 1 119 0
 853 004e 6578     		ldrb	r5, [r4, #1]	@ zero_extendqisi2
 854              		.loc 1 120 0
 855 0050 0848     		ldr	r0, .L96+8
ARM GAS  /var/folders/j2/t8glr22d56s93xphj_30s8g80000gn/T//cc8l81ic.s 			page 16


 856              	.LVL41:
 857              		.loc 1 119 0
 858 0052 013D     		subs	r5, r5, #1
 859 0054 05F00705 		and	r5, r5, #7
 860              	.LVL42:
 861              		.loc 1 120 0
 862 0058 00EB8500 		add	r0, r0, r5, lsl #2
 863 005c 9047     		blx	r2
 864              	.LVL43:
 865              		.loc 1 121 0
 866 005e 6368     		ldr	r3, [r4, #4]
 867              		.loc 1 122 0
 868 0060 6570     		strb	r5, [r4, #1]
 869              		.loc 1 121 0
 870 0062 013B     		subs	r3, r3, #1
 871 0064 6360     		str	r3, [r4, #4]
 872 0066 E1E7     		b	.L87
 873              	.LVL44:
 874              	.L94:
 875              	.LBE168:
 876              	.LBE167:
 877              		.loc 1 126 0
 878 0068 FFF7FEFF 		bl	__stack_chk_fail
 879              	.LVL45:
 880              	.L97:
 881              		.align	2
 882              	.L96:
 883 006c 00000000 		.word	.LANCHOR3
 884 0070 00000000 		.word	__stack_chk_guard
 885 0074 00000000 		.word	.LANCHOR1
 886 0078 00000000 		.word	.LANCHOR2
 887              		.cfi_endproc
 888              	.LFE259:
 889              		.size	left_motor_timer_callback, .-left_motor_timer_callback
 890              		.section	.text.Clignotant,"ax",%progbits
 891              		.align	1
 892              		.p2align 4,,15
 893              		.syntax unified
 894              		.thumb
 895              		.thumb_func
 896              		.fpu fpv4-sp-d16
 897              		.type	Clignotant, %function
 898              	Clignotant:
 899              	.LFB275:
 900              		.loc 1 378 0
 901              		.cfi_startproc
 902              		@ args = 0, pretend = 0, frame = 8
 903              		@ frame_needed = 0, uses_anonymous_args = 0
 904              	.LVL46:
 905 0000 2DE9F047 		push	{r4, r5, r6, r7, r8, r9, r10, lr}
 906              		.cfi_def_cfa_offset 32
 907              		.cfi_offset 4, -32
 908              		.cfi_offset 5, -28
 909              		.cfi_offset 6, -24
 910              		.cfi_offset 7, -20
 911              		.cfi_offset 8, -16
 912              		.cfi_offset 9, -12
ARM GAS  /var/folders/j2/t8glr22d56s93xphj_30s8g80000gn/T//cc8l81ic.s 			page 17


 913              		.cfi_offset 10, -8
 914              		.cfi_offset 14, -4
 915              	.LBB185:
 916              	.LBB186:
 917              		.file 2 "../../lib/e-puck2_main-processor/ChibiOS//os/rt/include/chregistry.h"
 918              		.loc 2 135 0
 919 0004 394D     		ldr	r5, .L107
 920              	.LBE186:
 921              	.LBE185:
 922              		.loc 1 378 0
 923 0006 3A4B     		ldr	r3, .L107+4
 924              	.LBB189:
 925              	.LBB187:
 926              		.loc 2 135 0
 927 0008 AA69     		ldr	r2, [r5, #24]
 928 000a 3A49     		ldr	r1, .L107+8
 929              	.LBE187:
 930              	.LBE189:
 931              		.loc 1 378 0
 932 000c 1B68     		ldr	r3, [r3]
 933 000e DFF8E890 		ldr	r9, .L107+12
 934              	.LBB190:
 935              	.LBB191:
 936              	.LBB192:
 937              	.LBB193:
 938              		.file 3 "../../lib/e-puck2_main-processor/ChibiOS//os/rt/include/chsys.h"
 939              		.loc 3 367 0
 940 0012 DFF8E8A0 		ldr	r10, .L107+16
 941              	.LBE193:
 942              	.LBE192:
 943              	.LBE191:
 944              	.LBE190:
 945              	.LBB219:
 946              	.LBB188:
 947              		.loc 2 135 0
 948 0016 9161     		str	r1, [r2, #24]
 949              	.LBE188:
 950              	.LBE219:
 951              		.loc 1 378 0
 952 0018 82B0     		sub	sp, sp, #8
 953              		.cfi_def_cfa_offset 40
 954              	.LBB220:
 955              	.LBB216:
 956              	.LBB202:
 957              	.LBB203:
 958              	.LBB204:
 959              	.LBB205:
 960              	.LBB206:
 961              		.file 4 "../../lib/e-puck2_main-processor/ChibiOS//os/ext/CMSIS/include/core_cmFunc.h"
 962              		.loc 4 546 0
 963 001a 4FF02008 		mov	r8, #32
 964              	.LBE206:
 965              	.LBE205:
 966              	.LBE204:
 967              	.LBE203:
 968              	.LBE202:
 969              	.LBE216:
ARM GAS  /var/folders/j2/t8glr22d56s93xphj_30s8g80000gn/T//cc8l81ic.s 			page 18


 970              	.LBE220:
 971              		.loc 1 378 0
 972 001e 0193     		str	r3, [sp, #4]
 973              	.LVL47:
 974              	.LBB221:
 975              	.LBB217:
 976              	.LBB211:
 977              	.LBB200:
 978              	.LBB194:
 979              	.LBB195:
 980              	.LBB196:
 981              		.loc 4 546 0
 982 0020 0027     		movs	r7, #0
 983 0022 18E0     		b	.L103
 984              	.LVL48:
 985              	.L102:
 986              	.LBE196:
 987              	.LBE195:
 988              	.LBE194:
 989              	.LBE200:
 990              	.LBE211:
 991              	.LBE217:
 992              	.LBE221:
 993              		.loc 1 408 0
 994 0024 FFF7FEFF 		bl	set_rgb_led
 995              	.LVL49:
 996              		.loc 1 409 0
 997 0028 0023     		movs	r3, #0
 998 002a 1A46     		mov	r2, r3
 999 002c 1946     		mov	r1, r3
 1000 002e 0120     		movs	r0, #1
 1001 0030 FFF7FEFF 		bl	set_rgb_led
 1002              	.LVL50:
 1003              		.loc 1 410 0
 1004 0034 0023     		movs	r3, #0
 1005 0036 1A46     		mov	r2, r3
 1006 0038 1946     		mov	r1, r3
 1007 003a 0220     		movs	r0, #2
 1008 003c FFF7FEFF 		bl	set_rgb_led
 1009              	.LVL51:
 1010              		.loc 1 411 0
 1011 0040 0023     		movs	r3, #0
 1012 0042 1A46     		mov	r2, r3
 1013 0044 1946     		mov	r1, r3
 1014 0046 0320     		movs	r0, #3
 1015 0048 FFF7FEFF 		bl	set_rgb_led
 1016              	.LVL52:
 1017              	.L101:
 1018              		.loc 1 416 0
 1019 004c 06F1FA01 		add	r1, r6, #250
 1020 0050 3046     		mov	r0, r6
 1021 0052 FFF7FEFF 		bl	chThdSleepUntilWindowed
 1022              	.LVL53:
 1023              	.L103:
 1024              	.LBB222:
 1025              	.LBB218:
 1026              	.LBB212:
ARM GAS  /var/folders/j2/t8glr22d56s93xphj_30s8g80000gn/T//cc8l81ic.s 			page 19


 1027              	.LBB210:
 1028              	.LBB209:
 1029              	.LBB208:
 1030              	.LBB207:
 1031              		.loc 4 546 0
 1032              		.syntax unified
 1033              	@ 546 "../../lib/e-puck2_main-processor/ChibiOS//os/ext/CMSIS/include/core_cmFunc.h" 1
 1034 0056 88F31188 		MSR basepri, r8
 1035              	@ 0 "" 2
 1036              	.LVL54:
 1037              		.thumb
 1038              		.syntax unified
 1039              	.LBE207:
 1040              	.LBE208:
 1041              	.LBE209:
 1042              		.loc 3 349 0
 1043 005a FFF7FEFF 		bl	_stats_start_measure_crit_thd
 1044              	.LVL55:
 1045              		.loc 3 350 0
 1046 005e FFF7FEFF 		bl	_dbg_check_lock
 1047              	.LVL56:
 1048              	.LBE210:
 1049              	.LBE212:
 1050              	.LBB213:
 1051              	.LBB214:
 1052              		.file 5 "../../lib/e-puck2_main-processor/ChibiOS//os/rt/include/chvt.h"
 1053              		.loc 5 231 0
 1054 0062 AE6A     		ldr	r6, [r5, #40]
 1055              	.LBE214:
 1056              	.LBE213:
 1057              	.LBB215:
 1058              	.LBB201:
 1059              		.loc 3 360 0
 1060 0064 FFF7FEFF 		bl	_dbg_check_unlock
 1061              	.LVL57:
 1062              		.loc 3 361 0
 1063 0068 FFF7FEFF 		bl	_stats_stop_measure_crit_thd
 1064              	.LVL58:
 1065              		.loc 3 367 0
 1066 006c 2B68     		ldr	r3, [r5]
 1067 006e AB42     		cmp	r3, r5
 1068 0070 07D0     		beq	.L99
 1069 0072 AA69     		ldr	r2, [r5, #24]
 1070 0074 9B68     		ldr	r3, [r3, #8]
 1071 0076 9268     		ldr	r2, [r2, #8]
 1072 0078 9A42     		cmp	r2, r3
 1073 007a 02D2     		bcs	.L99
 1074 007c 5046     		mov	r0, r10
 1075 007e FFF7FEFF 		bl	chSysHalt
 1076              	.LVL59:
 1077              	.L99:
 1078              	.LBB199:
 1079              	.LBB198:
 1080              	.LBB197:
 1081              		.loc 4 546 0
 1082              		.syntax unified
 1083              	@ 546 "../../lib/e-puck2_main-processor/ChibiOS//os/ext/CMSIS/include/core_cmFunc.h" 1
ARM GAS  /var/folders/j2/t8glr22d56s93xphj_30s8g80000gn/T//cc8l81ic.s 			page 20


 1084 0082 87F31188 		MSR basepri, r7
 1085              	@ 0 "" 2
 1086              	.LVL60:
 1087              		.thumb
 1088              		.syntax unified
 1089              	.LBE197:
 1090              	.LBE198:
 1091              	.LBE199:
 1092              	.LBE201:
 1093              	.LBE215:
 1094              	.LBE218:
 1095              	.LBE222:
 1096              		.loc 1 388 0
 1097 0086 D9F80040 		ldr	r4, [r9]
 1098              		.loc 1 408 0
 1099 008a 0023     		movs	r3, #0
 1100              		.loc 1 388 0
 1101 008c 012C     		cmp	r4, #1
 1102              		.loc 1 408 0
 1103 008e 1A46     		mov	r2, r3
 1104 0090 1946     		mov	r1, r3
 1105 0092 1846     		mov	r0, r3
 1106              		.loc 1 388 0
 1107 0094 16D0     		beq	.L106
 1108              		.loc 1 397 0
 1109 0096 022C     		cmp	r4, #2
 1110 0098 C4D1     		bne	.L102
 1111              		.loc 1 399 0
 1112 009a 2046     		mov	r0, r4
 1113 009c FF22     		movs	r2, #255
 1114 009e 0021     		movs	r1, #0
 1115 00a0 FFF7FEFF 		bl	toggle_rgb_led
 1116              	.LVL61:
 1117              		.loc 1 400 0
 1118 00a4 2046     		mov	r0, r4
 1119 00a6 A522     		movs	r2, #165
 1120 00a8 0121     		movs	r1, #1
 1121 00aa FFF7FEFF 		bl	toggle_rgb_led
 1122              	.LVL62:
 1123              		.loc 1 403 0
 1124 00ae FF22     		movs	r2, #255
 1125 00b0 0021     		movs	r1, #0
 1126 00b2 0320     		movs	r0, #3
 1127 00b4 FFF7FEFF 		bl	toggle_rgb_led
 1128              	.LVL63:
 1129              		.loc 1 404 0
 1130 00b8 A522     		movs	r2, #165
 1131 00ba 0121     		movs	r1, #1
 1132 00bc 0320     		movs	r0, #3
 1133 00be FFF7FEFF 		bl	toggle_rgb_led
 1134              	.LVL64:
 1135 00c2 C3E7     		b	.L101
 1136              	.L106:
 1137              		.loc 1 390 0
 1138 00c4 2046     		mov	r0, r4
 1139 00c6 FF22     		movs	r2, #255
 1140 00c8 FFF7FEFF 		bl	toggle_rgb_led
ARM GAS  /var/folders/j2/t8glr22d56s93xphj_30s8g80000gn/T//cc8l81ic.s 			page 21


 1141              	.LVL65:
 1142              		.loc 1 391 0
 1143 00cc 2146     		mov	r1, r4
 1144 00ce 2046     		mov	r0, r4
 1145 00d0 A522     		movs	r2, #165
 1146 00d2 FFF7FEFF 		bl	toggle_rgb_led
 1147              	.LVL66:
 1148              		.loc 1 394 0
 1149 00d6 0021     		movs	r1, #0
 1150 00d8 0846     		mov	r0, r1
 1151 00da FF22     		movs	r2, #255
 1152 00dc FFF7FEFF 		bl	toggle_rgb_led
 1153              	.LVL67:
 1154              		.loc 1 395 0
 1155 00e0 2146     		mov	r1, r4
 1156 00e2 A522     		movs	r2, #165
 1157 00e4 0020     		movs	r0, #0
 1158 00e6 FFF7FEFF 		bl	toggle_rgb_led
 1159              	.LVL68:
 1160 00ea AFE7     		b	.L101
 1161              	.L108:
 1162              		.align	2
 1163              	.L107:
 1164 00ec 00000000 		.word	ch
 1165 00f0 00000000 		.word	__stack_chk_guard
 1166 00f4 00000000 		.word	.LANCHOR4
 1167 00f8 00000000 		.word	.LANCHOR6
 1168 00fc 00000000 		.word	.LANCHOR5
 1169              		.cfi_endproc
 1170              	.LFE275:
 1171              		.size	Clignotant, .-Clignotant
 1172              		.section	.text.motor_set_speed,"ax",%progbits
 1173              		.align	1
 1174              		.p2align 4,,15
 1175              		.global	motor_set_speed
 1176              		.syntax unified
 1177              		.thumb
 1178              		.thumb_func
 1179              		.fpu fpv4-sp-d16
 1180              		.type	motor_set_speed, %function
 1181              	motor_set_speed:
 1182              	.LFB266:
 1183              		.loc 1 199 0
 1184              		.cfi_startproc
 1185              		@ args = 0, pretend = 0, frame = 16
 1186              		@ frame_needed = 0, uses_anonymous_args = 0
 1187              	.LVL69:
 1188 0000 30B5     		push	{r4, r5, lr}
 1189              		.cfi_def_cfa_offset 12
 1190              		.cfi_offset 4, -12
 1191              		.cfi_offset 5, -8
 1192              		.cfi_offset 14, -4
 1193 0002 1F4D     		ldr	r5, .L121
 1194 0004 85B0     		sub	sp, sp, #20
 1195              		.cfi_def_cfa_offset 32
 1196              		.loc 1 199 0
 1197 0006 2B68     		ldr	r3, [r5]
ARM GAS  /var/folders/j2/t8glr22d56s93xphj_30s8g80000gn/T//cc8l81ic.s 			page 22


 1198 0008 0393     		str	r3, [sp, #12]
 1199              		.loc 1 201 0
 1200 000a 40F24C43 		movw	r3, #1100
 1201 000e 9942     		cmp	r1, r3
 1202              		.loc 1 199 0
 1203 0010 0446     		mov	r4, r0
 1204              		.loc 1 201 0
 1205 0012 26DC     		bgt	.L110
 1206              		.loc 1 203 0
 1207 0014 A3F69803 		subw	r3, r3, #2200
 1208 0018 9942     		cmp	r1, r3
 1209 001a 11DB     		blt	.L118
 1210              		.loc 1 208 0
 1211 001c 4B00     		lsls	r3, r1, #1
 1212              	.LVL70:
 1213              		.loc 1 211 0
 1214 001e 002B     		cmp	r3, #0
 1215 0020 29D1     		bne	.L112
 1216              		.loc 1 212 0
 1217 0022 0370     		strb	r3, [r0]
 1218              	.LVL71:
 1219              		.loc 1 215 0
 1220 0024 0369     		ldr	r3, [r0, #16]
 1221              	.LVL72:
 1222 0026 9847     		blx	r3
 1223              	.LVL73:
 1224 0028 4FF47A71 		mov	r1, #1000
 1225              	.LVL74:
 1226              	.L113:
 1227              		.loc 1 233 0
 1228 002c 039A     		ldr	r2, [sp, #12]
 1229 002e 2B68     		ldr	r3, [r5]
 1230 0030 9A42     		cmp	r2, r3
 1231 0032 1ED1     		bne	.L120
 1232 0034 6069     		ldr	r0, [r4, #20]
 1233              		.loc 1 234 0
 1234 0036 05B0     		add	sp, sp, #20
 1235              		.cfi_remember_state
 1236              		.cfi_def_cfa_offset 12
 1237              		@ sp needed
 1238 0038 BDE83040 		pop	{r4, r5, lr}
 1239              		.cfi_restore 14
 1240              		.cfi_restore 5
 1241              		.cfi_restore 4
 1242              		.cfi_def_cfa_offset 0
 1243              	.LVL75:
 1244              		.loc 1 233 0
 1245 003c FFF7FEBF 		b	pwmChangePeriod
 1246              	.LVL76:
 1247              	.L118:
 1248              		.cfi_restore_state
 1249 0040 104B     		ldr	r3, .L121+4
 1250              	.LVL77:
 1251              	.L111:
 1252              		.loc 1 220 0
 1253 0042 0222     		movs	r2, #2
 1254              		.loc 1 221 0
ARM GAS  /var/folders/j2/t8glr22d56s93xphj_30s8g80000gn/T//cc8l81ic.s 			page 23


 1255 0044 5B42     		negs	r3, r3
 1256              	.LVL78:
 1257              		.loc 1 220 0
 1258 0046 2270     		strb	r2, [r4]
 1259              	.L114:
 1260              	.LVL79:
 1261              		.loc 1 225 0
 1262 0048 40F28922 		movw	r2, #649
 1263 004c 9342     		cmp	r3, r2
 1264              		.loc 1 223 0
 1265 004e 0E49     		ldr	r1, .L121+8
 1266 0050 91FBF3F1 		sdiv	r1, r1, r3
 1267 0054 89B2     		uxth	r1, r1
 1268              		.loc 1 225 0
 1269 0056 07DC     		bgt	.L115
 1270 0058 0191     		str	r1, [sp, #4]
 1271              		.loc 1 226 0
 1272 005a E368     		ldr	r3, [r4, #12]
 1273              	.LVL80:
 1274 005c 9847     		blx	r3
 1275              	.LVL81:
 1276 005e 0199     		ldr	r1, [sp, #4]
 1277 0060 E4E7     		b	.L113
 1278              	.LVL82:
 1279              	.L110:
 1280              		.loc 1 218 0
 1281 0062 0123     		movs	r3, #1
 1282 0064 0370     		strb	r3, [r0]
 1283              	.LVL83:
 1284 0066 2D21     		movs	r1, #45
 1285              	.LVL84:
 1286              	.L115:
 1287 0068 0191     		str	r1, [sp, #4]
 1288              		.loc 1 228 0
 1289 006a 2369     		ldr	r3, [r4, #16]
 1290 006c 9847     		blx	r3
 1291              	.LVL85:
 1292 006e 0199     		ldr	r1, [sp, #4]
 1293 0070 DCE7     		b	.L113
 1294              	.L120:
 1295              		.loc 1 233 0
 1296 0072 FFF7FEFF 		bl	__stack_chk_fail
 1297              	.LVL86:
 1298              	.L112:
 1299              		.loc 1 217 0
 1300 0076 E4DD     		ble	.L111
 1301              		.loc 1 218 0
 1302 0078 0122     		movs	r2, #1
 1303 007a 0270     		strb	r2, [r0]
 1304 007c E4E7     		b	.L114
 1305              	.L122:
 1306 007e 00BF     		.align	2
 1307              	.L121:
 1308 0080 00000000 		.word	__stack_chk_guard
 1309 0084 68F7FFFF 		.word	-2200
 1310 0088 A0860100 		.word	100000
 1311              		.cfi_endproc
ARM GAS  /var/folders/j2/t8glr22d56s93xphj_30s8g80000gn/T//cc8l81ic.s 			page 24


 1312              	.LFE266:
 1313              		.size	motor_set_speed, .-motor_set_speed
 1314              		.section	.text.Depassement,"ax",%progbits
 1315              		.align	1
 1316              		.p2align 4,,15
 1317              		.syntax unified
 1318              		.thumb
 1319              		.thumb_func
 1320              		.fpu fpv4-sp-d16
 1321              		.type	Depassement, %function
 1322              	Depassement:
 1323              	.LFB276:
 1324              		.loc 1 423 0
 1325              		.cfi_startproc
 1326              		@ args = 0, pretend = 0, frame = 8
 1327              		@ frame_needed = 0, uses_anonymous_args = 0
 1328              	.LVL87:
 1329 0000 2DE9F04F 		push	{r4, r5, r6, r7, r8, r9, r10, fp, lr}
 1330              		.cfi_def_cfa_offset 36
 1331              		.cfi_offset 4, -36
 1332              		.cfi_offset 5, -32
 1333              		.cfi_offset 6, -28
 1334              		.cfi_offset 7, -24
 1335              		.cfi_offset 8, -20
 1336              		.cfi_offset 9, -16
 1337              		.cfi_offset 10, -12
 1338              		.cfi_offset 11, -8
 1339              		.cfi_offset 14, -4
 1340              	.LBB303:
 1341              	.LBB304:
 1342              		.loc 2 135 0
 1343 0004 8A4C     		ldr	r4, .L136
 1344              	.LBE304:
 1345              	.LBE303:
 1346              		.loc 1 423 0
 1347 0006 8B4B     		ldr	r3, .L136+4
 1348              	.LBB307:
 1349              	.LBB305:
 1350              		.loc 2 135 0
 1351 0008 A269     		ldr	r2, [r4, #24]
 1352 000a 8B49     		ldr	r1, .L136+8
 1353              	.LBE305:
 1354              	.LBE307:
 1355              		.loc 1 423 0
 1356 000c 1B68     		ldr	r3, [r3]
 1357 000e DFF83892 		ldr	r9, .L136+24
 1358 0012 DFF838A2 		ldr	r10, .L136+28
 1359              	.LBB308:
 1360              	.LBB306:
 1361              		.loc 2 135 0
 1362 0016 9161     		str	r1, [r2, #24]
 1363              	.LBE306:
 1364              	.LBE308:
 1365              		.loc 1 423 0
 1366 0018 83B0     		sub	sp, sp, #12
 1367              		.cfi_def_cfa_offset 48
 1368              	.LBB309:
ARM GAS  /var/folders/j2/t8glr22d56s93xphj_30s8g80000gn/T//cc8l81ic.s 			page 25


 1369              	.LBB310:
 1370              		.loc 1 242 0
 1371 001a DFF83482 		ldr	r8, .L136+32
 1372              	.LBE310:
 1373              	.LBE309:
 1374              	.LBB313:
 1375              	.LBB314:
 1376              		.loc 1 246 0
 1377 001e 874F     		ldr	r7, .L136+12
 1378              	.LBE314:
 1379              	.LBE313:
 1380              		.loc 1 423 0
 1381 0020 0193     		str	r3, [sp, #4]
 1382              	.LVL88:
 1383 0022 09E0     		b	.L130
 1384              	.LVL89:
 1385              	.L135:
 1386              		.loc 1 435 0
 1387 0024 D9F800B0 		ldr	fp, [r9]
 1388 0028 BBF1010F 		cmp	fp, #1
 1389 002c 2CD0     		beq	.L134
 1390              	.L129:
 1391              		.loc 1 507 0
 1392 002e 06F10A01 		add	r1, r6, #10
 1393 0032 3046     		mov	r0, r6
 1394 0034 FFF7FEFF 		bl	chThdSleepUntilWindowed
 1395              	.LVL90:
 1396              	.L130:
 1397              	.LBB316:
 1398              	.LBB317:
 1399              	.LBB318:
 1400              	.LBB319:
 1401              	.LBB320:
 1402              	.LBB321:
 1403              	.LBB322:
 1404              		.loc 4 546 0
 1405 0038 2023     		movs	r3, #32
 1406              		.syntax unified
 1407              	@ 546 "../../lib/e-puck2_main-processor/ChibiOS//os/ext/CMSIS/include/core_cmFunc.h" 1
 1408 003a 83F31188 		MSR basepri, r3
 1409              	@ 0 "" 2
 1410              	.LVL91:
 1411              		.thumb
 1412              		.syntax unified
 1413              	.LBE322:
 1414              	.LBE321:
 1415              	.LBE320:
 1416              		.loc 3 349 0
 1417 003e FFF7FEFF 		bl	_stats_start_measure_crit_thd
 1418              	.LVL92:
 1419              		.loc 3 350 0
 1420 0042 FFF7FEFF 		bl	_dbg_check_lock
 1421              	.LVL93:
 1422              	.LBE319:
 1423              	.LBE318:
 1424              	.LBB323:
 1425              	.LBB324:
ARM GAS  /var/folders/j2/t8glr22d56s93xphj_30s8g80000gn/T//cc8l81ic.s 			page 26


 1426              		.loc 5 231 0
 1427 0046 A66A     		ldr	r6, [r4, #40]
 1428              	.LBE324:
 1429              	.LBE323:
 1430              	.LBB325:
 1431              	.LBB326:
 1432              		.loc 3 360 0
 1433 0048 FFF7FEFF 		bl	_dbg_check_unlock
 1434              	.LVL94:
 1435              		.loc 3 361 0
 1436 004c FFF7FEFF 		bl	_stats_stop_measure_crit_thd
 1437              	.LVL95:
 1438              		.loc 3 367 0
 1439 0050 2368     		ldr	r3, [r4]
 1440 0052 A342     		cmp	r3, r4
 1441 0054 07D0     		beq	.L124
 1442 0056 A269     		ldr	r2, [r4, #24]
 1443 0058 9B68     		ldr	r3, [r3, #8]
 1444 005a 9268     		ldr	r2, [r2, #8]
 1445 005c 9A42     		cmp	r2, r3
 1446 005e 02D2     		bcs	.L124
 1447 0060 7748     		ldr	r0, .L136+16
 1448 0062 FFF7FEFF 		bl	chSysHalt
 1449              	.LVL96:
 1450              	.L124:
 1451              	.LBB327:
 1452              	.LBB328:
 1453              	.LBB329:
 1454              		.loc 4 546 0
 1455 0066 0020     		movs	r0, #0
 1456              		.syntax unified
 1457              	@ 546 "../../lib/e-puck2_main-processor/ChibiOS//os/ext/CMSIS/include/core_cmFunc.h" 1
 1458 0068 80F31188 		MSR basepri, r0
 1459              	@ 0 "" 2
 1460              	.LVL97:
 1461              		.thumb
 1462              		.syntax unified
 1463              	.LBE329:
 1464              	.LBE328:
 1465              	.LBE327:
 1466              	.LBE326:
 1467              	.LBE325:
 1468              	.LBE317:
 1469              	.LBE316:
 1470              		.loc 1 435 0
 1471 006c FFF7FEFF 		bl	get_calibrated_prox
 1472              	.LVL98:
 1473 0070 C728     		cmp	r0, #199
 1474 0072 D7DC     		bgt	.L135
 1475              		.loc 1 435 0 is_stmt 0 discriminator 2
 1476 0074 0720     		movs	r0, #7
 1477 0076 FFF7FEFF 		bl	get_calibrated_prox
 1478              	.LVL99:
 1479 007a C728     		cmp	r0, #199
 1480 007c D7DD     		ble	.L129
 1481              		.loc 1 435 0
 1482 007e D9F800B0 		ldr	fp, [r9]
ARM GAS  /var/folders/j2/t8glr22d56s93xphj_30s8g80000gn/T//cc8l81ic.s 			page 27


 1483 0082 BBF1010F 		cmp	fp, #1
 1484 0086 D2D1     		bne	.L129
 1485              	.L134:
 1486              		.loc 1 437 0 is_stmt 1
 1487 0088 0025     		movs	r5, #0
 1488              	.LBB330:
 1489              	.LBB311:
 1490              		.loc 1 242 0
 1491 008a 2946     		mov	r1, r5
 1492 008c 4046     		mov	r0, r8
 1493              	.LBE311:
 1494              	.LBE330:
 1495              		.loc 1 437 0
 1496 008e C9F80050 		str	r5, [r9]
 1497              	.LVL100:
 1498              	.LBB331:
 1499              	.LBB312:
 1500              		.loc 1 242 0
 1501 0092 FFF7FEFF 		bl	motor_set_speed
 1502              	.LVL101:
 1503              	.LBE312:
 1504              	.LBE331:
 1505              	.LBB332:
 1506              	.LBB315:
 1507              		.loc 1 246 0
 1508 0096 2946     		mov	r1, r5
 1509 0098 3846     		mov	r0, r7
 1510 009a FFF7FEFF 		bl	motor_set_speed
 1511              	.LVL102:
 1512              	.LBE315:
 1513              	.LBE332:
 1514              		.loc 1 441 0
 1515 009e 0222     		movs	r2, #2
 1516              		.loc 1 442 0
 1517 00a0 4FF4FA70 		mov	r0, #500
 1518              		.loc 1 441 0
 1519 00a4 CAF80020 		str	r2, [r10]
 1520              		.loc 1 442 0
 1521 00a8 FFF7FEFF 		bl	chThdSleep
 1522              	.LVL103:
 1523              	.LBB333:
 1524              	.LBB334:
 1525              		.loc 1 242 0
 1526 00ac 2946     		mov	r1, r5
 1527 00ae 4046     		mov	r0, r8
 1528 00b0 FFF7FEFF 		bl	motor_set_speed
 1529              	.LVL104:
 1530              	.LBE334:
 1531              	.LBE333:
 1532              	.LBB335:
 1533              	.LBB336:
 1534              		.loc 1 246 0
 1535 00b4 2946     		mov	r1, r5
 1536 00b6 3846     		mov	r0, r7
 1537 00b8 FFF7FEFF 		bl	motor_set_speed
 1538              	.LVL105:
 1539              	.LBE336:
ARM GAS  /var/folders/j2/t8glr22d56s93xphj_30s8g80000gn/T//cc8l81ic.s 			page 28


 1540              	.LBE335:
 1541              		.loc 1 446 0
 1542 00bc 0A20     		movs	r0, #10
 1543 00be FFF7FEFF 		bl	chThdSleep
 1544              	.LVL106:
 1545              	.LBB337:
 1546              	.LBB338:
 1547              		.loc 1 242 0
 1548 00c2 6049     		ldr	r1, .L136+20
 1549 00c4 4046     		mov	r0, r8
 1550 00c6 FFF7FEFF 		bl	motor_set_speed
 1551              	.LVL107:
 1552              	.LBE338:
 1553              	.LBE337:
 1554              	.LBB339:
 1555              	.LBB340:
 1556              		.loc 1 246 0
 1557 00ca 4FF47A71 		mov	r1, #1000
 1558 00ce 3846     		mov	r0, r7
 1559 00d0 FFF7FEFF 		bl	motor_set_speed
 1560              	.LVL108:
 1561              	.LBE340:
 1562              	.LBE339:
 1563              		.loc 1 449 0
 1564 00d4 40F24510 		movw	r0, #325
 1565 00d8 FFF7FEFF 		bl	chThdSleep
 1566              	.LVL109:
 1567              	.LBB341:
 1568              	.LBB342:
 1569              		.loc 1 242 0
 1570 00dc 2946     		mov	r1, r5
 1571 00de 4046     		mov	r0, r8
 1572 00e0 FFF7FEFF 		bl	motor_set_speed
 1573              	.LVL110:
 1574              	.LBE342:
 1575              	.LBE341:
 1576              	.LBB343:
 1577              	.LBB344:
 1578              		.loc 1 246 0
 1579 00e4 2946     		mov	r1, r5
 1580 00e6 3846     		mov	r0, r7
 1581 00e8 FFF7FEFF 		bl	motor_set_speed
 1582              	.LVL111:
 1583              	.LBE344:
 1584              	.LBE343:
 1585              		.loc 1 453 0
 1586 00ec 0A20     		movs	r0, #10
 1587 00ee FFF7FEFF 		bl	chThdSleep
 1588              	.LVL112:
 1589              	.LBB345:
 1590              	.LBB346:
 1591              		.loc 1 242 0
 1592 00f2 4FF47A71 		mov	r1, #1000
 1593 00f6 4046     		mov	r0, r8
 1594 00f8 FFF7FEFF 		bl	motor_set_speed
 1595              	.LVL113:
 1596              	.LBE346:
ARM GAS  /var/folders/j2/t8glr22d56s93xphj_30s8g80000gn/T//cc8l81ic.s 			page 29


 1597              	.LBE345:
 1598              	.LBB347:
 1599              	.LBB348:
 1600              		.loc 1 246 0
 1601 00fc 4FF47A71 		mov	r1, #1000
 1602 0100 3846     		mov	r0, r7
 1603 0102 FFF7FEFF 		bl	motor_set_speed
 1604              	.LVL114:
 1605              	.LBE348:
 1606              	.LBE347:
 1607              		.loc 1 456 0
 1608 0106 40F2EE20 		movw	r0, #750
 1609 010a FFF7FEFF 		bl	chThdSleep
 1610              	.LVL115:
 1611              	.LBB349:
 1612              	.LBB350:
 1613              		.loc 1 242 0
 1614 010e 2946     		mov	r1, r5
 1615 0110 4046     		mov	r0, r8
 1616 0112 FFF7FEFF 		bl	motor_set_speed
 1617              	.LVL116:
 1618              	.LBE350:
 1619              	.LBE349:
 1620              	.LBB351:
 1621              	.LBB352:
 1622              		.loc 1 246 0
 1623 0116 2946     		mov	r1, r5
 1624 0118 3846     		mov	r0, r7
 1625 011a FFF7FEFF 		bl	motor_set_speed
 1626              	.LVL117:
 1627              	.LBE352:
 1628              	.LBE351:
 1629              		.loc 1 461 0
 1630 011e 0A20     		movs	r0, #10
 1631 0120 FFF7FEFF 		bl	chThdSleep
 1632              	.LVL118:
 1633              	.LBB353:
 1634              	.LBB354:
 1635              		.loc 1 242 0
 1636 0124 4FF47A71 		mov	r1, #1000
 1637 0128 4046     		mov	r0, r8
 1638 012a FFF7FEFF 		bl	motor_set_speed
 1639              	.LVL119:
 1640              	.LBE354:
 1641              	.LBE353:
 1642              	.LBB355:
 1643              	.LBB356:
 1644              		.loc 1 246 0
 1645 012e 4549     		ldr	r1, .L136+20
 1646 0130 3846     		mov	r0, r7
 1647 0132 FFF7FEFF 		bl	motor_set_speed
 1648              	.LVL120:
 1649              	.LBE356:
 1650              	.LBE355:
 1651              		.loc 1 464 0
 1652 0136 40F24510 		movw	r0, #325
 1653 013a FFF7FEFF 		bl	chThdSleep
ARM GAS  /var/folders/j2/t8glr22d56s93xphj_30s8g80000gn/T//cc8l81ic.s 			page 30


 1654              	.LVL121:
 1655              	.LBB357:
 1656              	.LBB358:
 1657              		.loc 1 242 0
 1658 013e 2946     		mov	r1, r5
 1659 0140 4046     		mov	r0, r8
 1660              	.LBE358:
 1661              	.LBE357:
 1662              		.loc 1 465 0
 1663 0142 CAF80050 		str	r5, [r10]
 1664              	.LVL122:
 1665              	.LBB360:
 1666              	.LBB359:
 1667              		.loc 1 242 0
 1668 0146 FFF7FEFF 		bl	motor_set_speed
 1669              	.LVL123:
 1670              	.LBE359:
 1671              	.LBE360:
 1672              	.LBB361:
 1673              	.LBB362:
 1674              		.loc 1 246 0
 1675 014a 2946     		mov	r1, r5
 1676 014c 3846     		mov	r0, r7
 1677 014e FFF7FEFF 		bl	motor_set_speed
 1678              	.LVL124:
 1679              	.LBE362:
 1680              	.LBE361:
 1681              		.loc 1 469 0
 1682 0152 0A20     		movs	r0, #10
 1683 0154 FFF7FEFF 		bl	chThdSleep
 1684              	.LVL125:
 1685              	.LBB363:
 1686              	.LBB364:
 1687              		.loc 1 242 0
 1688 0158 4FF47A71 		mov	r1, #1000
 1689 015c 4046     		mov	r0, r8
 1690 015e FFF7FEFF 		bl	motor_set_speed
 1691              	.LVL126:
 1692              	.LBE364:
 1693              	.LBE363:
 1694              	.LBB365:
 1695              	.LBB366:
 1696              		.loc 1 246 0
 1697 0162 4FF47A71 		mov	r1, #1000
 1698 0166 3846     		mov	r0, r7
 1699 0168 FFF7FEFF 		bl	motor_set_speed
 1700              	.LVL127:
 1701              	.LBE366:
 1702              	.LBE365:
 1703              		.loc 1 472 0
 1704 016c 40F2DC50 		movw	r0, #1500
 1705 0170 FFF7FEFF 		bl	chThdSleep
 1706              	.LVL128:
 1707              	.LBB367:
 1708              	.LBB368:
 1709              		.loc 1 242 0
 1710 0174 4FF47A71 		mov	r1, #1000
ARM GAS  /var/folders/j2/t8glr22d56s93xphj_30s8g80000gn/T//cc8l81ic.s 			page 31


 1711 0178 4046     		mov	r0, r8
 1712              	.LBE368:
 1713              	.LBE367:
 1714              		.loc 1 473 0
 1715 017a CAF800B0 		str	fp, [r10]
 1716              	.LVL129:
 1717              	.LBB370:
 1718              	.LBB369:
 1719              		.loc 1 242 0
 1720 017e FFF7FEFF 		bl	motor_set_speed
 1721              	.LVL130:
 1722              	.LBE369:
 1723              	.LBE370:
 1724              	.LBB371:
 1725              	.LBB372:
 1726              		.loc 1 246 0
 1727 0182 4FF47A71 		mov	r1, #1000
 1728 0186 3846     		mov	r0, r7
 1729 0188 FFF7FEFF 		bl	motor_set_speed
 1730              	.LVL131:
 1731              	.LBE372:
 1732              	.LBE371:
 1733              		.loc 1 476 0
 1734 018c 4FF47A70 		mov	r0, #1000
 1735 0190 FFF7FEFF 		bl	chThdSleep
 1736              	.LVL132:
 1737              	.LBB373:
 1738              	.LBB374:
 1739              		.loc 1 242 0
 1740 0194 2946     		mov	r1, r5
 1741 0196 4046     		mov	r0, r8
 1742 0198 FFF7FEFF 		bl	motor_set_speed
 1743              	.LVL133:
 1744              	.LBE374:
 1745              	.LBE373:
 1746              	.LBB375:
 1747              	.LBB376:
 1748              		.loc 1 246 0
 1749 019c 2946     		mov	r1, r5
 1750 019e 3846     		mov	r0, r7
 1751 01a0 FFF7FEFF 		bl	motor_set_speed
 1752              	.LVL134:
 1753              	.LBE376:
 1754              	.LBE375:
 1755              		.loc 1 481 0
 1756 01a4 0A20     		movs	r0, #10
 1757 01a6 FFF7FEFF 		bl	chThdSleep
 1758              	.LVL135:
 1759              	.LBB377:
 1760              	.LBB378:
 1761              		.loc 1 242 0
 1762 01aa 4FF47A71 		mov	r1, #1000
 1763 01ae 4046     		mov	r0, r8
 1764 01b0 FFF7FEFF 		bl	motor_set_speed
 1765              	.LVL136:
 1766              	.LBE378:
 1767              	.LBE377:
ARM GAS  /var/folders/j2/t8glr22d56s93xphj_30s8g80000gn/T//cc8l81ic.s 			page 32


 1768              	.LBB379:
 1769              	.LBB380:
 1770              		.loc 1 246 0
 1771 01b4 2349     		ldr	r1, .L136+20
 1772 01b6 3846     		mov	r0, r7
 1773 01b8 FFF7FEFF 		bl	motor_set_speed
 1774              	.LVL137:
 1775              	.LBE380:
 1776              	.LBE379:
 1777              		.loc 1 484 0
 1778 01bc 40F24510 		movw	r0, #325
 1779 01c0 FFF7FEFF 		bl	chThdSleep
 1780              	.LVL138:
 1781              	.LBB381:
 1782              	.LBB382:
 1783              		.loc 1 242 0
 1784 01c4 2946     		mov	r1, r5
 1785 01c6 4046     		mov	r0, r8
 1786 01c8 FFF7FEFF 		bl	motor_set_speed
 1787              	.LVL139:
 1788              	.LBE382:
 1789              	.LBE381:
 1790              	.LBB383:
 1791              	.LBB384:
 1792              		.loc 1 246 0
 1793 01cc 2946     		mov	r1, r5
 1794 01ce 3846     		mov	r0, r7
 1795 01d0 FFF7FEFF 		bl	motor_set_speed
 1796              	.LVL140:
 1797              	.LBE384:
 1798              	.LBE383:
 1799              		.loc 1 489 0
 1800 01d4 0A20     		movs	r0, #10
 1801 01d6 FFF7FEFF 		bl	chThdSleep
 1802              	.LVL141:
 1803              	.LBB385:
 1804              	.LBB386:
 1805              		.loc 1 242 0
 1806 01da 4FF47A71 		mov	r1, #1000
 1807 01de 4046     		mov	r0, r8
 1808 01e0 FFF7FEFF 		bl	motor_set_speed
 1809              	.LVL142:
 1810              	.LBE386:
 1811              	.LBE385:
 1812              	.LBB387:
 1813              	.LBB388:
 1814              		.loc 1 246 0
 1815 01e4 4FF47A71 		mov	r1, #1000
 1816 01e8 3846     		mov	r0, r7
 1817 01ea FFF7FEFF 		bl	motor_set_speed
 1818              	.LVL143:
 1819              	.LBE388:
 1820              	.LBE387:
 1821              		.loc 1 492 0
 1822 01ee 40F2EE20 		movw	r0, #750
 1823 01f2 FFF7FEFF 		bl	chThdSleep
 1824              	.LVL144:
ARM GAS  /var/folders/j2/t8glr22d56s93xphj_30s8g80000gn/T//cc8l81ic.s 			page 33


 1825              	.LBB389:
 1826              	.LBB390:
 1827              		.loc 1 242 0
 1828 01f6 2946     		mov	r1, r5
 1829 01f8 4046     		mov	r0, r8
 1830 01fa FFF7FEFF 		bl	motor_set_speed
 1831              	.LVL145:
 1832              	.LBE390:
 1833              	.LBE389:
 1834              	.LBB391:
 1835              	.LBB392:
 1836              		.loc 1 246 0
 1837 01fe 2946     		mov	r1, r5
 1838 0200 3846     		mov	r0, r7
 1839 0202 FFF7FEFF 		bl	motor_set_speed
 1840              	.LVL146:
 1841              	.LBE392:
 1842              	.LBE391:
 1843              		.loc 1 496 0
 1844 0206 0A20     		movs	r0, #10
 1845 0208 FFF7FEFF 		bl	chThdSleep
 1846              	.LVL147:
 1847              	.LBB393:
 1848              	.LBB394:
 1849              		.loc 1 242 0
 1850 020c 0D49     		ldr	r1, .L136+20
 1851 020e 4046     		mov	r0, r8
 1852 0210 FFF7FEFF 		bl	motor_set_speed
 1853              	.LVL148:
 1854              	.LBE394:
 1855              	.LBE393:
 1856              	.LBB395:
 1857              	.LBB396:
 1858              		.loc 1 246 0
 1859 0214 4FF47A71 		mov	r1, #1000
 1860 0218 3846     		mov	r0, r7
 1861 021a FFF7FEFF 		bl	motor_set_speed
 1862              	.LVL149:
 1863              	.LBE396:
 1864              	.LBE395:
 1865              		.loc 1 499 0
 1866 021e 40F24510 		movw	r0, #325
 1867 0222 FFF7FEFF 		bl	chThdSleep
 1868              	.LVL150:
 1869              		.loc 1 500 0
 1870 0226 CAF80050 		str	r5, [r10]
 1871              		.loc 1 502 0
 1872 022a C9F800B0 		str	fp, [r9]
 1873 022e FEE6     		b	.L129
 1874              	.L137:
 1875              		.align	2
 1876              	.L136:
 1877 0230 00000000 		.word	ch
 1878 0234 00000000 		.word	__stack_chk_guard
 1879 0238 00000000 		.word	.LANCHOR7
 1880 023c 00000000 		.word	.LANCHOR0
 1881 0240 00000000 		.word	.LANCHOR5
ARM GAS  /var/folders/j2/t8glr22d56s93xphj_30s8g80000gn/T//cc8l81ic.s 			page 34


 1882 0244 18FCFFFF 		.word	-1000
 1883 0248 00000000 		.word	.LANCHOR8
 1884 024c 00000000 		.word	.LANCHOR6
 1885 0250 00000000 		.word	.LANCHOR3
 1886              		.cfi_endproc
 1887              	.LFE276:
 1888              		.size	Depassement, .-Depassement
 1889              		.section	.text.Deplacement,"ax",%progbits
 1890              		.align	1
 1891              		.p2align 4,,15
 1892              		.syntax unified
 1893              		.thumb
 1894              		.thumb_func
 1895              		.fpu fpv4-sp-d16
 1896              		.type	Deplacement, %function
 1897              	Deplacement:
 1898              	.LFB277:
 1899              		.loc 1 513 0
 1900              		.cfi_startproc
 1901              		@ args = 0, pretend = 0, frame = 8
 1902              		@ frame_needed = 0, uses_anonymous_args = 0
 1903              	.LVL151:
 1904 0000 2DE9F043 		push	{r4, r5, r6, r7, r8, r9, lr}
 1905              		.cfi_def_cfa_offset 28
 1906              		.cfi_offset 4, -28
 1907              		.cfi_offset 5, -24
 1908              		.cfi_offset 6, -20
 1909              		.cfi_offset 7, -16
 1910              		.cfi_offset 8, -12
 1911              		.cfi_offset 9, -8
 1912              		.cfi_offset 14, -4
 1913              	.LBB417:
 1914              	.LBB418:
 1915              		.loc 2 135 0
 1916 0004 224C     		ldr	r4, .L150
 1917              	.LBE418:
 1918              	.LBE417:
 1919              		.loc 1 513 0
 1920 0006 234B     		ldr	r3, .L150+4
 1921              	.LBB421:
 1922              	.LBB419:
 1923              		.loc 2 135 0
 1924 0008 A269     		ldr	r2, [r4, #24]
 1925 000a 2349     		ldr	r1, .L150+8
 1926              	.LBE419:
 1927              	.LBE421:
 1928              		.loc 1 513 0
 1929 000c 1B68     		ldr	r3, [r3]
 1930 000e 234E     		ldr	r6, .L150+12
 1931              	.LBB422:
 1932              	.LBB423:
 1933              	.LBB424:
 1934              	.LBB425:
 1935              		.loc 3 367 0
 1936 0010 DFF89090 		ldr	r9, .L150+20
 1937              	.LBE425:
 1938              	.LBE424:
ARM GAS  /var/folders/j2/t8glr22d56s93xphj_30s8g80000gn/T//cc8l81ic.s 			page 35


 1939              	.LBE423:
 1940              	.LBE422:
 1941              	.LBB439:
 1942              	.LBB420:
 1943              		.loc 2 135 0
 1944 0014 9161     		str	r1, [r2, #24]
 1945              	.LBE420:
 1946              	.LBE439:
 1947              		.loc 1 513 0
 1948 0016 83B0     		sub	sp, sp, #12
 1949              		.cfi_def_cfa_offset 40
 1950              	.LBB440:
 1951              	.LBB441:
 1952              		.loc 1 242 0
 1953 0018 DFF88C80 		ldr	r8, .L150+24
 1954              	.LBE441:
 1955              	.LBE440:
 1956              	.LBB443:
 1957              	.LBB444:
 1958              		.loc 1 246 0
 1959 001c 204F     		ldr	r7, .L150+16
 1960              	.LBE444:
 1961              	.LBE443:
 1962              		.loc 1 513 0
 1963 001e 0193     		str	r3, [sp, #4]
 1964              	.LVL152:
 1965 0020 0FE0     		b	.L143
 1966              	.LVL153:
 1967              	.L149:
 1968              		.loc 1 524 0
 1969 0022 3360     		str	r3, [r6]
 1970              	.L141:
 1971              	.LVL154:
 1972              	.LBB446:
 1973              	.LBB442:
 1974              		.loc 1 242 0
 1975 0024 4FF47A71 		mov	r1, #1000
 1976 0028 4046     		mov	r0, r8
 1977 002a FFF7FEFF 		bl	motor_set_speed
 1978              	.LVL155:
 1979              	.LBE442:
 1980              	.LBE446:
 1981              	.LBB447:
 1982              	.LBB445:
 1983              		.loc 1 246 0
 1984 002e 4FF47A71 		mov	r1, #1000
 1985 0032 3846     		mov	r0, r7
 1986 0034 FFF7FEFF 		bl	motor_set_speed
 1987              	.LVL156:
 1988              	.L142:
 1989              	.LBE445:
 1990              	.LBE447:
 1991              		.loc 1 533 0
 1992 0038 05F10A01 		add	r1, r5, #10
 1993 003c 2846     		mov	r0, r5
 1994 003e FFF7FEFF 		bl	chThdSleepUntilWindowed
 1995              	.LVL157:
ARM GAS  /var/folders/j2/t8glr22d56s93xphj_30s8g80000gn/T//cc8l81ic.s 			page 36


 1996              	.L143:
 1997              	.LBB448:
 1998              	.LBB438:
 1999              	.LBB430:
 2000              	.LBB431:
 2001              	.LBB432:
 2002              	.LBB433:
 2003              	.LBB434:
 2004              		.loc 4 546 0
 2005 0042 2023     		movs	r3, #32
 2006              		.syntax unified
 2007              	@ 546 "../../lib/e-puck2_main-processor/ChibiOS//os/ext/CMSIS/include/core_cmFunc.h" 1
 2008 0044 83F31188 		MSR basepri, r3
 2009              	@ 0 "" 2
 2010              	.LVL158:
 2011              		.thumb
 2012              		.syntax unified
 2013              	.LBE434:
 2014              	.LBE433:
 2015              	.LBE432:
 2016              		.loc 3 349 0
 2017 0048 FFF7FEFF 		bl	_stats_start_measure_crit_thd
 2018              	.LVL159:
 2019              		.loc 3 350 0
 2020 004c FFF7FEFF 		bl	_dbg_check_lock
 2021              	.LVL160:
 2022              	.LBE431:
 2023              	.LBE430:
 2024              	.LBB435:
 2025              	.LBB436:
 2026              		.loc 5 231 0
 2027 0050 A56A     		ldr	r5, [r4, #40]
 2028              	.LBE436:
 2029              	.LBE435:
 2030              	.LBB437:
 2031              	.LBB429:
 2032              		.loc 3 360 0
 2033 0052 FFF7FEFF 		bl	_dbg_check_unlock
 2034              	.LVL161:
 2035              		.loc 3 361 0
 2036 0056 FFF7FEFF 		bl	_stats_stop_measure_crit_thd
 2037              	.LVL162:
 2038              		.loc 3 367 0
 2039 005a 2368     		ldr	r3, [r4]
 2040 005c A342     		cmp	r3, r4
 2041 005e 07D0     		beq	.L139
 2042 0060 A269     		ldr	r2, [r4, #24]
 2043 0062 9B68     		ldr	r3, [r3, #8]
 2044 0064 9268     		ldr	r2, [r2, #8]
 2045 0066 9A42     		cmp	r2, r3
 2046 0068 02D2     		bcs	.L139
 2047 006a 4846     		mov	r0, r9
 2048 006c FFF7FEFF 		bl	chSysHalt
 2049              	.LVL163:
 2050              	.L139:
 2051              	.LBB426:
 2052              	.LBB427:
ARM GAS  /var/folders/j2/t8glr22d56s93xphj_30s8g80000gn/T//cc8l81ic.s 			page 37


 2053              	.LBB428:
 2054              		.loc 4 546 0
 2055 0070 0023     		movs	r3, #0
 2056              		.syntax unified
 2057              	@ 546 "../../lib/e-puck2_main-processor/ChibiOS//os/ext/CMSIS/include/core_cmFunc.h" 1
 2058 0072 83F31188 		MSR basepri, r3
 2059              	@ 0 "" 2
 2060              	.LVL164:
 2061              		.thumb
 2062              		.syntax unified
 2063              	.LBE428:
 2064              	.LBE427:
 2065              	.LBE426:
 2066              	.LBE429:
 2067              	.LBE437:
 2068              	.LBE438:
 2069              	.LBE448:
 2070              		.loc 1 522 0
 2071 0076 0420     		movs	r0, #4
 2072 0078 FFF7FEFF 		bl	get_calibrated_prox
 2073              	.LVL165:
 2074 007c B0F5FA7F 		cmp	r0, #500
 2075              		.loc 1 524 0
 2076 0080 4FF00103 		mov	r3, #1
 2077              		.loc 1 522 0
 2078 0084 CDDA     		bge	.L149
 2079              		.loc 1 526 0
 2080 0086 3368     		ldr	r3, [r6]
 2081 0088 002B     		cmp	r3, #0
 2082 008a D5D0     		beq	.L142
 2083 008c CAE7     		b	.L141
 2084              	.L151:
 2085 008e 00BF     		.align	2
 2086              	.L150:
 2087 0090 00000000 		.word	ch
 2088 0094 00000000 		.word	__stack_chk_guard
 2089 0098 00000000 		.word	.LANCHOR9
 2090 009c 00000000 		.word	.LANCHOR8
 2091 00a0 00000000 		.word	.LANCHOR0
 2092 00a4 00000000 		.word	.LANCHOR5
 2093 00a8 00000000 		.word	.LANCHOR3
 2094              		.cfi_endproc
 2095              	.LFE277:
 2096              		.size	Deplacement, .-Deplacement
 2097              		.section	.text.Manoeuvre,"ax",%progbits
 2098              		.align	1
 2099              		.p2align 4,,15
 2100              		.syntax unified
 2101              		.thumb
 2102              		.thumb_func
 2103              		.fpu fpv4-sp-d16
 2104              		.type	Manoeuvre, %function
 2105              	Manoeuvre:
 2106              	.LFB274:
 2107              		.loc 1 325 0
 2108              		.cfi_startproc
 2109              		@ args = 0, pretend = 0, frame = 8
ARM GAS  /var/folders/j2/t8glr22d56s93xphj_30s8g80000gn/T//cc8l81ic.s 			page 38


 2110              		@ frame_needed = 0, uses_anonymous_args = 0
 2111              	.LVL166:
 2112 0000 2DE9F04F 		push	{r4, r5, r6, r7, r8, r9, r10, fp, lr}
 2113              		.cfi_def_cfa_offset 36
 2114              		.cfi_offset 4, -36
 2115              		.cfi_offset 5, -32
 2116              		.cfi_offset 6, -28
 2117              		.cfi_offset 7, -24
 2118              		.cfi_offset 8, -20
 2119              		.cfi_offset 9, -16
 2120              		.cfi_offset 10, -12
 2121              		.cfi_offset 11, -8
 2122              		.cfi_offset 14, -4
 2123              	.LBB493:
 2124              	.LBB494:
 2125              		.loc 2 135 0
 2126 0004 454C     		ldr	r4, .L160
 2127              	.LBE494:
 2128              	.LBE493:
 2129              		.loc 1 325 0
 2130 0006 464B     		ldr	r3, .L160+4
 2131              	.LBB497:
 2132              	.LBB495:
 2133              		.loc 2 135 0
 2134 0008 A269     		ldr	r2, [r4, #24]
 2135 000a DFF82C91 		ldr	r9, .L160+28
 2136 000e 4549     		ldr	r1, .L160+8
 2137              	.LBE495:
 2138              	.LBE497:
 2139              		.loc 1 325 0
 2140 0010 1B68     		ldr	r3, [r3]
 2141 0012 DFF82881 		ldr	r8, .L160+32
 2142              	.LBB498:
 2143              	.LBB496:
 2144              		.loc 2 135 0
 2145 0016 9161     		str	r1, [r2, #24]
 2146              	.LBE496:
 2147              	.LBE498:
 2148              		.loc 1 325 0
 2149 0018 83B0     		sub	sp, sp, #12
 2150              		.cfi_def_cfa_offset 48
 2151              	.LBB499:
 2152              	.LBB500:
 2153              		.loc 1 246 0
 2154 001a 434F     		ldr	r7, .L160+12
 2155              	.LBE500:
 2156              	.LBE499:
 2157              		.loc 1 325 0
 2158 001c 0193     		str	r3, [sp, #4]
 2159              	.LVL167:
 2160              	.LBB502:
 2161              	.LBB503:
 2162              		.loc 1 242 0
 2163 001e 4E46     		mov	r6, r9
 2164 0020 04E0     		b	.L156
 2165              	.LVL168:
 2166              	.L154:
ARM GAS  /var/folders/j2/t8glr22d56s93xphj_30s8g80000gn/T//cc8l81ic.s 			page 39


 2167              	.LBE503:
 2168              	.LBE502:
 2169              		.loc 1 372 0
 2170 0022 05F10A01 		add	r1, r5, #10
 2171 0026 2846     		mov	r0, r5
 2172 0028 FFF7FEFF 		bl	chThdSleepUntilWindowed
 2173              	.LVL169:
 2174              	.L156:
 2175              	.LBB506:
 2176              	.LBB507:
 2177              	.LBB508:
 2178              	.LBB509:
 2179              	.LBB510:
 2180              	.LBB511:
 2181              	.LBB512:
 2182              		.loc 4 546 0
 2183 002c 2023     		movs	r3, #32
 2184              		.syntax unified
 2185              	@ 546 "../../lib/e-puck2_main-processor/ChibiOS//os/ext/CMSIS/include/core_cmFunc.h" 1
 2186 002e 83F31188 		MSR basepri, r3
 2187              	@ 0 "" 2
 2188              	.LVL170:
 2189              		.thumb
 2190              		.syntax unified
 2191              	.LBE512:
 2192              	.LBE511:
 2193              	.LBE510:
 2194              		.loc 3 349 0
 2195 0032 FFF7FEFF 		bl	_stats_start_measure_crit_thd
 2196              	.LVL171:
 2197              		.loc 3 350 0
 2198 0036 FFF7FEFF 		bl	_dbg_check_lock
 2199              	.LVL172:
 2200              	.LBE509:
 2201              	.LBE508:
 2202              	.LBB513:
 2203              	.LBB514:
 2204              		.loc 5 231 0
 2205 003a A56A     		ldr	r5, [r4, #40]
 2206              	.LBE514:
 2207              	.LBE513:
 2208              	.LBB515:
 2209              	.LBB516:
 2210              		.loc 3 360 0
 2211 003c FFF7FEFF 		bl	_dbg_check_unlock
 2212              	.LVL173:
 2213              		.loc 3 361 0
 2214 0040 FFF7FEFF 		bl	_stats_stop_measure_crit_thd
 2215              	.LVL174:
 2216              		.loc 3 367 0
 2217 0044 2368     		ldr	r3, [r4]
 2218 0046 A342     		cmp	r3, r4
 2219 0048 07D0     		beq	.L153
 2220 004a A269     		ldr	r2, [r4, #24]
 2221 004c 9B68     		ldr	r3, [r3, #8]
 2222 004e 9268     		ldr	r2, [r2, #8]
 2223 0050 9A42     		cmp	r2, r3
ARM GAS  /var/folders/j2/t8glr22d56s93xphj_30s8g80000gn/T//cc8l81ic.s 			page 40


 2224 0052 02D2     		bcs	.L153
 2225 0054 3548     		ldr	r0, .L160+16
 2226 0056 FFF7FEFF 		bl	chSysHalt
 2227              	.LVL175:
 2228              	.L153:
 2229              	.LBB517:
 2230              	.LBB518:
 2231              	.LBB519:
 2232              		.loc 4 546 0
 2233 005a 4FF0000B 		mov	fp, #0
 2234              		.syntax unified
 2235              	@ 546 "../../lib/e-puck2_main-processor/ChibiOS//os/ext/CMSIS/include/core_cmFunc.h" 1
 2236 005e 8BF31188 		MSR basepri, fp
 2237              	@ 0 "" 2
 2238              	.LVL176:
 2239              		.thumb
 2240              		.syntax unified
 2241              	.LBE519:
 2242              	.LBE518:
 2243              	.LBE517:
 2244              	.LBE516:
 2245              	.LBE515:
 2246              	.LBE507:
 2247              	.LBE506:
 2248              		.loc 1 335 0
 2249 0062 0520     		movs	r0, #5
 2250 0064 FFF7FEFF 		bl	get_calibrated_prox
 2251              	.LVL177:
 2252 0068 C728     		cmp	r0, #199
 2253 006a DADD     		ble	.L154
 2254              		.loc 1 335 0 is_stmt 0 discriminator 1
 2255 006c D8F800A0 		ldr	r10, [r8]
 2256 0070 BAF1010F 		cmp	r10, #1
 2257 0074 D5D1     		bne	.L154
 2258              	.LBB520:
 2259              	.LBB504:
 2260              		.loc 1 242 0 is_stmt 1
 2261 0076 5946     		mov	r1, fp
 2262 0078 3046     		mov	r0, r6
 2263              	.LBE504:
 2264              	.LBE520:
 2265              		.loc 1 337 0
 2266 007a C8F800B0 		str	fp, [r8]
 2267              	.LVL178:
 2268              	.LBB521:
 2269              	.LBB505:
 2270              		.loc 1 242 0
 2271 007e FFF7FEFF 		bl	motor_set_speed
 2272              	.LVL179:
 2273              	.LBE505:
 2274              	.LBE521:
 2275              	.LBB522:
 2276              	.LBB501:
 2277              		.loc 1 246 0
 2278 0082 5946     		mov	r1, fp
 2279 0084 3846     		mov	r0, r7
 2280 0086 FFF7FEFF 		bl	motor_set_speed
ARM GAS  /var/folders/j2/t8glr22d56s93xphj_30s8g80000gn/T//cc8l81ic.s 			page 41


 2281              	.LVL180:
 2282              	.LBE501:
 2283              	.LBE522:
 2284              		.loc 1 341 0
 2285 008a 294B     		ldr	r3, .L160+20
 2286              		.loc 1 342 0
 2287 008c 4FF47A70 		mov	r0, #1000
 2288              		.loc 1 341 0
 2289 0090 C3F800A0 		str	r10, [r3]
 2290              		.loc 1 342 0
 2291 0094 FFF7FEFF 		bl	chThdSleep
 2292              	.LVL181:
 2293              	.LBB523:
 2294              	.LBB524:
 2295              		.loc 1 242 0
 2296 0098 2649     		ldr	r1, .L160+24
 2297 009a 3046     		mov	r0, r6
 2298              	.LBE524:
 2299              	.LBE523:
 2300              	.LBB526:
 2301              	.LBB527:
 2302              		.loc 1 246 0
 2303 009c 8A46     		mov	r10, r1
 2304              	.LBE527:
 2305              	.LBE526:
 2306              	.LBB529:
 2307              	.LBB525:
 2308              		.loc 1 242 0
 2309 009e FFF7FEFF 		bl	motor_set_speed
 2310              	.LVL182:
 2311              	.LBE525:
 2312              	.LBE529:
 2313              	.LBB530:
 2314              	.LBB531:
 2315              		.loc 1 246 0
 2316 00a2 5146     		mov	r1, r10
 2317 00a4 3846     		mov	r0, r7
 2318 00a6 FFF7FEFF 		bl	motor_set_speed
 2319              	.LVL183:
 2320              	.LBE531:
 2321              	.LBE530:
 2322              		.loc 1 347 0
 2323 00aa 4FF47A70 		mov	r0, #1000
 2324 00ae FFF7FEFF 		bl	chThdSleep
 2325              	.LVL184:
 2326              	.LBB532:
 2327              	.LBB533:
 2328              		.loc 1 242 0
 2329 00b2 5146     		mov	r1, r10
 2330 00b4 3046     		mov	r0, r6
 2331 00b6 FFF7FEFF 		bl	motor_set_speed
 2332              	.LVL185:
 2333              	.LBE533:
 2334              	.LBE532:
 2335              	.LBB534:
 2336              	.LBB535:
 2337              		.loc 1 246 0
ARM GAS  /var/folders/j2/t8glr22d56s93xphj_30s8g80000gn/T//cc8l81ic.s 			page 42


 2338 00ba 4FF47A71 		mov	r1, #1000
 2339 00be 3846     		mov	r0, r7
 2340 00c0 FFF7FEFF 		bl	motor_set_speed
 2341              	.LVL186:
 2342              	.LBE535:
 2343              	.LBE534:
 2344              		.loc 1 351 0
 2345 00c4 40F24510 		movw	r0, #325
 2346 00c8 FFF7FEFF 		bl	chThdSleep
 2347              	.LVL187:
 2348              	.LBB536:
 2349              	.LBB537:
 2350              		.loc 1 242 0
 2351 00cc 5146     		mov	r1, r10
 2352 00ce 3046     		mov	r0, r6
 2353 00d0 FFF7FEFF 		bl	motor_set_speed
 2354              	.LVL188:
 2355              	.LBE537:
 2356              	.LBE536:
 2357              	.LBB538:
 2358              	.LBB539:
 2359              		.loc 1 246 0
 2360 00d4 5146     		mov	r1, r10
 2361 00d6 3846     		mov	r0, r7
 2362 00d8 FFF7FEFF 		bl	motor_set_speed
 2363              	.LVL189:
 2364              	.LBE539:
 2365              	.LBE538:
 2366              		.loc 1 355 0
 2367 00dc 40F2EE20 		movw	r0, #750
 2368 00e0 FFF7FEFF 		bl	chThdSleep
 2369              	.LVL190:
 2370              		.loc 1 358 0
 2371 00e4 124B     		ldr	r3, .L160+20
 2372              	.LBB540:
 2373              	.LBB541:
 2374              		.loc 1 258 0
 2375 00e6 C9F804B0 		str	fp, [r9, #4]
 2376              	.LBE541:
 2377              	.LBE540:
 2378              		.loc 1 358 0
 2379 00ea C3F800B0 		str	fp, [r3]
 2380              	.LVL191:
 2381              	.L155:
 2382              	.LBB542:
 2383              	.LBB543:
 2384              		.loc 1 242 0
 2385 00ee 4FF47A71 		mov	r1, #1000
 2386 00f2 3046     		mov	r0, r6
 2387 00f4 FFF7FEFF 		bl	motor_set_speed
 2388              	.LVL192:
 2389              	.LBE543:
 2390              	.LBE542:
 2391              	.LBB544:
 2392              	.LBB528:
 2393              		.loc 1 246 0
 2394 00f8 5146     		mov	r1, r10
ARM GAS  /var/folders/j2/t8glr22d56s93xphj_30s8g80000gn/T//cc8l81ic.s 			page 43


 2395 00fa 3846     		mov	r0, r7
 2396 00fc FFF7FEFF 		bl	motor_set_speed
 2397              	.LVL193:
 2398              	.LBE528:
 2399              	.LBE544:
 2400              		.loc 1 361 0
 2401 0100 D9F80430 		ldr	r3, [r9, #4]
 2402 0104 B3F5237F 		cmp	r3, #652
 2403 0108 F1DB     		blt	.L155
 2404              	.LVL194:
 2405              	.LBB545:
 2406              	.LBB546:
 2407              		.loc 1 242 0
 2408 010a 3046     		mov	r0, r6
 2409 010c 0021     		movs	r1, #0
 2410 010e FFF7FEFF 		bl	motor_set_speed
 2411              	.LVL195:
 2412              	.LBE546:
 2413              	.LBE545:
 2414              	.LBB547:
 2415              	.LBB548:
 2416              		.loc 1 246 0
 2417 0112 0021     		movs	r1, #0
 2418 0114 3846     		mov	r0, r7
 2419 0116 FFF7FEFF 		bl	motor_set_speed
 2420              	.LVL196:
 2421 011a 82E7     		b	.L154
 2422              	.L161:
 2423              		.align	2
 2424              	.L160:
 2425 011c 00000000 		.word	ch
 2426 0120 00000000 		.word	__stack_chk_guard
 2427 0124 00000000 		.word	.LANCHOR10
 2428 0128 00000000 		.word	.LANCHOR0
 2429 012c 00000000 		.word	.LANCHOR5
 2430 0130 00000000 		.word	.LANCHOR6
 2431 0134 18FCFFFF 		.word	-1000
 2432 0138 00000000 		.word	.LANCHOR3
 2433 013c 00000000 		.word	.LANCHOR8
 2434              	.LBE548:
 2435              	.LBE547:
 2436              		.cfi_endproc
 2437              	.LFE274:
 2438              		.size	Manoeuvre, .-Manoeuvre
 2439              		.section	.text.left_motor_set_speed,"ax",%progbits
 2440              		.align	1
 2441              		.p2align 4,,15
 2442              		.global	left_motor_set_speed
 2443              		.syntax unified
 2444              		.thumb
 2445              		.thumb_func
 2446              		.fpu fpv4-sp-d16
 2447              		.type	left_motor_set_speed, %function
 2448              	left_motor_set_speed:
 2449              	.LFB267:
 2450              		.loc 1 241 0
 2451              		.cfi_startproc
ARM GAS  /var/folders/j2/t8glr22d56s93xphj_30s8g80000gn/T//cc8l81ic.s 			page 44


 2452              		@ args = 0, pretend = 0, frame = 8
 2453              		@ frame_needed = 0, uses_anonymous_args = 0
 2454              	.LVL197:
 2455 0000 00B5     		push	{lr}
 2456              		.cfi_def_cfa_offset 4
 2457              		.cfi_offset 14, -4
 2458 0002 084B     		ldr	r3, .L167
 2459 0004 83B0     		sub	sp, sp, #12
 2460              		.cfi_def_cfa_offset 16
 2461              		.loc 1 241 0
 2462 0006 1A68     		ldr	r2, [r3]
 2463 0008 0192     		str	r2, [sp, #4]
 2464              		.loc 1 242 0
 2465 000a 019A     		ldr	r2, [sp, #4]
 2466 000c 1B68     		ldr	r3, [r3]
 2467 000e 9A42     		cmp	r2, r3
 2468 0010 06D1     		bne	.L166
 2469 0012 0146     		mov	r1, r0
 2470 0014 0448     		ldr	r0, .L167+4
 2471              	.LVL198:
 2472              		.loc 1 243 0
 2473 0016 03B0     		add	sp, sp, #12
 2474              		.cfi_remember_state
 2475              		.cfi_def_cfa_offset 4
 2476              		@ sp needed
 2477 0018 5DF804EB 		ldr	lr, [sp], #4
 2478              		.cfi_restore 14
 2479              		.cfi_def_cfa_offset 0
 2480              		.loc 1 242 0
 2481 001c FFF7FEBF 		b	motor_set_speed
 2482              	.LVL199:
 2483              	.L166:
 2484              		.cfi_restore_state
 2485 0020 FFF7FEFF 		bl	__stack_chk_fail
 2486              	.LVL200:
 2487              	.L168:
 2488              		.align	2
 2489              	.L167:
 2490 0024 00000000 		.word	__stack_chk_guard
 2491 0028 00000000 		.word	.LANCHOR3
 2492              		.cfi_endproc
 2493              	.LFE267:
 2494              		.size	left_motor_set_speed, .-left_motor_set_speed
 2495              		.section	.text.right_motor_set_speed,"ax",%progbits
 2496              		.align	1
 2497              		.p2align 4,,15
 2498              		.global	right_motor_set_speed
 2499              		.syntax unified
 2500              		.thumb
 2501              		.thumb_func
 2502              		.fpu fpv4-sp-d16
 2503              		.type	right_motor_set_speed, %function
 2504              	right_motor_set_speed:
 2505              	.LFB268:
 2506              		.loc 1 245 0
 2507              		.cfi_startproc
 2508              		@ args = 0, pretend = 0, frame = 8
ARM GAS  /var/folders/j2/t8glr22d56s93xphj_30s8g80000gn/T//cc8l81ic.s 			page 45


 2509              		@ frame_needed = 0, uses_anonymous_args = 0
 2510              	.LVL201:
 2511 0000 00B5     		push	{lr}
 2512              		.cfi_def_cfa_offset 4
 2513              		.cfi_offset 14, -4
 2514 0002 084B     		ldr	r3, .L174
 2515 0004 83B0     		sub	sp, sp, #12
 2516              		.cfi_def_cfa_offset 16
 2517              		.loc 1 245 0
 2518 0006 1A68     		ldr	r2, [r3]
 2519 0008 0192     		str	r2, [sp, #4]
 2520              		.loc 1 246 0
 2521 000a 019A     		ldr	r2, [sp, #4]
 2522 000c 1B68     		ldr	r3, [r3]
 2523 000e 9A42     		cmp	r2, r3
 2524 0010 06D1     		bne	.L173
 2525 0012 0146     		mov	r1, r0
 2526 0014 0448     		ldr	r0, .L174+4
 2527              	.LVL202:
 2528              		.loc 1 247 0
 2529 0016 03B0     		add	sp, sp, #12
 2530              		.cfi_remember_state
 2531              		.cfi_def_cfa_offset 4
 2532              		@ sp needed
 2533 0018 5DF804EB 		ldr	lr, [sp], #4
 2534              		.cfi_restore 14
 2535              		.cfi_def_cfa_offset 0
 2536              		.loc 1 246 0
 2537 001c FFF7FEBF 		b	motor_set_speed
 2538              	.LVL203:
 2539              	.L173:
 2540              		.cfi_restore_state
 2541 0020 FFF7FEFF 		bl	__stack_chk_fail
 2542              	.LVL204:
 2543              	.L175:
 2544              		.align	2
 2545              	.L174:
 2546 0024 00000000 		.word	__stack_chk_guard
 2547 0028 00000000 		.word	.LANCHOR0
 2548              		.cfi_endproc
 2549              	.LFE268:
 2550              		.size	right_motor_set_speed, .-right_motor_set_speed
 2551              		.section	.text.left_motor_get_pos,"ax",%progbits
 2552              		.align	1
 2553              		.p2align 4,,15
 2554              		.global	left_motor_get_pos
 2555              		.syntax unified
 2556              		.thumb
 2557              		.thumb_func
 2558              		.fpu fpv4-sp-d16
 2559              		.type	left_motor_get_pos, %function
 2560              	left_motor_get_pos:
 2561              	.LFB269:
 2562              		.loc 1 249 0
 2563              		.cfi_startproc
 2564              		@ args = 0, pretend = 0, frame = 8
 2565              		@ frame_needed = 0, uses_anonymous_args = 0
ARM GAS  /var/folders/j2/t8glr22d56s93xphj_30s8g80000gn/T//cc8l81ic.s 			page 46


 2566 0000 00B5     		push	{lr}
 2567              		.cfi_def_cfa_offset 4
 2568              		.cfi_offset 14, -4
 2569 0002 094B     		ldr	r3, .L180
 2570              		.loc 1 250 0
 2571 0004 094A     		ldr	r2, .L180+4
 2572              		.loc 1 249 0
 2573 0006 1968     		ldr	r1, [r3]
 2574              		.loc 1 250 0
 2575 0008 5068     		ldr	r0, [r2, #4]
 2576              		.loc 1 249 0
 2577 000a 83B0     		sub	sp, sp, #12
 2578              		.cfi_def_cfa_offset 16
 2579              		.loc 1 250 0
 2580 000c 00EBD070 		add	r0, r0, r0, lsr #31
 2581              		.loc 1 249 0
 2582 0010 0191     		str	r1, [sp, #4]
 2583              		.loc 1 251 0
 2584 0012 019A     		ldr	r2, [sp, #4]
 2585 0014 1B68     		ldr	r3, [r3]
 2586 0016 9A42     		cmp	r2, r3
 2587 0018 03D1     		bne	.L179
 2588 001a 4010     		asrs	r0, r0, #1
 2589 001c 03B0     		add	sp, sp, #12
 2590              		.cfi_remember_state
 2591              		.cfi_def_cfa_offset 4
 2592              		@ sp needed
 2593 001e 5DF804FB 		ldr	pc, [sp], #4
 2594              	.L179:
 2595              		.cfi_restore_state
 2596 0022 FFF7FEFF 		bl	__stack_chk_fail
 2597              	.LVL205:
 2598              	.L181:
 2599 0026 00BF     		.align	2
 2600              	.L180:
 2601 0028 00000000 		.word	__stack_chk_guard
 2602 002c 00000000 		.word	.LANCHOR3
 2603              		.cfi_endproc
 2604              	.LFE269:
 2605              		.size	left_motor_get_pos, .-left_motor_get_pos
 2606              		.section	.text.right_motor_get_pos,"ax",%progbits
 2607              		.align	1
 2608              		.p2align 4,,15
 2609              		.global	right_motor_get_pos
 2610              		.syntax unified
 2611              		.thumb
 2612              		.thumb_func
 2613              		.fpu fpv4-sp-d16
 2614              		.type	right_motor_get_pos, %function
 2615              	right_motor_get_pos:
 2616              	.LFB270:
 2617              		.loc 1 253 0
 2618              		.cfi_startproc
 2619              		@ args = 0, pretend = 0, frame = 8
 2620              		@ frame_needed = 0, uses_anonymous_args = 0
 2621 0000 00B5     		push	{lr}
 2622              		.cfi_def_cfa_offset 4
ARM GAS  /var/folders/j2/t8glr22d56s93xphj_30s8g80000gn/T//cc8l81ic.s 			page 47


 2623              		.cfi_offset 14, -4
 2624 0002 094B     		ldr	r3, .L186
 2625              		.loc 1 254 0
 2626 0004 094A     		ldr	r2, .L186+4
 2627              		.loc 1 253 0
 2628 0006 1968     		ldr	r1, [r3]
 2629              		.loc 1 254 0
 2630 0008 5068     		ldr	r0, [r2, #4]
 2631              		.loc 1 253 0
 2632 000a 83B0     		sub	sp, sp, #12
 2633              		.cfi_def_cfa_offset 16
 2634              		.loc 1 254 0
 2635 000c 00EBD070 		add	r0, r0, r0, lsr #31
 2636              		.loc 1 253 0
 2637 0010 0191     		str	r1, [sp, #4]
 2638              		.loc 1 255 0
 2639 0012 019A     		ldr	r2, [sp, #4]
 2640 0014 1B68     		ldr	r3, [r3]
 2641 0016 9A42     		cmp	r2, r3
 2642 0018 03D1     		bne	.L185
 2643 001a 4010     		asrs	r0, r0, #1
 2644 001c 03B0     		add	sp, sp, #12
 2645              		.cfi_remember_state
 2646              		.cfi_def_cfa_offset 4
 2647              		@ sp needed
 2648 001e 5DF804FB 		ldr	pc, [sp], #4
 2649              	.L185:
 2650              		.cfi_restore_state
 2651 0022 FFF7FEFF 		bl	__stack_chk_fail
 2652              	.LVL206:
 2653              	.L187:
 2654 0026 00BF     		.align	2
 2655              	.L186:
 2656 0028 00000000 		.word	__stack_chk_guard
 2657 002c 00000000 		.word	.LANCHOR0
 2658              		.cfi_endproc
 2659              	.LFE270:
 2660              		.size	right_motor_get_pos, .-right_motor_get_pos
 2661              		.section	.text.left_motor_set_pos,"ax",%progbits
 2662              		.align	1
 2663              		.p2align 4,,15
 2664              		.global	left_motor_set_pos
 2665              		.syntax unified
 2666              		.thumb
 2667              		.thumb_func
 2668              		.fpu fpv4-sp-d16
 2669              		.type	left_motor_set_pos, %function
 2670              	left_motor_set_pos:
 2671              	.LFB271:
 2672              		.loc 1 257 0
 2673              		.cfi_startproc
 2674              		@ args = 0, pretend = 0, frame = 8
 2675              		@ frame_needed = 0, uses_anonymous_args = 0
 2676              	.LVL207:
 2677 0000 00B5     		push	{lr}
 2678              		.cfi_def_cfa_offset 4
 2679              		.cfi_offset 14, -4
ARM GAS  /var/folders/j2/t8glr22d56s93xphj_30s8g80000gn/T//cc8l81ic.s 			page 48


 2680 0002 084B     		ldr	r3, .L192
 2681              		.loc 1 258 0
 2682 0004 0849     		ldr	r1, .L192+4
 2683              		.loc 1 257 0
 2684 0006 1A68     		ldr	r2, [r3]
 2685 0008 83B0     		sub	sp, sp, #12
 2686              		.cfi_def_cfa_offset 16
 2687              		.loc 1 258 0
 2688 000a 4000     		lsls	r0, r0, #1
 2689              	.LVL208:
 2690              		.loc 1 257 0
 2691 000c 0192     		str	r2, [sp, #4]
 2692              		.loc 1 259 0
 2693 000e 019A     		ldr	r2, [sp, #4]
 2694 0010 1B68     		ldr	r3, [r3]
 2695              		.loc 1 258 0
 2696 0012 4860     		str	r0, [r1, #4]
 2697              		.loc 1 259 0
 2698 0014 9A42     		cmp	r2, r3
 2699 0016 02D1     		bne	.L191
 2700 0018 03B0     		add	sp, sp, #12
 2701              		.cfi_remember_state
 2702              		.cfi_def_cfa_offset 4
 2703              		@ sp needed
 2704 001a 5DF804FB 		ldr	pc, [sp], #4
 2705              	.L191:
 2706              		.cfi_restore_state
 2707 001e FFF7FEFF 		bl	__stack_chk_fail
 2708              	.LVL209:
 2709              	.L193:
 2710 0022 00BF     		.align	2
 2711              	.L192:
 2712 0024 00000000 		.word	__stack_chk_guard
 2713 0028 00000000 		.word	.LANCHOR3
 2714              		.cfi_endproc
 2715              	.LFE271:
 2716              		.size	left_motor_set_pos, .-left_motor_set_pos
 2717              		.section	.text.right_motor_set_pos,"ax",%progbits
 2718              		.align	1
 2719              		.p2align 4,,15
 2720              		.global	right_motor_set_pos
 2721              		.syntax unified
 2722              		.thumb
 2723              		.thumb_func
 2724              		.fpu fpv4-sp-d16
 2725              		.type	right_motor_set_pos, %function
 2726              	right_motor_set_pos:
 2727              	.LFB272:
 2728              		.loc 1 261 0
 2729              		.cfi_startproc
 2730              		@ args = 0, pretend = 0, frame = 8
 2731              		@ frame_needed = 0, uses_anonymous_args = 0
 2732              	.LVL210:
 2733 0000 00B5     		push	{lr}
 2734              		.cfi_def_cfa_offset 4
 2735              		.cfi_offset 14, -4
 2736 0002 084B     		ldr	r3, .L198
ARM GAS  /var/folders/j2/t8glr22d56s93xphj_30s8g80000gn/T//cc8l81ic.s 			page 49


 2737              		.loc 1 262 0
 2738 0004 0849     		ldr	r1, .L198+4
 2739              		.loc 1 261 0
 2740 0006 1A68     		ldr	r2, [r3]
 2741 0008 83B0     		sub	sp, sp, #12
 2742              		.cfi_def_cfa_offset 16
 2743              		.loc 1 262 0
 2744 000a 4000     		lsls	r0, r0, #1
 2745              	.LVL211:
 2746              		.loc 1 261 0
 2747 000c 0192     		str	r2, [sp, #4]
 2748              		.loc 1 263 0
 2749 000e 019A     		ldr	r2, [sp, #4]
 2750 0010 1B68     		ldr	r3, [r3]
 2751              		.loc 1 262 0
 2752 0012 4860     		str	r0, [r1, #4]
 2753              		.loc 1 263 0
 2754 0014 9A42     		cmp	r2, r3
 2755 0016 02D1     		bne	.L197
 2756 0018 03B0     		add	sp, sp, #12
 2757              		.cfi_remember_state
 2758              		.cfi_def_cfa_offset 4
 2759              		@ sp needed
 2760 001a 5DF804FB 		ldr	pc, [sp], #4
 2761              	.L197:
 2762              		.cfi_restore_state
 2763 001e FFF7FEFF 		bl	__stack_chk_fail
 2764              	.LVL212:
 2765              	.L199:
 2766 0022 00BF     		.align	2
 2767              	.L198:
 2768 0024 00000000 		.word	__stack_chk_guard
 2769 0028 00000000 		.word	.LANCHOR0
 2770              		.cfi_endproc
 2771              	.LFE272:
 2772              		.size	right_motor_set_pos, .-right_motor_set_pos
 2773              		.section	.text.motors_init,"ax",%progbits
 2774              		.align	1
 2775              		.p2align 4,,15
 2776              		.global	motors_init
 2777              		.syntax unified
 2778              		.thumb
 2779              		.thumb_func
 2780              		.fpu fpv4-sp-d16
 2781              		.type	motors_init, %function
 2782              	motors_init:
 2783              	.LFB273:
 2784              		.loc 1 266 0
 2785              		.cfi_startproc
 2786              		@ args = 0, pretend = 0, frame = 8
 2787              		@ frame_needed = 0, uses_anonymous_args = 0
 2788 0000 70B5     		push	{r4, r5, r6, lr}
 2789              		.cfi_def_cfa_offset 16
 2790              		.cfi_offset 4, -16
 2791              		.cfi_offset 5, -12
 2792              		.cfi_offset 6, -8
 2793              		.cfi_offset 14, -4
ARM GAS  /var/folders/j2/t8glr22d56s93xphj_30s8g80000gn/T//cc8l81ic.s 			page 50


 2794 0002 1D4E     		ldr	r6, .L205
 2795              		.loc 1 268 0
 2796 0004 1D4A     		ldr	r2, .L205+4
 2797              		.loc 1 276 0
 2798 0006 1E4B     		ldr	r3, .L205+8
 2799              		.loc 1 266 0
 2800 0008 3068     		ldr	r0, [r6]
 2801              		.loc 1 271 0
 2802 000a 1E49     		ldr	r1, .L205+12
 2803              		.loc 1 272 0
 2804 000c 1E4C     		ldr	r4, .L205+16
 2805              		.loc 1 271 0
 2806 000e 9160     		str	r1, [r2, #8]
 2807              		.loc 1 266 0
 2808 0010 82B0     		sub	sp, sp, #8
 2809              		.cfi_def_cfa_offset 24
 2810              		.loc 1 268 0
 2811 0012 0021     		movs	r1, #0
 2812              		.loc 1 272 0
 2813 0014 D460     		str	r4, [r2, #12]
 2814              		.loc 1 266 0
 2815 0016 0190     		str	r0, [sp, #4]
 2816              		.loc 1 274 0
 2817 0018 1C4C     		ldr	r4, .L205+20
 2818              		.loc 1 273 0
 2819 001a 1D48     		ldr	r0, .L205+24
 2820              		.loc 1 279 0
 2821 001c 1D4D     		ldr	r5, .L205+28
 2822 001e 9D60     		str	r5, [r3, #8]
 2823              		.loc 1 268 0
 2824 0020 1170     		strb	r1, [r2]
 2825              		.loc 1 269 0
 2826 0022 5170     		strb	r1, [r2, #1]
 2827              		.loc 1 270 0
 2828 0024 5160     		str	r1, [r2, #4]
 2829              		.loc 1 273 0
 2830 0026 1061     		str	r0, [r2, #16]
 2831              		.loc 1 274 0
 2832 0028 5461     		str	r4, [r2, #20]
 2833              		.loc 1 280 0
 2834 002a 1B48     		ldr	r0, .L205+32
 2835              		.loc 1 281 0
 2836 002c 1B4A     		ldr	r2, .L205+36
 2837              		.loc 1 282 0
 2838 002e 1C4D     		ldr	r5, .L205+40
 2839              		.loc 1 280 0
 2840 0030 D860     		str	r0, [r3, #12]
 2841              		.loc 1 285 0
 2842 0032 1C48     		ldr	r0, .L205+44
 2843              		.loc 1 276 0
 2844 0034 1970     		strb	r1, [r3]
 2845              		.loc 1 277 0
 2846 0036 5970     		strb	r1, [r3, #1]
 2847              		.loc 1 278 0
 2848 0038 5960     		str	r1, [r3, #4]
 2849              		.loc 1 282 0
 2850 003a C3E90425 		strd	r2, r5, [r3, #16]
ARM GAS  /var/folders/j2/t8glr22d56s93xphj_30s8g80000gn/T//cc8l81ic.s 			page 51


 2851              		.loc 1 285 0
 2852 003e FFF7FEFF 		bl	right_motor_update
 2853              	.LVL213:
 2854              		.loc 1 286 0
 2855 0042 1848     		ldr	r0, .L205+44
 2856 0044 FFF7FEFF 		bl	left_motor_update
 2857              	.LVL214:
 2858              		.loc 1 302 0
 2859 0048 1749     		ldr	r1, .L205+48
 2860 004a 2046     		mov	r0, r4
 2861 004c FFF7FEFF 		bl	pwmStart
 2862              	.LVL215:
 2863              		.loc 1 303 0
 2864 0050 2046     		mov	r0, r4
 2865 0052 FFF7FEFF 		bl	pwmEnablePeriodicNotification
 2866              	.LVL216:
 2867              		.loc 1 318 0
 2868 0056 2846     		mov	r0, r5
 2869 0058 1449     		ldr	r1, .L205+52
 2870 005a FFF7FEFF 		bl	pwmStart
 2871              	.LVL217:
 2872              		.loc 1 319 0
 2873 005e 019A     		ldr	r2, [sp, #4]
 2874 0060 3368     		ldr	r3, [r6]
 2875 0062 9A42     		cmp	r2, r3
 2876 0064 05D1     		bne	.L204
 2877 0066 2846     		mov	r0, r5
 2878              		.loc 1 321 0
 2879 0068 02B0     		add	sp, sp, #8
 2880              		.cfi_remember_state
 2881              		.cfi_def_cfa_offset 16
 2882              		@ sp needed
 2883 006a BDE87040 		pop	{r4, r5, r6, lr}
 2884              		.cfi_restore 14
 2885              		.cfi_restore 6
 2886              		.cfi_restore 5
 2887              		.cfi_restore 4
 2888              		.cfi_def_cfa_offset 0
 2889              		.loc 1 319 0
 2890 006e FFF7FEBF 		b	pwmEnablePeriodicNotification
 2891              	.LVL218:
 2892              	.L204:
 2893              		.cfi_restore_state
 2894 0072 FFF7FEFF 		bl	__stack_chk_fail
 2895              	.LVL219:
 2896              	.L206:
 2897 0076 00BF     		.align	2
 2898              	.L205:
 2899 0078 00000000 		.word	__stack_chk_guard
 2900 007c 00000000 		.word	.LANCHOR0
 2901 0080 00000000 		.word	.LANCHOR3
 2902 0084 00000000 		.word	right_motor_update
 2903 0088 00000000 		.word	right_motor_enable_power_save
 2904 008c 00000000 		.word	PWMD3
 2905 0090 00000000 		.word	right_motor_disable_power_save
 2906 0094 00000000 		.word	left_motor_update
 2907 0098 00000000 		.word	left_motor_enable_power_save
ARM GAS  /var/folders/j2/t8glr22d56s93xphj_30s8g80000gn/T//cc8l81ic.s 			page 52


 2908 009c 00000000 		.word	left_motor_disable_power_save
 2909 00a0 00000000 		.word	PWMD4
 2910 00a4 00000000 		.word	.LANCHOR2
 2911 00a8 00000000 		.word	.LANCHOR11
 2912 00ac 00000000 		.word	.LANCHOR12
 2913              		.cfi_endproc
 2914              	.LFE273:
 2915              		.size	motors_init, .-motors_init
 2916              		.section	.text.clignotant_start,"ax",%progbits
 2917              		.align	1
 2918              		.p2align 4,,15
 2919              		.global	clignotant_start
 2920              		.syntax unified
 2921              		.thumb
 2922              		.thumb_func
 2923              		.fpu fpv4-sp-d16
 2924              		.type	clignotant_start, %function
 2925              	clignotant_start:
 2926              	.LFB278:
 2927              		.loc 1 539 0
 2928              		.cfi_startproc
 2929              		@ args = 0, pretend = 0, frame = 8
 2930              		@ frame_needed = 0, uses_anonymous_args = 0
 2931 0000 10B5     		push	{r4, lr}
 2932              		.cfi_def_cfa_offset 8
 2933              		.cfi_offset 4, -8
 2934              		.cfi_offset 14, -4
 2935 0002 0A4C     		ldr	r4, .L211
 2936              		.loc 1 540 0
 2937 0004 0A4B     		ldr	r3, .L211+4
 2938              		.loc 1 539 0
 2939 0006 2268     		ldr	r2, [r4]
 2940              		.loc 1 540 0
 2941 0008 0A48     		ldr	r0, .L211+8
 2942              		.loc 1 539 0
 2943 000a 84B0     		sub	sp, sp, #16
 2944              		.cfi_def_cfa_offset 24
 2945              		.loc 1 540 0
 2946 000c 4FF4FC71 		mov	r1, #504
 2947              		.loc 1 539 0
 2948 0010 0392     		str	r2, [sp, #12]
 2949              		.loc 1 540 0
 2950 0012 0022     		movs	r2, #0
 2951 0014 0092     		str	r2, [sp]
 2952 0016 4022     		movs	r2, #64
 2953 0018 FFF7FEFF 		bl	chThdCreateStatic
 2954              	.LVL220:
 2955              		.loc 1 541 0
 2956 001c 039A     		ldr	r2, [sp, #12]
 2957 001e 2368     		ldr	r3, [r4]
 2958 0020 9A42     		cmp	r2, r3
 2959 0022 01D1     		bne	.L210
 2960 0024 04B0     		add	sp, sp, #16
 2961              		.cfi_remember_state
 2962              		.cfi_def_cfa_offset 8
 2963              		@ sp needed
 2964 0026 10BD     		pop	{r4, pc}
ARM GAS  /var/folders/j2/t8glr22d56s93xphj_30s8g80000gn/T//cc8l81ic.s 			page 53


 2965              	.L210:
 2966              		.cfi_restore_state
 2967 0028 FFF7FEFF 		bl	__stack_chk_fail
 2968              	.LVL221:
 2969              	.L212:
 2970              		.align	2
 2971              	.L211:
 2972 002c 00000000 		.word	__stack_chk_guard
 2973 0030 00000000 		.word	Clignotant
 2974 0034 00000000 		.word	.LANCHOR13
 2975              		.cfi_endproc
 2976              	.LFE278:
 2977              		.size	clignotant_start, .-clignotant_start
 2978              		.section	.text.depassement_start,"ax",%progbits
 2979              		.align	1
 2980              		.p2align 4,,15
 2981              		.global	depassement_start
 2982              		.syntax unified
 2983              		.thumb
 2984              		.thumb_func
 2985              		.fpu fpv4-sp-d16
 2986              		.type	depassement_start, %function
 2987              	depassement_start:
 2988              	.LFB279:
 2989              		.loc 1 544 0
 2990              		.cfi_startproc
 2991              		@ args = 0, pretend = 0, frame = 8
 2992              		@ frame_needed = 0, uses_anonymous_args = 0
 2993 0000 10B5     		push	{r4, lr}
 2994              		.cfi_def_cfa_offset 8
 2995              		.cfi_offset 4, -8
 2996              		.cfi_offset 14, -4
 2997 0002 0A4C     		ldr	r4, .L217
 2998              		.loc 1 545 0
 2999 0004 0A4B     		ldr	r3, .L217+4
 3000              		.loc 1 544 0
 3001 0006 2268     		ldr	r2, [r4]
 3002              		.loc 1 545 0
 3003 0008 0A48     		ldr	r0, .L217+8
 3004              		.loc 1 544 0
 3005 000a 84B0     		sub	sp, sp, #16
 3006              		.cfi_def_cfa_offset 24
 3007              		.loc 1 545 0
 3008 000c 4FF4FC71 		mov	r1, #504
 3009              		.loc 1 544 0
 3010 0010 0392     		str	r2, [sp, #12]
 3011              		.loc 1 545 0
 3012 0012 0022     		movs	r2, #0
 3013 0014 0092     		str	r2, [sp]
 3014 0016 7F22     		movs	r2, #127
 3015 0018 FFF7FEFF 		bl	chThdCreateStatic
 3016              	.LVL222:
 3017              		.loc 1 546 0
 3018 001c 039A     		ldr	r2, [sp, #12]
 3019 001e 2368     		ldr	r3, [r4]
 3020 0020 9A42     		cmp	r2, r3
 3021 0022 01D1     		bne	.L216
ARM GAS  /var/folders/j2/t8glr22d56s93xphj_30s8g80000gn/T//cc8l81ic.s 			page 54


 3022 0024 04B0     		add	sp, sp, #16
 3023              		.cfi_remember_state
 3024              		.cfi_def_cfa_offset 8
 3025              		@ sp needed
 3026 0026 10BD     		pop	{r4, pc}
 3027              	.L216:
 3028              		.cfi_restore_state
 3029 0028 FFF7FEFF 		bl	__stack_chk_fail
 3030              	.LVL223:
 3031              	.L218:
 3032              		.align	2
 3033              	.L217:
 3034 002c 00000000 		.word	__stack_chk_guard
 3035 0030 00000000 		.word	Depassement
 3036 0034 00000000 		.word	.LANCHOR14
 3037              		.cfi_endproc
 3038              	.LFE279:
 3039              		.size	depassement_start, .-depassement_start
 3040              		.section	.text.manoeuvre_start,"ax",%progbits
 3041              		.align	1
 3042              		.p2align 4,,15
 3043              		.global	manoeuvre_start
 3044              		.syntax unified
 3045              		.thumb
 3046              		.thumb_func
 3047              		.fpu fpv4-sp-d16
 3048              		.type	manoeuvre_start, %function
 3049              	manoeuvre_start:
 3050              	.LFB280:
 3051              		.loc 1 549 0
 3052              		.cfi_startproc
 3053              		@ args = 0, pretend = 0, frame = 8
 3054              		@ frame_needed = 0, uses_anonymous_args = 0
 3055 0000 10B5     		push	{r4, lr}
 3056              		.cfi_def_cfa_offset 8
 3057              		.cfi_offset 4, -8
 3058              		.cfi_offset 14, -4
 3059 0002 0A4C     		ldr	r4, .L223
 3060              		.loc 1 550 0
 3061 0004 0A4B     		ldr	r3, .L223+4
 3062              		.loc 1 549 0
 3063 0006 2268     		ldr	r2, [r4]
 3064              		.loc 1 550 0
 3065 0008 0A48     		ldr	r0, .L223+8
 3066              		.loc 1 549 0
 3067 000a 84B0     		sub	sp, sp, #16
 3068              		.cfi_def_cfa_offset 24
 3069              		.loc 1 550 0
 3070 000c 4FF4FC71 		mov	r1, #504
 3071              		.loc 1 549 0
 3072 0010 0392     		str	r2, [sp, #12]
 3073              		.loc 1 550 0
 3074 0012 0022     		movs	r2, #0
 3075 0014 0092     		str	r2, [sp]
 3076 0016 4122     		movs	r2, #65
 3077 0018 FFF7FEFF 		bl	chThdCreateStatic
 3078              	.LVL224:
ARM GAS  /var/folders/j2/t8glr22d56s93xphj_30s8g80000gn/T//cc8l81ic.s 			page 55


 3079              		.loc 1 551 0
 3080 001c 039A     		ldr	r2, [sp, #12]
 3081 001e 2368     		ldr	r3, [r4]
 3082 0020 9A42     		cmp	r2, r3
 3083 0022 01D1     		bne	.L222
 3084 0024 04B0     		add	sp, sp, #16
 3085              		.cfi_remember_state
 3086              		.cfi_def_cfa_offset 8
 3087              		@ sp needed
 3088 0026 10BD     		pop	{r4, pc}
 3089              	.L222:
 3090              		.cfi_restore_state
 3091 0028 FFF7FEFF 		bl	__stack_chk_fail
 3092              	.LVL225:
 3093              	.L224:
 3094              		.align	2
 3095              	.L223:
 3096 002c 00000000 		.word	__stack_chk_guard
 3097 0030 00000000 		.word	Manoeuvre
 3098 0034 00000000 		.word	.LANCHOR15
 3099              		.cfi_endproc
 3100              	.LFE280:
 3101              		.size	manoeuvre_start, .-manoeuvre_start
 3102              		.section	.text.deplacement_start,"ax",%progbits
 3103              		.align	1
 3104              		.p2align 4,,15
 3105              		.global	deplacement_start
 3106              		.syntax unified
 3107              		.thumb
 3108              		.thumb_func
 3109              		.fpu fpv4-sp-d16
 3110              		.type	deplacement_start, %function
 3111              	deplacement_start:
 3112              	.LFB281:
 3113              		.loc 1 554 0
 3114              		.cfi_startproc
 3115              		@ args = 0, pretend = 0, frame = 8
 3116              		@ frame_needed = 0, uses_anonymous_args = 0
 3117 0000 10B5     		push	{r4, lr}
 3118              		.cfi_def_cfa_offset 8
 3119              		.cfi_offset 4, -8
 3120              		.cfi_offset 14, -4
 3121 0002 0A4C     		ldr	r4, .L229
 3122              		.loc 1 555 0
 3123 0004 0A4B     		ldr	r3, .L229+4
 3124              		.loc 1 554 0
 3125 0006 2268     		ldr	r2, [r4]
 3126              		.loc 1 555 0
 3127 0008 0A48     		ldr	r0, .L229+8
 3128              		.loc 1 554 0
 3129 000a 84B0     		sub	sp, sp, #16
 3130              		.cfi_def_cfa_offset 24
 3131              		.loc 1 555 0
 3132 000c 4FF4FC71 		mov	r1, #504
 3133              		.loc 1 554 0
 3134 0010 0392     		str	r2, [sp, #12]
 3135              		.loc 1 555 0
ARM GAS  /var/folders/j2/t8glr22d56s93xphj_30s8g80000gn/T//cc8l81ic.s 			page 56


 3136 0012 0022     		movs	r2, #0
 3137 0014 0092     		str	r2, [sp]
 3138 0016 4022     		movs	r2, #64
 3139 0018 FFF7FEFF 		bl	chThdCreateStatic
 3140              	.LVL226:
 3141              		.loc 1 556 0
 3142 001c 039A     		ldr	r2, [sp, #12]
 3143 001e 2368     		ldr	r3, [r4]
 3144 0020 9A42     		cmp	r2, r3
 3145 0022 01D1     		bne	.L228
 3146 0024 04B0     		add	sp, sp, #16
 3147              		.cfi_remember_state
 3148              		.cfi_def_cfa_offset 8
 3149              		@ sp needed
 3150 0026 10BD     		pop	{r4, pc}
 3151              	.L228:
 3152              		.cfi_restore_state
 3153 0028 FFF7FEFF 		bl	__stack_chk_fail
 3154              	.LVL227:
 3155              	.L230:
 3156              		.align	2
 3157              	.L229:
 3158 002c 00000000 		.word	__stack_chk_guard
 3159 0030 00000000 		.word	Deplacement
 3160 0034 00000000 		.word	.LANCHOR16
 3161              		.cfi_endproc
 3162              	.LFE281:
 3163              		.size	deplacement_start, .-deplacement_start
 3164              		.global	left_motor
 3165              		.global	right_motor
 3166              		.section	.bss.cligno,"aw",%nobits
 3167              		.align	2
 3168              		.set	.LANCHOR6,. + 0
 3169              		.type	cligno, %object
 3170              		.size	cligno, 4
 3171              	cligno:
 3172 0000 00000000 		.space	4
 3173              		.section	.bss.left_motor,"aw",%nobits
 3174              		.align	2
 3175              		.set	.LANCHOR3,. + 0
 3176              		.type	left_motor, %object
 3177              		.size	left_motor, 24
 3178              	left_motor:
 3179 0000 00000000 		.space	24
 3179      00000000 
 3179      00000000 
 3179      00000000 
 3179      00000000 
 3180              		.section	.bss.right_motor,"aw",%nobits
 3181              		.align	2
 3182              		.set	.LANCHOR0,. + 0
 3183              		.type	right_motor, %object
 3184              		.size	right_motor, 24
 3185              	right_motor:
 3186 0000 00000000 		.space	24
 3186      00000000 
 3186      00000000 
ARM GAS  /var/folders/j2/t8glr22d56s93xphj_30s8g80000gn/T//cc8l81ic.s 			page 57


 3186      00000000 
 3186      00000000 
 3187              		.section	.bss.waClignotant,"aw",%nobits
 3188              		.align	3
 3189              		.set	.LANCHOR13,. + 0
 3190              		.type	waClignotant, %object
 3191              		.size	waClignotant, 504
 3192              	waClignotant:
 3193 0000 00000000 		.space	504
 3193      00000000 
 3193      00000000 
 3193      00000000 
 3193      00000000 
 3194              		.section	.bss.waDepassement,"aw",%nobits
 3195              		.align	3
 3196              		.set	.LANCHOR14,. + 0
 3197              		.type	waDepassement, %object
 3198              		.size	waDepassement, 504
 3199              	waDepassement:
 3200 0000 00000000 		.space	504
 3200      00000000 
 3200      00000000 
 3200      00000000 
 3200      00000000 
 3201              		.section	.bss.waDeplacement,"aw",%nobits
 3202              		.align	3
 3203              		.set	.LANCHOR16,. + 0
 3204              		.type	waDeplacement, %object
 3205              		.size	waDeplacement, 504
 3206              	waDeplacement:
 3207 0000 00000000 		.space	504
 3207      00000000 
 3207      00000000 
 3207      00000000 
 3207      00000000 
 3208              		.section	.bss.waManoeuvre,"aw",%nobits
 3209              		.align	3
 3210              		.set	.LANCHOR15,. + 0
 3211              		.type	waManoeuvre, %object
 3212              		.size	waManoeuvre, 504
 3213              	waManoeuvre:
 3214 0000 00000000 		.space	504
 3214      00000000 
 3214      00000000 
 3214      00000000 
 3214      00000000 
 3215              		.section	.data.mobile,"aw",%progbits
 3216              		.align	2
 3217              		.set	.LANCHOR8,. + 0
 3218              		.type	mobile, %object
 3219              		.size	mobile, 4
 3220              	mobile:
 3221 0000 01000000 		.word	1
 3222              		.section	.rodata.__FUNCTION__.10003,"a",%progbits
 3223              		.align	2
 3224              		.set	.LANCHOR10,. + 0
 3225              		.type	__FUNCTION__.10003, %object
ARM GAS  /var/folders/j2/t8glr22d56s93xphj_30s8g80000gn/T//cc8l81ic.s 			page 58


 3226              		.size	__FUNCTION__.10003, 10
 3227              	__FUNCTION__.10003:
 3228 0000 4D616E6F 		.ascii	"Manoeuvre\000"
 3228      65757672 
 3228      6500
 3229              		.section	.rodata.__FUNCTION__.10013,"a",%progbits
 3230              		.align	2
 3231              		.set	.LANCHOR4,. + 0
 3232              		.type	__FUNCTION__.10013, %object
 3233              		.size	__FUNCTION__.10013, 11
 3234              	__FUNCTION__.10013:
 3235 0000 436C6967 		.ascii	"Clignotant\000"
 3235      6E6F7461 
 3235      6E7400
 3236              		.section	.rodata.__FUNCTION__.10020,"a",%progbits
 3237              		.align	2
 3238              		.set	.LANCHOR7,. + 0
 3239              		.type	__FUNCTION__.10020, %object
 3240              		.size	__FUNCTION__.10020, 12
 3241              	__FUNCTION__.10020:
 3242 0000 44657061 		.ascii	"Depassement\000"
 3242      7373656D 
 3242      656E7400 
 3243              		.section	.rodata.__FUNCTION__.10027,"a",%progbits
 3244              		.align	2
 3245              		.set	.LANCHOR9,. + 0
 3246              		.type	__FUNCTION__.10027, %object
 3247              		.size	__FUNCTION__.10027, 12
 3248              	__FUNCTION__.10027:
 3249 0000 4465706C 		.ascii	"Deplacement\000"
 3249      6163656D 
 3249      656E7400 
 3250              		.section	.rodata.__func__.7153,"a",%progbits
 3251              		.align	2
 3252              		.set	.LANCHOR5,. + 0
 3253              		.type	__func__.7153, %object
 3254              		.size	__func__.7153, 12
 3255              	__func__.7153:
 3256 0000 63685379 		.ascii	"chSysUnlock\000"
 3256      73556E6C 
 3256      6F636B00 
 3257              		.section	.rodata.pwmcfg_left_motor.9998,"a",%progbits
 3258              		.align	2
 3259              		.set	.LANCHOR12,. + 0
 3260              		.type	pwmcfg_left_motor.9998, %object
 3261              		.size	pwmcfg_left_motor.9998, 52
 3262              	pwmcfg_left_motor.9998:
 3263 0000 A0860100 		.word	100000
 3264 0004 FFFF0000 		.word	65535
 3265 0008 00000000 		.word	left_motor_timer_callback
 3266 000c 01000000 		.word	1
 3267 0010 00000000 		.word	left_motor_pwm_ch1_cb
 3268 0014 00000000 		.word	0
 3269 0018 00000000 		.word	0
 3270 001c 00000000 		.word	0
 3271 0020 00000000 		.word	0
 3272 0024 00000000 		.word	0
ARM GAS  /var/folders/j2/t8glr22d56s93xphj_30s8g80000gn/T//cc8l81ic.s 			page 59


 3273 0028 00000000 		.word	0
 3274 002c 00000000 		.word	0
 3275 0030 00000000 		.space	4
 3276              		.section	.rodata.pwmcfg_right_motor.9997,"a",%progbits
 3277              		.align	2
 3278              		.set	.LANCHOR11,. + 0
 3279              		.type	pwmcfg_right_motor.9997, %object
 3280              		.size	pwmcfg_right_motor.9997, 52
 3281              	pwmcfg_right_motor.9997:
 3282 0000 A0860100 		.word	100000
 3283 0004 FFFF0000 		.word	65535
 3284 0008 00000000 		.word	right_motor_timer_callback
 3285 000c 01000000 		.word	1
 3286 0010 00000000 		.word	right_motor_pwm_ch1_cb
 3287 0014 00000000 		.word	0
 3288 0018 00000000 		.word	0
 3289 001c 00000000 		.word	0
 3290 0020 00000000 		.word	0
 3291 0024 00000000 		.word	0
 3292 0028 00000000 		.word	0
 3293 002c 00000000 		.word	0
 3294 0030 00000000 		.space	4
 3295              		.section	.rodata.step_halt,"a",%progbits
 3296              		.align	2
 3297              		.set	.LANCHOR2,. + 0
 3298              		.type	step_halt, %object
 3299              		.size	step_halt, 4
 3300              	step_halt:
 3301 0000 00000000 		.space	4
 3302              		.section	.rodata.step_table,"a",%progbits
 3303              		.align	2
 3304              		.set	.LANCHOR1,. + 0
 3305              		.type	step_table, %object
 3306              		.size	step_table, 32
 3307              	step_table:
 3308 0000 01       		.byte	1
 3309 0001 00       		.byte	0
 3310 0002 01       		.byte	1
 3311 0003 00       		.byte	0
 3312 0004 00       		.byte	0
 3313 0005 00       		.byte	0
 3314 0006 01       		.byte	1
 3315 0007 00       		.byte	0
 3316 0008 00       		.byte	0
 3317 0009 01       		.byte	1
 3318 000a 01       		.byte	1
 3319 000b 00       		.byte	0
 3320 000c 00       		.byte	0
 3321 000d 01       		.byte	1
 3322 000e 00       		.byte	0
 3323 000f 00       		.byte	0
 3324 0010 00       		.byte	0
 3325 0011 01       		.byte	1
 3326 0012 00       		.byte	0
 3327 0013 01       		.byte	1
 3328 0014 00       		.byte	0
 3329 0015 00       		.byte	0
ARM GAS  /var/folders/j2/t8glr22d56s93xphj_30s8g80000gn/T//cc8l81ic.s 			page 60


 3330 0016 00       		.byte	0
 3331 0017 01       		.byte	1
 3332 0018 01       		.byte	1
 3333 0019 00       		.byte	0
 3334 001a 00       		.byte	0
 3335 001b 01       		.byte	1
 3336 001c 01       		.byte	1
 3337 001d 00       		.byte	0
 3338 001e 00       		.byte	0
 3339 001f 00       		.byte	0
 3340              		.text
 3341              	.Letext0:
 3342              		.file 6 "/Applications/Eclipse_e-puck2.app/Contents/Eclipse_e-puck2/Tools/gcc-arm-none-eabi-7-2017
 3343              		.file 7 "/Applications/Eclipse_e-puck2.app/Contents/Eclipse_e-puck2/Tools/gcc-arm-none-eabi-7-2017
 3344              		.file 8 "/Applications/Eclipse_e-puck2.app/Contents/Eclipse_e-puck2/Tools/gcc-arm-none-eabi-7-2017
 3345              		.file 9 "../../lib/e-puck2_main-processor/ChibiOS//os/rt/ports/ARMCMx/compilers/GCC/chtypes.h"
 3346              		.file 10 "../../lib/e-puck2_main-processor/ChibiOS//os/rt/include/chsystypes.h"
 3347              		.file 11 "../../lib/e-puck2_main-processor/ChibiOS//os/rt/include/chschd.h"
 3348              		.file 12 "../../lib/e-puck2_main-processor/ChibiOS//os/ext/CMSIS/include/core_cm4.h"
 3349              		.file 13 "../../lib/e-puck2_main-processor/ChibiOS//os/ext/CMSIS/ST/system_stm32f4xx.h"
 3350              		.file 14 "../../lib/e-puck2_main-processor/ChibiOS//os/ext/CMSIS/ST/stm32f407xx.h"
 3351              		.file 15 "../../lib/e-puck2_main-processor/ChibiOS//os/rt/ports/ARMCMx/chcore.h"
 3352              		.file 16 "../../lib/e-puck2_main-processor/ChibiOS//os/rt/ports/ARMCMx/chcore_v7m.h"
 3353              		.file 17 "../../lib/e-puck2_main-processor/ChibiOS//os/rt/include/chdebug.h"
 3354              		.file 18 "../../lib/e-puck2_main-processor/ChibiOS//os/rt/include/chtm.h"
 3355              		.file 19 "../../lib/e-puck2_main-processor/ChibiOS//os/rt/include/chstats.h"
 3356              		.file 20 "../../lib/e-puck2_main-processor/ChibiOS//os/rt/include/chsem.h"
 3357              		.file 21 "../../lib/e-puck2_main-processor/ChibiOS//os/rt/include/chmtx.h"
 3358              		.file 22 "../../lib/e-puck2_main-processor/ChibiOS//os/rt/include/chevents.h"
 3359              		.file 23 "../../lib/e-puck2_main-processor/ChibiOS//os/rt/include/chqueues.h"
 3360              		.file 24 "../../lib/e-puck2_main-processor/ChibiOS//os/hal/ports/STM32/STM32F4xx/stm32_dma.h"
 3361              		.file 25 "../../lib/e-puck2_main-processor/ChibiOS//os/hal/include/hal_ioblock.h"
 3362              		.file 26 "../../lib/e-puck2_main-processor/ChibiOS//os/hal/ports/STM32/LLD/GPIOv2/pal_lld.h"
 3363              		.file 27 "../../lib/e-puck2_main-processor/ChibiOS//os/hal/include/adc.h"
 3364              		.file 28 "../../lib/e-puck2_main-processor/ChibiOS//os/hal/ports/STM32/STM32F4xx/adc_lld.h"
 3365              		.file 29 "../../lib/e-puck2_main-processor/ChibiOS//os/hal/include/can.h"
 3366              		.file 30 "../../lib/e-puck2_main-processor/ChibiOS//os/hal/ports/STM32/LLD/can_lld.h"
 3367              		.file 31 "../../lib/e-puck2_main-processor/ChibiOS//os/hal/include/dac.h"
 3368              		.file 32 "../../lib/e-puck2_main-processor/ChibiOS//os/hal/ports/STM32/LLD/DACv1/dac_lld.h"
 3369              		.file 33 "../../lib/e-puck2_main-processor/ChibiOS//os/hal/include/ext.h"
 3370              		.file 34 "../../lib/e-puck2_main-processor/ChibiOS//os/hal/ports/STM32/LLD/ext_lld.h"
 3371              		.file 35 "../../lib/e-puck2_main-processor/ChibiOS//os/hal/include/gpt.h"
 3372              		.file 36 "../../lib/e-puck2_main-processor/ChibiOS//os/hal/ports/STM32/LLD/TIMv1/gpt_lld.h"
 3373              		.file 37 "../../lib/e-puck2_main-processor/ChibiOS//os/hal/ports/STM32/LLD/TIMv1/stm32_tim.h"
 3374              		.file 38 "../../lib/e-puck2_main-processor/ChibiOS//os/hal/include/i2c.h"
 3375              		.file 39 "../../lib/e-puck2_main-processor/ChibiOS//os/hal/ports/STM32/LLD/I2Cv1/i2c_lld.h"
 3376              		.file 40 "../../lib/e-puck2_main-processor/ChibiOS//os/hal/include/i2s.h"
 3377              		.file 41 "../../lib/e-puck2_main-processor/ChibiOS//os/hal/ports/STM32/LLD/SPIv1/i2s_lld.h"
 3378              		.file 42 "../../lib/e-puck2_main-processor/ChibiOS//os/hal/include/pwm.h"
 3379              		.file 43 "../../lib/e-puck2_main-processor/ChibiOS//os/hal/ports/STM32/LLD/TIMv1/pwm_lld.h"
 3380              		.file 44 "../../lib/e-puck2_main-processor/ChibiOS//os/hal/include/serial.h"
 3381              		.file 45 "../../lib/e-puck2_main-processor/ChibiOS//os/hal/ports/STM32/LLD/USARTv1/serial_lld.h"
 3382              		.file 46 "../../lib/e-puck2_main-processor/ChibiOS//os/hal/include/sdc.h"
 3383              		.file 47 "../../lib/e-puck2_main-processor/ChibiOS//os/hal/ports/STM32/LLD/sdc_lld.h"
 3384              		.file 48 "../../lib/e-puck2_main-processor/ChibiOS//os/hal/include/spi.h"
 3385              		.file 49 "../../lib/e-puck2_main-processor/ChibiOS//os/hal/ports/STM32/LLD/SPIv1/spi_lld.h"
 3386              		.file 50 "../../lib/e-puck2_main-processor/ChibiOS//os/hal/include/usb.h"
ARM GAS  /var/folders/j2/t8glr22d56s93xphj_30s8g80000gn/T//cc8l81ic.s 			page 61


 3387              		.file 51 "../../lib/e-puck2_main-processor/ChibiOS//os/hal/ports/STM32/LLD/OTGv1/usb_lld.h"
 3388              		.file 52 "../../lib/e-puck2_main-processor/ChibiOS//os/hal/ports/STM32/LLD/OTGv1/stm32_otg.h"
 3389              		.file 53 "../../lib/e-puck2_main-processor/src/leds.h"
 3390              		.file 54 "../../lib/e-puck2_main-processor/ChibiOS//os/rt/include/chthreads.h"
 3391              		.file 55 "../../lib/e-puck2_main-processor/src/sensors/proximity.h"