ARM GAS  /var/folders/j2/t8glr22d56s93xphj_30s8g80000gn/T//ccd3P1vX.s 			page 1


   1              		.cpu cortex-m4
   2              		.eabi_attribute 27, 1
   3              		.eabi_attribute 28, 1
   4              		.eabi_attribute 20, 1
   5              		.eabi_attribute 21, 1
   6              		.eabi_attribute 23, 3
   7              		.eabi_attribute 24, 1
   8              		.eabi_attribute 25, 1
   9              		.eabi_attribute 26, 1
  10              		.eabi_attribute 30, 2
  11              		.eabi_attribute 34, 1
  12              		.eabi_attribute 18, 4
  13              		.file	"mouvement.c"
  14              		.text
  15              	.Ltext0:
  16              		.cfi_sections	.debug_frame
  17              		.section	.text.Depassement,"ax",%progbits
  18              		.align	1
  19              		.p2align 4,,15
  20              		.syntax unified
  21              		.thumb
  22              		.thumb_func
  23              		.fpu fpv4-sp-d16
  24              		.type	Depassement, %function
  25              	Depassement:
  26              	.LFB259:
  27              		.file 1 "mouvement.c"
  28              		.loc 1 133 0
  29              		.cfi_startproc
  30              		@ args = 0, pretend = 0, frame = 8
  31              		@ frame_needed = 0, uses_anonymous_args = 0
  32              	.LVL0:
  33 0000 2DE9F04F 		push	{r4, r5, r6, r7, r8, r9, r10, fp, lr}
  34              		.cfi_def_cfa_offset 36
  35              		.cfi_offset 4, -36
  36              		.cfi_offset 5, -32
  37              		.cfi_offset 6, -28
  38              		.cfi_offset 7, -24
  39              		.cfi_offset 8, -20
  40              		.cfi_offset 9, -16
  41              		.cfi_offset 10, -12
  42              		.cfi_offset 11, -8
  43              		.cfi_offset 14, -4
  44              	.LBB81:
  45              	.LBB82:
  46              		.file 2 "../../lib/e-puck2_main-processor/ChibiOS//os/rt/include/chregistry.h"
  47              		.loc 2 135 0
  48 0004 794C     		ldr	r4, .L15
  49              	.LBE82:
  50              	.LBE81:
  51              		.loc 1 133 0
  52 0006 7A4B     		ldr	r3, .L15+4
  53              	.LBB85:
  54              	.LBB83:
  55              		.loc 2 135 0
  56 0008 A269     		ldr	r2, [r4, #24]
  57 000a 7A49     		ldr	r1, .L15+8
ARM GAS  /var/folders/j2/t8glr22d56s93xphj_30s8g80000gn/T//ccd3P1vX.s 			page 2


  58              	.LBE83:
  59              	.LBE85:
  60              		.loc 1 133 0
  61 000c 1B68     		ldr	r3, [r3]
  62 000e 7A4F     		ldr	r7, .L15+12
  63 0010 DFF8ECA1 		ldr	r10, .L15+20
  64              	.LBB86:
  65              	.LBB84:
  66              		.loc 2 135 0
  67 0014 9161     		str	r1, [r2, #24]
  68              	.LBE84:
  69              	.LBE86:
  70              		.loc 1 133 0
  71 0016 83B0     		sub	sp, sp, #12
  72              		.cfi_def_cfa_offset 48
  73              		.loc 1 157 0
  74 0018 DFF8E891 		ldr	r9, .L15+24
  75              		.loc 1 133 0
  76 001c 0193     		str	r3, [sp, #4]
  77              	.LVL1:
  78              	.LBB87:
  79              	.LBB88:
  80              	.LBB89:
  81              	.LBB90:
  82              	.LBB91:
  83              	.LBB92:
  84              	.LBB93:
  85              		.file 3 "../../lib/e-puck2_main-processor/ChibiOS//os/ext/CMSIS/include/core_cmFunc.h"
  86              		.loc 3 546 0
  87 001e 4FF02008 		mov	r8, #32
  88 0022 09E0     		b	.L8
  89              	.LVL2:
  90              	.L14:
  91              	.LBE93:
  92              	.LBE92:
  93              	.LBE91:
  94              	.LBE90:
  95              	.LBE89:
  96              	.LBE88:
  97              	.LBE87:
  98              		.loc 1 145 0
  99 0024 D7F800B0 		ldr	fp, [r7]
 100 0028 BBF1010F 		cmp	fp, #1
 101 002c 2BD0     		beq	.L13
 102              	.L7:
 103              		.loc 1 217 0
 104 002e 06F10A01 		add	r1, r6, #10
 105 0032 3046     		mov	r0, r6
 106 0034 FFF7FEFF 		bl	chThdSleepUntilWindowed
 107              	.LVL3:
 108              	.L8:
 109              	.LBB107:
 110              	.LBB106:
 111              	.LBB98:
 112              	.LBB97:
 113              	.LBB96:
 114              	.LBB95:
ARM GAS  /var/folders/j2/t8glr22d56s93xphj_30s8g80000gn/T//ccd3P1vX.s 			page 3


 115              	.LBB94:
 116              		.loc 3 546 0
 117              		.syntax unified
 118              	@ 546 "../../lib/e-puck2_main-processor/ChibiOS//os/ext/CMSIS/include/core_cmFunc.h" 1
 119 0038 88F31188 		MSR basepri, r8
 120              	@ 0 "" 2
 121              	.LVL4:
 122              		.thumb
 123              		.syntax unified
 124              	.LBE94:
 125              	.LBE95:
 126              	.LBE96:
 127              		.file 4 "../../lib/e-puck2_main-processor/ChibiOS//os/rt/include/chsys.h"
 128              		.loc 4 349 0
 129 003c FFF7FEFF 		bl	_stats_start_measure_crit_thd
 130              	.LVL5:
 131              		.loc 4 350 0
 132 0040 FFF7FEFF 		bl	_dbg_check_lock
 133              	.LVL6:
 134              	.LBE97:
 135              	.LBE98:
 136              	.LBB99:
 137              	.LBB100:
 138              		.file 5 "../../lib/e-puck2_main-processor/ChibiOS//os/rt/include/chvt.h"
 139              		.loc 5 231 0
 140 0044 A66A     		ldr	r6, [r4, #40]
 141              	.LBE100:
 142              	.LBE99:
 143              	.LBB101:
 144              	.LBB102:
 145              		.loc 4 360 0
 146 0046 FFF7FEFF 		bl	_dbg_check_unlock
 147              	.LVL7:
 148              		.loc 4 361 0
 149 004a FFF7FEFF 		bl	_stats_stop_measure_crit_thd
 150              	.LVL8:
 151              		.loc 4 367 0
 152 004e 2368     		ldr	r3, [r4]
 153 0050 A342     		cmp	r3, r4
 154 0052 07D0     		beq	.L2
 155 0054 A269     		ldr	r2, [r4, #24]
 156 0056 9B68     		ldr	r3, [r3, #8]
 157 0058 9268     		ldr	r2, [r2, #8]
 158 005a 9A42     		cmp	r2, r3
 159 005c 02D2     		bcs	.L2
 160 005e 6748     		ldr	r0, .L15+16
 161 0060 FFF7FEFF 		bl	chSysHalt
 162              	.LVL9:
 163              	.L2:
 164              	.LBB103:
 165              	.LBB104:
 166              	.LBB105:
 167              		.loc 3 546 0
 168 0064 0020     		movs	r0, #0
 169              		.syntax unified
 170              	@ 546 "../../lib/e-puck2_main-processor/ChibiOS//os/ext/CMSIS/include/core_cmFunc.h" 1
 171 0066 80F31188 		MSR basepri, r0
ARM GAS  /var/folders/j2/t8glr22d56s93xphj_30s8g80000gn/T//ccd3P1vX.s 			page 4


 172              	@ 0 "" 2
 173              	.LVL10:
 174              		.thumb
 175              		.syntax unified
 176              	.LBE105:
 177              	.LBE104:
 178              	.LBE103:
 179              	.LBE102:
 180              	.LBE101:
 181              	.LBE106:
 182              	.LBE107:
 183              		.loc 1 145 0
 184 006a FFF7FEFF 		bl	get_calibrated_prox
 185              	.LVL11:
 186 006e C728     		cmp	r0, #199
 187 0070 D8DC     		bgt	.L14
 188              		.loc 1 145 0 is_stmt 0 discriminator 2
 189 0072 0720     		movs	r0, #7
 190 0074 FFF7FEFF 		bl	get_calibrated_prox
 191              	.LVL12:
 192 0078 C728     		cmp	r0, #199
 193 007a D8DD     		ble	.L7
 194              		.loc 1 145 0
 195 007c D7F800B0 		ldr	fp, [r7]
 196 0080 BBF1010F 		cmp	fp, #1
 197 0084 D3D1     		bne	.L7
 198              	.L13:
 199              		.loc 1 147 0 is_stmt 1
 200 0086 0025     		movs	r5, #0
 201              		.loc 1 149 0
 202 0088 2846     		mov	r0, r5
 203              		.loc 1 147 0
 204 008a 3D60     		str	r5, [r7]
 205              		.loc 1 149 0
 206 008c FFF7FEFF 		bl	left_motor_set_speed
 207              	.LVL13:
 208              		.loc 1 150 0
 209 0090 2846     		mov	r0, r5
 210 0092 FFF7FEFF 		bl	right_motor_set_speed
 211              	.LVL14:
 212              		.loc 1 151 0
 213 0096 0222     		movs	r2, #2
 214              		.loc 1 152 0
 215 0098 4FF4FA70 		mov	r0, #500
 216              		.loc 1 151 0
 217 009c CAF80020 		str	r2, [r10]
 218              		.loc 1 152 0
 219 00a0 FFF7FEFF 		bl	chThdSleep
 220              	.LVL15:
 221              		.loc 1 154 0
 222 00a4 2846     		mov	r0, r5
 223 00a6 FFF7FEFF 		bl	left_motor_set_speed
 224              	.LVL16:
 225              		.loc 1 155 0
 226 00aa 2846     		mov	r0, r5
 227 00ac FFF7FEFF 		bl	right_motor_set_speed
 228              	.LVL17:
ARM GAS  /var/folders/j2/t8glr22d56s93xphj_30s8g80000gn/T//ccd3P1vX.s 			page 5


 229              		.loc 1 156 0
 230 00b0 0A20     		movs	r0, #10
 231 00b2 FFF7FEFF 		bl	chThdSleep
 232              	.LVL18:
 233              		.loc 1 157 0
 234 00b6 4846     		mov	r0, r9
 235 00b8 FFF7FEFF 		bl	left_motor_set_speed
 236              	.LVL19:
 237              		.loc 1 158 0
 238 00bc 4FF47A70 		mov	r0, #1000
 239 00c0 FFF7FEFF 		bl	right_motor_set_speed
 240              	.LVL20:
 241              		.loc 1 159 0
 242 00c4 40F24510 		movw	r0, #325
 243 00c8 FFF7FEFF 		bl	chThdSleep
 244              	.LVL21:
 245              		.loc 1 161 0
 246 00cc 2846     		mov	r0, r5
 247 00ce FFF7FEFF 		bl	left_motor_set_speed
 248              	.LVL22:
 249              		.loc 1 162 0
 250 00d2 2846     		mov	r0, r5
 251 00d4 FFF7FEFF 		bl	right_motor_set_speed
 252              	.LVL23:
 253              		.loc 1 163 0
 254 00d8 0A20     		movs	r0, #10
 255 00da FFF7FEFF 		bl	chThdSleep
 256              	.LVL24:
 257              		.loc 1 164 0
 258 00de 4FF47A70 		mov	r0, #1000
 259 00e2 FFF7FEFF 		bl	left_motor_set_speed
 260              	.LVL25:
 261              		.loc 1 165 0
 262 00e6 4FF47A70 		mov	r0, #1000
 263 00ea FFF7FEFF 		bl	right_motor_set_speed
 264              	.LVL26:
 265              		.loc 1 166 0
 266 00ee 40F2EE20 		movw	r0, #750
 267 00f2 FFF7FEFF 		bl	chThdSleep
 268              	.LVL27:
 269              		.loc 1 169 0
 270 00f6 2846     		mov	r0, r5
 271 00f8 FFF7FEFF 		bl	left_motor_set_speed
 272              	.LVL28:
 273              		.loc 1 170 0
 274 00fc 2846     		mov	r0, r5
 275 00fe FFF7FEFF 		bl	right_motor_set_speed
 276              	.LVL29:
 277              		.loc 1 171 0
 278 0102 0A20     		movs	r0, #10
 279 0104 FFF7FEFF 		bl	chThdSleep
 280              	.LVL30:
 281              		.loc 1 172 0
 282 0108 4FF47A70 		mov	r0, #1000
 283 010c FFF7FEFF 		bl	left_motor_set_speed
 284              	.LVL31:
 285              		.loc 1 173 0
ARM GAS  /var/folders/j2/t8glr22d56s93xphj_30s8g80000gn/T//ccd3P1vX.s 			page 6


 286 0110 4846     		mov	r0, r9
 287 0112 FFF7FEFF 		bl	right_motor_set_speed
 288              	.LVL32:
 289              		.loc 1 174 0
 290 0116 40F24510 		movw	r0, #325
 291 011a FFF7FEFF 		bl	chThdSleep
 292              	.LVL33:
 293              		.loc 1 177 0
 294 011e 2846     		mov	r0, r5
 295              		.loc 1 175 0
 296 0120 CAF80050 		str	r5, [r10]
 297              		.loc 1 177 0
 298 0124 FFF7FEFF 		bl	left_motor_set_speed
 299              	.LVL34:
 300              		.loc 1 178 0
 301 0128 2846     		mov	r0, r5
 302 012a FFF7FEFF 		bl	right_motor_set_speed
 303              	.LVL35:
 304              		.loc 1 179 0
 305 012e 0A20     		movs	r0, #10
 306 0130 FFF7FEFF 		bl	chThdSleep
 307              	.LVL36:
 308              		.loc 1 180 0
 309 0134 4FF47A70 		mov	r0, #1000
 310 0138 FFF7FEFF 		bl	left_motor_set_speed
 311              	.LVL37:
 312              		.loc 1 181 0
 313 013c 4FF47A70 		mov	r0, #1000
 314 0140 FFF7FEFF 		bl	right_motor_set_speed
 315              	.LVL38:
 316              		.loc 1 182 0
 317 0144 40F2DC50 		movw	r0, #1500
 318 0148 FFF7FEFF 		bl	chThdSleep
 319              	.LVL39:
 320              		.loc 1 184 0
 321 014c 4FF47A70 		mov	r0, #1000
 322              		.loc 1 183 0
 323 0150 CAF800B0 		str	fp, [r10]
 324              		.loc 1 184 0
 325 0154 FFF7FEFF 		bl	left_motor_set_speed
 326              	.LVL40:
 327              		.loc 1 185 0
 328 0158 4FF47A70 		mov	r0, #1000
 329 015c FFF7FEFF 		bl	right_motor_set_speed
 330              	.LVL41:
 331              		.loc 1 186 0
 332 0160 4FF47A70 		mov	r0, #1000
 333 0164 FFF7FEFF 		bl	chThdSleep
 334              	.LVL42:
 335              		.loc 1 189 0
 336 0168 2846     		mov	r0, r5
 337 016a FFF7FEFF 		bl	left_motor_set_speed
 338              	.LVL43:
 339              		.loc 1 190 0
 340 016e 2846     		mov	r0, r5
 341 0170 FFF7FEFF 		bl	right_motor_set_speed
 342              	.LVL44:
ARM GAS  /var/folders/j2/t8glr22d56s93xphj_30s8g80000gn/T//ccd3P1vX.s 			page 7


 343              		.loc 1 191 0
 344 0174 0A20     		movs	r0, #10
 345 0176 FFF7FEFF 		bl	chThdSleep
 346              	.LVL45:
 347              		.loc 1 192 0
 348 017a 4FF47A70 		mov	r0, #1000
 349 017e FFF7FEFF 		bl	left_motor_set_speed
 350              	.LVL46:
 351              		.loc 1 193 0
 352 0182 4846     		mov	r0, r9
 353 0184 FFF7FEFF 		bl	right_motor_set_speed
 354              	.LVL47:
 355              		.loc 1 194 0
 356 0188 40F24510 		movw	r0, #325
 357 018c FFF7FEFF 		bl	chThdSleep
 358              	.LVL48:
 359              		.loc 1 197 0
 360 0190 2846     		mov	r0, r5
 361 0192 FFF7FEFF 		bl	left_motor_set_speed
 362              	.LVL49:
 363              		.loc 1 198 0
 364 0196 2846     		mov	r0, r5
 365 0198 FFF7FEFF 		bl	right_motor_set_speed
 366              	.LVL50:
 367              		.loc 1 199 0
 368 019c 0A20     		movs	r0, #10
 369 019e FFF7FEFF 		bl	chThdSleep
 370              	.LVL51:
 371              		.loc 1 200 0
 372 01a2 4FF47A70 		mov	r0, #1000
 373 01a6 FFF7FEFF 		bl	left_motor_set_speed
 374              	.LVL52:
 375              		.loc 1 201 0
 376 01aa 4FF47A70 		mov	r0, #1000
 377 01ae FFF7FEFF 		bl	right_motor_set_speed
 378              	.LVL53:
 379              		.loc 1 202 0
 380 01b2 40F2EE20 		movw	r0, #750
 381 01b6 FFF7FEFF 		bl	chThdSleep
 382              	.LVL54:
 383              		.loc 1 204 0
 384 01ba 2846     		mov	r0, r5
 385 01bc FFF7FEFF 		bl	left_motor_set_speed
 386              	.LVL55:
 387              		.loc 1 205 0
 388 01c0 2846     		mov	r0, r5
 389 01c2 FFF7FEFF 		bl	right_motor_set_speed
 390              	.LVL56:
 391              		.loc 1 206 0
 392 01c6 0A20     		movs	r0, #10
 393 01c8 FFF7FEFF 		bl	chThdSleep
 394              	.LVL57:
 395              		.loc 1 207 0
 396 01cc 4846     		mov	r0, r9
 397 01ce FFF7FEFF 		bl	left_motor_set_speed
 398              	.LVL58:
 399              		.loc 1 208 0
ARM GAS  /var/folders/j2/t8glr22d56s93xphj_30s8g80000gn/T//ccd3P1vX.s 			page 8


 400 01d2 4FF47A70 		mov	r0, #1000
 401 01d6 FFF7FEFF 		bl	right_motor_set_speed
 402              	.LVL59:
 403              		.loc 1 209 0
 404 01da 40F24510 		movw	r0, #325
 405 01de FFF7FEFF 		bl	chThdSleep
 406              	.LVL60:
 407              		.loc 1 210 0
 408 01e2 CAF80050 		str	r5, [r10]
 409              		.loc 1 212 0
 410 01e6 C7F800B0 		str	fp, [r7]
 411 01ea 20E7     		b	.L7
 412              	.L16:
 413              		.align	2
 414              	.L15:
 415 01ec 00000000 		.word	ch
 416 01f0 00000000 		.word	__stack_chk_guard
 417 01f4 00000000 		.word	.LANCHOR0
 418 01f8 00000000 		.word	.LANCHOR2
 419 01fc 00000000 		.word	.LANCHOR1
 420 0200 00000000 		.word	.LANCHOR3
 421 0204 18FCFFFF 		.word	-1000
 422              		.cfi_endproc
 423              	.LFE259:
 424              		.size	Depassement, .-Depassement
 425              		.section	.text.Deplacement,"ax",%progbits
 426              		.align	1
 427              		.p2align 4,,15
 428              		.syntax unified
 429              		.thumb
 430              		.thumb_func
 431              		.fpu fpv4-sp-d16
 432              		.type	Deplacement, %function
 433              	Deplacement:
 434              	.LFB260:
 435              		.loc 1 223 0
 436              		.cfi_startproc
 437              		@ args = 0, pretend = 0, frame = 8
 438              		@ frame_needed = 0, uses_anonymous_args = 0
 439              	.LVL61:
 440 0000 2DE9F043 		push	{r4, r5, r6, r7, r8, r9, lr}
 441              		.cfi_def_cfa_offset 28
 442              		.cfi_offset 4, -28
 443              		.cfi_offset 5, -24
 444              		.cfi_offset 6, -20
 445              		.cfi_offset 7, -16
 446              		.cfi_offset 8, -12
 447              		.cfi_offset 9, -8
 448              		.cfi_offset 14, -4
 449              	.LBB124:
 450              	.LBB125:
 451              		.loc 2 135 0
 452 0004 214C     		ldr	r4, .L26
 453              	.LBE125:
 454              	.LBE124:
 455              		.loc 1 223 0
 456 0006 224B     		ldr	r3, .L26+4
ARM GAS  /var/folders/j2/t8glr22d56s93xphj_30s8g80000gn/T//ccd3P1vX.s 			page 9


 457              	.LBB128:
 458              	.LBB126:
 459              		.loc 2 135 0
 460 0008 A269     		ldr	r2, [r4, #24]
 461 000a 2249     		ldr	r1, .L26+8
 462              	.LBE126:
 463              	.LBE128:
 464              		.loc 1 223 0
 465 000c 1B68     		ldr	r3, [r3]
 466 000e DFF88880 		ldr	r8, .L26+12
 467              	.LBB129:
 468              	.LBB130:
 469              	.LBB131:
 470              	.LBB132:
 471              		.loc 4 367 0
 472 0012 DFF88890 		ldr	r9, .L26+16
 473              	.LBE132:
 474              	.LBE131:
 475              	.LBE130:
 476              	.LBE129:
 477              	.LBB158:
 478              	.LBB127:
 479              		.loc 2 135 0
 480 0016 9161     		str	r1, [r2, #24]
 481              	.LBE127:
 482              	.LBE158:
 483              		.loc 1 223 0
 484 0018 83B0     		sub	sp, sp, #12
 485              		.cfi_def_cfa_offset 40
 486              	.LBB159:
 487              	.LBB155:
 488              	.LBB141:
 489              	.LBB142:
 490              	.LBB143:
 491              	.LBB144:
 492              	.LBB145:
 493              		.loc 3 546 0
 494 001a 2027     		movs	r7, #32
 495              	.LBE145:
 496              	.LBE144:
 497              	.LBE143:
 498              	.LBE142:
 499              	.LBE141:
 500              	.LBE155:
 501              	.LBE159:
 502              		.loc 1 223 0
 503 001c 0193     		str	r3, [sp, #4]
 504              	.LVL62:
 505              	.LBB160:
 506              	.LBB156:
 507              	.LBB150:
 508              	.LBB139:
 509              	.LBB133:
 510              	.LBB134:
 511              	.LBB135:
 512              		.loc 3 546 0
 513 001e 0026     		movs	r6, #0
ARM GAS  /var/folders/j2/t8glr22d56s93xphj_30s8g80000gn/T//ccd3P1vX.s 			page 10


 514 0020 0EE0     		b	.L22
 515              	.LVL63:
 516              	.L25:
 517              	.LBE135:
 518              	.LBE134:
 519              	.LBE133:
 520              	.LBE139:
 521              	.LBE150:
 522              	.LBE156:
 523              	.LBE160:
 524              		.loc 1 235 0
 525 0022 C8F80030 		str	r3, [r8]
 526              	.L20:
 527              		.loc 1 239 0
 528 0026 4FF47A70 		mov	r0, #1000
 529 002a FFF7FEFF 		bl	left_motor_set_speed
 530              	.LVL64:
 531              		.loc 1 240 0
 532 002e 4FF47A70 		mov	r0, #1000
 533 0032 FFF7FEFF 		bl	right_motor_set_speed
 534              	.LVL65:
 535              	.L21:
 536              		.loc 1 244 0
 537 0036 05F10A01 		add	r1, r5, #10
 538 003a 2846     		mov	r0, r5
 539 003c FFF7FEFF 		bl	chThdSleepUntilWindowed
 540              	.LVL66:
 541              	.L22:
 542              	.LBB161:
 543              	.LBB157:
 544              	.LBB151:
 545              	.LBB149:
 546              	.LBB148:
 547              	.LBB147:
 548              	.LBB146:
 549              		.loc 3 546 0
 550              		.syntax unified
 551              	@ 546 "../../lib/e-puck2_main-processor/ChibiOS//os/ext/CMSIS/include/core_cmFunc.h" 1
 552 0040 87F31188 		MSR basepri, r7
 553              	@ 0 "" 2
 554              	.LVL67:
 555              		.thumb
 556              		.syntax unified
 557              	.LBE146:
 558              	.LBE147:
 559              	.LBE148:
 560              		.loc 4 349 0
 561 0044 FFF7FEFF 		bl	_stats_start_measure_crit_thd
 562              	.LVL68:
 563              		.loc 4 350 0
 564 0048 FFF7FEFF 		bl	_dbg_check_lock
 565              	.LVL69:
 566              	.LBE149:
 567              	.LBE151:
 568              	.LBB152:
 569              	.LBB153:
 570              		.loc 5 231 0
ARM GAS  /var/folders/j2/t8glr22d56s93xphj_30s8g80000gn/T//ccd3P1vX.s 			page 11


 571 004c A56A     		ldr	r5, [r4, #40]
 572              	.LBE153:
 573              	.LBE152:
 574              	.LBB154:
 575              	.LBB140:
 576              		.loc 4 360 0
 577 004e FFF7FEFF 		bl	_dbg_check_unlock
 578              	.LVL70:
 579              		.loc 4 361 0
 580 0052 FFF7FEFF 		bl	_stats_stop_measure_crit_thd
 581              	.LVL71:
 582              		.loc 4 367 0
 583 0056 2368     		ldr	r3, [r4]
 584 0058 A342     		cmp	r3, r4
 585 005a 07D0     		beq	.L18
 586 005c A269     		ldr	r2, [r4, #24]
 587 005e 9B68     		ldr	r3, [r3, #8]
 588 0060 9268     		ldr	r2, [r2, #8]
 589 0062 9A42     		cmp	r2, r3
 590 0064 02D2     		bcs	.L18
 591 0066 4846     		mov	r0, r9
 592 0068 FFF7FEFF 		bl	chSysHalt
 593              	.LVL72:
 594              	.L18:
 595              	.LBB138:
 596              	.LBB137:
 597              	.LBB136:
 598              		.loc 3 546 0
 599              		.syntax unified
 600              	@ 546 "../../lib/e-puck2_main-processor/ChibiOS//os/ext/CMSIS/include/core_cmFunc.h" 1
 601 006c 86F31188 		MSR basepri, r6
 602              	@ 0 "" 2
 603              	.LVL73:
 604              		.thumb
 605              		.syntax unified
 606              	.LBE136:
 607              	.LBE137:
 608              	.LBE138:
 609              	.LBE140:
 610              	.LBE154:
 611              	.LBE157:
 612              	.LBE161:
 613              		.loc 1 233 0
 614 0070 0420     		movs	r0, #4
 615 0072 FFF7FEFF 		bl	get_calibrated_prox
 616              	.LVL74:
 617 0076 B0F5FA7F 		cmp	r0, #500
 618              		.loc 1 235 0
 619 007a 4FF00103 		mov	r3, #1
 620              		.loc 1 233 0
 621 007e D0DA     		bge	.L25
 622              		.loc 1 237 0
 623 0080 D8F80030 		ldr	r3, [r8]
 624 0084 012B     		cmp	r3, #1
 625 0086 D6D1     		bne	.L21
 626 0088 CDE7     		b	.L20
 627              	.L27:
ARM GAS  /var/folders/j2/t8glr22d56s93xphj_30s8g80000gn/T//ccd3P1vX.s 			page 12


 628 008a 00BF     		.align	2
 629              	.L26:
 630 008c 00000000 		.word	ch
 631 0090 00000000 		.word	__stack_chk_guard
 632 0094 00000000 		.word	.LANCHOR4
 633 0098 00000000 		.word	.LANCHOR2
 634 009c 00000000 		.word	.LANCHOR1
 635              		.cfi_endproc
 636              	.LFE260:
 637              		.size	Deplacement, .-Deplacement
 638              		.section	.text.Manoeuvre,"ax",%progbits
 639              		.align	1
 640              		.p2align 4,,15
 641              		.syntax unified
 642              		.thumb
 643              		.thumb_func
 644              		.fpu fpv4-sp-d16
 645              		.type	Manoeuvre, %function
 646              	Manoeuvre:
 647              	.LFB257:
 648              		.loc 1 21 0
 649              		.cfi_startproc
 650              		@ args = 0, pretend = 0, frame = 8
 651              		@ frame_needed = 0, uses_anonymous_args = 0
 652              	.LVL75:
 653 0000 2DE9F04F 		push	{r4, r5, r6, r7, r8, r9, r10, fp, lr}
 654              		.cfi_def_cfa_offset 36
 655              		.cfi_offset 4, -36
 656              		.cfi_offset 5, -32
 657              		.cfi_offset 6, -28
 658              		.cfi_offset 7, -24
 659              		.cfi_offset 8, -20
 660              		.cfi_offset 9, -16
 661              		.cfi_offset 10, -12
 662              		.cfi_offset 11, -8
 663              		.cfi_offset 14, -4
 664              	.LBB178:
 665              	.LBB179:
 666              		.loc 2 135 0
 667 0004 424C     		ldr	r4, .L38
 668              	.LBE179:
 669              	.LBE178:
 670              		.loc 1 21 0
 671 0006 434B     		ldr	r3, .L38+4
 672              	.LBB182:
 673              	.LBB180:
 674              		.loc 2 135 0
 675 0008 A269     		ldr	r2, [r4, #24]
 676 000a 4349     		ldr	r1, .L38+8
 677              	.LBE180:
 678              	.LBE182:
 679              		.loc 1 21 0
 680 000c 1B68     		ldr	r3, [r3]
 681 000e DFF81081 		ldr	r8, .L38+16
 682 0012 DFF81091 		ldr	r9, .L38+20
 683              	.LBB183:
 684              	.LBB184:
ARM GAS  /var/folders/j2/t8glr22d56s93xphj_30s8g80000gn/T//ccd3P1vX.s 			page 13


 685              	.LBB185:
 686              	.LBB186:
 687              		.loc 4 367 0
 688 0016 DFF810A1 		ldr	r10, .L38+24
 689              	.LBE186:
 690              	.LBE185:
 691              	.LBE184:
 692              	.LBE183:
 693              	.LBB206:
 694              	.LBB181:
 695              		.loc 2 135 0
 696 001a 9161     		str	r1, [r2, #24]
 697              	.LBE181:
 698              	.LBE206:
 699              		.loc 1 21 0
 700 001c 83B0     		sub	sp, sp, #12
 701              		.cfi_def_cfa_offset 48
 702              		.loc 1 49 0
 703 001e 3F4E     		ldr	r6, .L38+12
 704              		.loc 1 21 0
 705 0020 0193     		str	r3, [sp, #4]
 706              	.LVL76:
 707              	.LBB207:
 708              	.LBB204:
 709              	.LBB191:
 710              	.LBB192:
 711              	.LBB193:
 712              	.LBB194:
 713              	.LBB195:
 714              		.loc 3 546 0
 715 0022 2027     		movs	r7, #32
 716 0024 04E0     		b	.L35
 717              	.LVL77:
 718              	.L30:
 719              	.LBE195:
 720              	.LBE194:
 721              	.LBE193:
 722              	.LBE192:
 723              	.LBE191:
 724              	.LBE204:
 725              	.LBE207:
 726              		.loc 1 76 0
 727 0026 05F10A01 		add	r1, r5, #10
 728 002a 2846     		mov	r0, r5
 729 002c FFF7FEFF 		bl	chThdSleepUntilWindowed
 730              	.LVL78:
 731              	.L35:
 732              	.LBB208:
 733              	.LBB205:
 734              	.LBB200:
 735              	.LBB199:
 736              	.LBB198:
 737              	.LBB197:
 738              	.LBB196:
 739              		.loc 3 546 0
 740              		.syntax unified
 741              	@ 546 "../../lib/e-puck2_main-processor/ChibiOS//os/ext/CMSIS/include/core_cmFunc.h" 1
ARM GAS  /var/folders/j2/t8glr22d56s93xphj_30s8g80000gn/T//ccd3P1vX.s 			page 14


 742 0030 87F31188 		MSR basepri, r7
 743              	@ 0 "" 2
 744              	.LVL79:
 745              		.thumb
 746              		.syntax unified
 747              	.LBE196:
 748              	.LBE197:
 749              	.LBE198:
 750              		.loc 4 349 0
 751 0034 FFF7FEFF 		bl	_stats_start_measure_crit_thd
 752              	.LVL80:
 753              		.loc 4 350 0
 754 0038 FFF7FEFF 		bl	_dbg_check_lock
 755              	.LVL81:
 756              	.LBE199:
 757              	.LBE200:
 758              	.LBB201:
 759              	.LBB202:
 760              		.loc 5 231 0
 761 003c A56A     		ldr	r5, [r4, #40]
 762              	.LBE202:
 763              	.LBE201:
 764              	.LBB203:
 765              	.LBB190:
 766              		.loc 4 360 0
 767 003e FFF7FEFF 		bl	_dbg_check_unlock
 768              	.LVL82:
 769              		.loc 4 361 0
 770 0042 FFF7FEFF 		bl	_stats_stop_measure_crit_thd
 771              	.LVL83:
 772              		.loc 4 367 0
 773 0046 2368     		ldr	r3, [r4]
 774 0048 A342     		cmp	r3, r4
 775 004a 07D0     		beq	.L29
 776 004c A269     		ldr	r2, [r4, #24]
 777 004e 9B68     		ldr	r3, [r3, #8]
 778 0050 9268     		ldr	r2, [r2, #8]
 779 0052 9A42     		cmp	r2, r3
 780 0054 02D2     		bcs	.L29
 781 0056 5046     		mov	r0, r10
 782 0058 FFF7FEFF 		bl	chSysHalt
 783              	.LVL84:
 784              	.L29:
 785              	.LBB187:
 786              	.LBB188:
 787              	.LBB189:
 788              		.loc 3 546 0
 789 005c 4FF0000B 		mov	fp, #0
 790              		.syntax unified
 791              	@ 546 "../../lib/e-puck2_main-processor/ChibiOS//os/ext/CMSIS/include/core_cmFunc.h" 1
 792 0060 8BF31188 		MSR basepri, fp
 793              	@ 0 "" 2
 794              	.LVL85:
 795              		.thumb
 796              		.syntax unified
 797              	.LBE189:
 798              	.LBE188:
ARM GAS  /var/folders/j2/t8glr22d56s93xphj_30s8g80000gn/T//ccd3P1vX.s 			page 15


 799              	.LBE187:
 800              	.LBE190:
 801              	.LBE203:
 802              	.LBE205:
 803              	.LBE208:
 804              		.loc 1 32 0
 805 0064 0520     		movs	r0, #5
 806 0066 FFF7FEFF 		bl	get_calibrated_prox
 807              	.LVL86:
 808 006a C728     		cmp	r0, #199
 809 006c DBDD     		ble	.L30
 810              		.loc 1 32 0 is_stmt 0 discriminator 1
 811 006e D8F80030 		ldr	r3, [r8]
 812 0072 5B45     		cmp	r3, fp
 813 0074 D7DD     		ble	.L30
 814              		.loc 1 34 0 is_stmt 1
 815 0076 0223     		movs	r3, #2
 816              		.loc 1 36 0
 817 0078 5846     		mov	r0, fp
 818              		.loc 1 34 0
 819 007a C8F80030 		str	r3, [r8]
 820              		.loc 1 36 0
 821 007e FFF7FEFF 		bl	left_motor_set_speed
 822              	.LVL87:
 823              		.loc 1 37 0
 824 0082 5846     		mov	r0, fp
 825 0084 FFF7FEFF 		bl	right_motor_set_speed
 826              	.LVL88:
 827              		.loc 1 38 0
 828 0088 0123     		movs	r3, #1
 829              		.loc 1 39 0
 830 008a 4FF47A70 		mov	r0, #1000
 831              		.loc 1 38 0
 832 008e C9F80030 		str	r3, [r9]
 833              		.loc 1 39 0
 834 0092 FFF7FEFF 		bl	chThdSleep
 835              	.LVL89:
 836              		.loc 1 41 0
 837 0096 FFF7FEFF 		bl	return_signal
 838              	.LVL90:
 839              		.loc 1 42 0
 840 009a 0128     		cmp	r0, #1
 841 009c 00D0     		beq	.L31
 842              	.L32:
 843 009e FEE7     		b	.L32
 844              	.L31:
 845              		.loc 1 49 0
 846 00a0 3046     		mov	r0, r6
 847              	.LVL91:
 848 00a2 FFF7FEFF 		bl	left_motor_set_speed
 849              	.LVL92:
 850              		.loc 1 50 0
 851 00a6 3046     		mov	r0, r6
 852 00a8 FFF7FEFF 		bl	right_motor_set_speed
 853              	.LVL93:
 854              		.loc 1 51 0
 855 00ac 4FF47A70 		mov	r0, #1000
ARM GAS  /var/folders/j2/t8glr22d56s93xphj_30s8g80000gn/T//ccd3P1vX.s 			page 16


 856 00b0 FFF7FEFF 		bl	chThdSleep
 857              	.LVL94:
 858              		.loc 1 53 0
 859 00b4 3046     		mov	r0, r6
 860 00b6 FFF7FEFF 		bl	left_motor_set_speed
 861              	.LVL95:
 862              		.loc 1 54 0
 863 00ba 4FF47A70 		mov	r0, #1000
 864 00be FFF7FEFF 		bl	right_motor_set_speed
 865              	.LVL96:
 866              		.loc 1 55 0
 867 00c2 40F24510 		movw	r0, #325
 868 00c6 FFF7FEFF 		bl	chThdSleep
 869              	.LVL97:
 870              		.loc 1 57 0
 871 00ca 3046     		mov	r0, r6
 872 00cc FFF7FEFF 		bl	left_motor_set_speed
 873              	.LVL98:
 874              		.loc 1 58 0
 875 00d0 3046     		mov	r0, r6
 876 00d2 FFF7FEFF 		bl	right_motor_set_speed
 877              	.LVL99:
 878              		.loc 1 59 0
 879 00d6 40F2EE20 		movw	r0, #750
 880 00da FFF7FEFF 		bl	chThdSleep
 881              	.LVL100:
 882              		.loc 1 64 0
 883 00de 5846     		mov	r0, fp
 884              		.loc 1 62 0
 885 00e0 C9F800B0 		str	fp, [r9]
 886              		.loc 1 64 0
 887 00e4 FFF7FEFF 		bl	left_motor_set_pos
 888              	.LVL101:
 889              		.loc 1 65 0
 890 00e8 04E0     		b	.L33
 891              	.L34:
 892              		.loc 1 67 0
 893 00ea FFF7FEFF 		bl	left_motor_set_speed
 894              	.LVL102:
 895              		.loc 1 68 0
 896 00ee 3046     		mov	r0, r6
 897 00f0 FFF7FEFF 		bl	right_motor_set_speed
 898              	.LVL103:
 899              	.L33:
 900              		.loc 1 65 0
 901 00f4 FFF7FEFF 		bl	left_motor_get_pos
 902              	.LVL104:
 903 00f8 B0F5A37F 		cmp	r0, #326
 904              		.loc 1 67 0
 905 00fc 4FF47A70 		mov	r0, #1000
 906              		.loc 1 65 0
 907 0100 F3DB     		blt	.L34
 908              		.loc 1 71 0
 909 0102 0020     		movs	r0, #0
 910 0104 FFF7FEFF 		bl	left_motor_set_speed
 911              	.LVL105:
 912              		.loc 1 72 0
ARM GAS  /var/folders/j2/t8glr22d56s93xphj_30s8g80000gn/T//ccd3P1vX.s 			page 17


 913 0108 0020     		movs	r0, #0
 914 010a FFF7FEFF 		bl	right_motor_set_speed
 915              	.LVL106:
 916 010e 8AE7     		b	.L30
 917              	.L39:
 918              		.align	2
 919              	.L38:
 920 0110 00000000 		.word	ch
 921 0114 00000000 		.word	__stack_chk_guard
 922 0118 00000000 		.word	.LANCHOR5
 923 011c 18FCFFFF 		.word	-1000
 924 0120 00000000 		.word	.LANCHOR2
 925 0124 00000000 		.word	.LANCHOR3
 926 0128 00000000 		.word	.LANCHOR1
 927              		.cfi_endproc
 928              	.LFE257:
 929              		.size	Manoeuvre, .-Manoeuvre
 930              		.section	.text.Clignotant,"ax",%progbits
 931              		.align	1
 932              		.p2align 4,,15
 933              		.syntax unified
 934              		.thumb
 935              		.thumb_func
 936              		.fpu fpv4-sp-d16
 937              		.type	Clignotant, %function
 938              	Clignotant:
 939              	.LFB258:
 940              		.loc 1 82 0
 941              		.cfi_startproc
 942              		@ args = 0, pretend = 0, frame = 8
 943              		@ frame_needed = 0, uses_anonymous_args = 0
 944              	.LVL107:
 945 0000 2DE9F047 		push	{r4, r5, r6, r7, r8, r9, r10, lr}
 946              		.cfi_def_cfa_offset 32
 947              		.cfi_offset 4, -32
 948              		.cfi_offset 5, -28
 949              		.cfi_offset 6, -24
 950              		.cfi_offset 7, -20
 951              		.cfi_offset 8, -16
 952              		.cfi_offset 9, -12
 953              		.cfi_offset 10, -8
 954              		.cfi_offset 14, -4
 955              	.LBB225:
 956              	.LBB226:
 957              		.loc 2 135 0
 958 0004 444D     		ldr	r5, .L49
 959              	.LBE226:
 960              	.LBE225:
 961              		.loc 1 82 0
 962 0006 454B     		ldr	r3, .L49+4
 963              	.LBB229:
 964              	.LBB227:
 965              		.loc 2 135 0
 966 0008 AA69     		ldr	r2, [r5, #24]
 967 000a 4549     		ldr	r1, .L49+8
 968              	.LBE227:
 969              	.LBE229:
ARM GAS  /var/folders/j2/t8glr22d56s93xphj_30s8g80000gn/T//ccd3P1vX.s 			page 18


 970              		.loc 1 82 0
 971 000c 1B68     		ldr	r3, [r3]
 972 000e DFF81491 		ldr	r9, .L49+12
 973              	.LBB230:
 974              	.LBB231:
 975              	.LBB232:
 976              	.LBB233:
 977              		.loc 4 367 0
 978 0012 DFF814A1 		ldr	r10, .L49+16
 979              	.LBE233:
 980              	.LBE232:
 981              	.LBE231:
 982              	.LBE230:
 983              	.LBB259:
 984              	.LBB228:
 985              		.loc 2 135 0
 986 0016 9161     		str	r1, [r2, #24]
 987              	.LBE228:
 988              	.LBE259:
 989              		.loc 1 82 0
 990 0018 82B0     		sub	sp, sp, #8
 991              		.cfi_def_cfa_offset 40
 992              	.LBB260:
 993              	.LBB256:
 994              	.LBB242:
 995              	.LBB243:
 996              	.LBB244:
 997              	.LBB245:
 998              	.LBB246:
 999              		.loc 3 546 0
 1000 001a 4FF02008 		mov	r8, #32
 1001              	.LBE246:
 1002              	.LBE245:
 1003              	.LBE244:
 1004              	.LBE243:
 1005              	.LBE242:
 1006              	.LBE256:
 1007              	.LBE260:
 1008              		.loc 1 82 0
 1009 001e 0193     		str	r3, [sp, #4]
 1010              	.LVL108:
 1011              	.LBB261:
 1012              	.LBB257:
 1013              	.LBB251:
 1014              	.LBB240:
 1015              	.LBB234:
 1016              	.LBB235:
 1017              	.LBB236:
 1018              		.loc 3 546 0
 1019 0020 0027     		movs	r7, #0
 1020 0022 18E0     		b	.L45
 1021              	.LVL109:
 1022              	.L44:
 1023              	.LBE236:
 1024              	.LBE235:
 1025              	.LBE234:
 1026              	.LBE240:
ARM GAS  /var/folders/j2/t8glr22d56s93xphj_30s8g80000gn/T//ccd3P1vX.s 			page 19


 1027              	.LBE251:
 1028              	.LBE257:
 1029              	.LBE261:
 1030              		.loc 1 118 0
 1031 0024 FFF7FEFF 		bl	set_rgb_led
 1032              	.LVL110:
 1033              		.loc 1 119 0
 1034 0028 0023     		movs	r3, #0
 1035 002a 1A46     		mov	r2, r3
 1036 002c 1946     		mov	r1, r3
 1037 002e 0120     		movs	r0, #1
 1038 0030 FFF7FEFF 		bl	set_rgb_led
 1039              	.LVL111:
 1040              		.loc 1 120 0
 1041 0034 0023     		movs	r3, #0
 1042 0036 1A46     		mov	r2, r3
 1043 0038 1946     		mov	r1, r3
 1044 003a 0220     		movs	r0, #2
 1045 003c FFF7FEFF 		bl	set_rgb_led
 1046              	.LVL112:
 1047              		.loc 1 121 0
 1048 0040 0023     		movs	r3, #0
 1049 0042 1A46     		mov	r2, r3
 1050 0044 1946     		mov	r1, r3
 1051 0046 0320     		movs	r0, #3
 1052 0048 FFF7FEFF 		bl	set_rgb_led
 1053              	.LVL113:
 1054              	.L43:
 1055              		.loc 1 126 0
 1056 004c 06F1FA01 		add	r1, r6, #250
 1057 0050 3046     		mov	r0, r6
 1058 0052 FFF7FEFF 		bl	chThdSleepUntilWindowed
 1059              	.LVL114:
 1060              	.L45:
 1061              	.LBB262:
 1062              	.LBB258:
 1063              	.LBB252:
 1064              	.LBB250:
 1065              	.LBB249:
 1066              	.LBB248:
 1067              	.LBB247:
 1068              		.loc 3 546 0
 1069              		.syntax unified
 1070              	@ 546 "../../lib/e-puck2_main-processor/ChibiOS//os/ext/CMSIS/include/core_cmFunc.h" 1
 1071 0056 88F31188 		MSR basepri, r8
 1072              	@ 0 "" 2
 1073              	.LVL115:
 1074              		.thumb
 1075              		.syntax unified
 1076              	.LBE247:
 1077              	.LBE248:
 1078              	.LBE249:
 1079              		.loc 4 349 0
 1080 005a FFF7FEFF 		bl	_stats_start_measure_crit_thd
 1081              	.LVL116:
 1082              		.loc 4 350 0
 1083 005e FFF7FEFF 		bl	_dbg_check_lock
ARM GAS  /var/folders/j2/t8glr22d56s93xphj_30s8g80000gn/T//ccd3P1vX.s 			page 20


 1084              	.LVL117:
 1085              	.LBE250:
 1086              	.LBE252:
 1087              	.LBB253:
 1088              	.LBB254:
 1089              		.loc 5 231 0
 1090 0062 AE6A     		ldr	r6, [r5, #40]
 1091              	.LBE254:
 1092              	.LBE253:
 1093              	.LBB255:
 1094              	.LBB241:
 1095              		.loc 4 360 0
 1096 0064 FFF7FEFF 		bl	_dbg_check_unlock
 1097              	.LVL118:
 1098              		.loc 4 361 0
 1099 0068 FFF7FEFF 		bl	_stats_stop_measure_crit_thd
 1100              	.LVL119:
 1101              		.loc 4 367 0
 1102 006c 2B68     		ldr	r3, [r5]
 1103 006e AB42     		cmp	r3, r5
 1104 0070 07D0     		beq	.L41
 1105 0072 AA69     		ldr	r2, [r5, #24]
 1106 0074 9B68     		ldr	r3, [r3, #8]
 1107 0076 9268     		ldr	r2, [r2, #8]
 1108 0078 9A42     		cmp	r2, r3
 1109 007a 02D2     		bcs	.L41
 1110 007c 5046     		mov	r0, r10
 1111 007e FFF7FEFF 		bl	chSysHalt
 1112              	.LVL120:
 1113              	.L41:
 1114              	.LBB239:
 1115              	.LBB238:
 1116              	.LBB237:
 1117              		.loc 3 546 0
 1118              		.syntax unified
 1119              	@ 546 "../../lib/e-puck2_main-processor/ChibiOS//os/ext/CMSIS/include/core_cmFunc.h" 1
 1120 0082 87F31188 		MSR basepri, r7
 1121              	@ 0 "" 2
 1122              	.LVL121:
 1123              		.thumb
 1124              		.syntax unified
 1125              	.LBE237:
 1126              	.LBE238:
 1127              	.LBE239:
 1128              	.LBE241:
 1129              	.LBE255:
 1130              	.LBE258:
 1131              	.LBE262:
 1132              		.loc 1 92 0
 1133 0086 D9F80040 		ldr	r4, [r9]
 1134              		.loc 1 118 0
 1135 008a 0023     		movs	r3, #0
 1136              		.loc 1 92 0
 1137 008c 012C     		cmp	r4, #1
 1138              		.loc 1 118 0
 1139 008e 1A46     		mov	r2, r3
 1140 0090 1946     		mov	r1, r3
ARM GAS  /var/folders/j2/t8glr22d56s93xphj_30s8g80000gn/T//ccd3P1vX.s 			page 21


 1141 0092 1846     		mov	r0, r3
 1142              		.loc 1 92 0
 1143 0094 22D0     		beq	.L48
 1144              		.loc 1 104 0
 1145 0096 022C     		cmp	r4, #2
 1146 0098 C4D1     		bne	.L44
 1147              		.loc 1 106 0
 1148 009a 0023     		movs	r3, #0
 1149 009c 1A46     		mov	r2, r3
 1150 009e 1946     		mov	r1, r3
 1151 00a0 1846     		mov	r0, r3
 1152 00a2 FFF7FEFF 		bl	set_rgb_led
 1153              	.LVL122:
 1154              		.loc 1 107 0
 1155 00a6 0023     		movs	r3, #0
 1156 00a8 1A46     		mov	r2, r3
 1157 00aa 1946     		mov	r1, r3
 1158 00ac 0120     		movs	r0, #1
 1159 00ae FFF7FEFF 		bl	set_rgb_led
 1160              	.LVL123:
 1161              		.loc 1 109 0
 1162 00b2 2046     		mov	r0, r4
 1163 00b4 FF22     		movs	r2, #255
 1164 00b6 0021     		movs	r1, #0
 1165 00b8 FFF7FEFF 		bl	toggle_rgb_led
 1166              	.LVL124:
 1167              		.loc 1 110 0
 1168 00bc 2046     		mov	r0, r4
 1169 00be A522     		movs	r2, #165
 1170 00c0 0121     		movs	r1, #1
 1171 00c2 FFF7FEFF 		bl	toggle_rgb_led
 1172              	.LVL125:
 1173              		.loc 1 113 0
 1174 00c6 FF22     		movs	r2, #255
 1175 00c8 0021     		movs	r1, #0
 1176 00ca 0320     		movs	r0, #3
 1177 00cc FFF7FEFF 		bl	toggle_rgb_led
 1178              	.LVL126:
 1179              		.loc 1 114 0
 1180 00d0 A522     		movs	r2, #165
 1181 00d2 0121     		movs	r1, #1
 1182 00d4 0320     		movs	r0, #3
 1183 00d6 FFF7FEFF 		bl	toggle_rgb_led
 1184              	.LVL127:
 1185 00da B7E7     		b	.L43
 1186              	.L48:
 1187              		.loc 1 94 0
 1188 00dc 0220     		movs	r0, #2
 1189 00de FFF7FEFF 		bl	set_rgb_led
 1190              	.LVL128:
 1191              		.loc 1 95 0
 1192 00e2 0023     		movs	r3, #0
 1193 00e4 1A46     		mov	r2, r3
 1194 00e6 1946     		mov	r1, r3
 1195 00e8 0320     		movs	r0, #3
 1196 00ea FFF7FEFF 		bl	set_rgb_led
 1197              	.LVL129:
ARM GAS  /var/folders/j2/t8glr22d56s93xphj_30s8g80000gn/T//ccd3P1vX.s 			page 22


 1198              		.loc 1 97 0
 1199 00ee 2046     		mov	r0, r4
 1200 00f0 FF22     		movs	r2, #255
 1201 00f2 0021     		movs	r1, #0
 1202 00f4 FFF7FEFF 		bl	toggle_rgb_led
 1203              	.LVL130:
 1204              		.loc 1 98 0
 1205 00f8 2146     		mov	r1, r4
 1206 00fa 2046     		mov	r0, r4
 1207 00fc A522     		movs	r2, #165
 1208 00fe FFF7FEFF 		bl	toggle_rgb_led
 1209              	.LVL131:
 1210              		.loc 1 101 0
 1211 0102 0021     		movs	r1, #0
 1212 0104 0846     		mov	r0, r1
 1213 0106 FF22     		movs	r2, #255
 1214 0108 FFF7FEFF 		bl	toggle_rgb_led
 1215              	.LVL132:
 1216              		.loc 1 102 0
 1217 010c 2146     		mov	r1, r4
 1218 010e A522     		movs	r2, #165
 1219 0110 0020     		movs	r0, #0
 1220 0112 FFF7FEFF 		bl	toggle_rgb_led
 1221              	.LVL133:
 1222 0116 99E7     		b	.L43
 1223              	.L50:
 1224              		.align	2
 1225              	.L49:
 1226 0118 00000000 		.word	ch
 1227 011c 00000000 		.word	__stack_chk_guard
 1228 0120 00000000 		.word	.LANCHOR6
 1229 0124 00000000 		.word	.LANCHOR3
 1230 0128 00000000 		.word	.LANCHOR1
 1231              		.cfi_endproc
 1232              	.LFE258:
 1233              		.size	Clignotant, .-Clignotant
 1234              		.section	.text.clignotant_start,"ax",%progbits
 1235              		.align	1
 1236              		.p2align 4,,15
 1237              		.global	clignotant_start
 1238              		.syntax unified
 1239              		.thumb
 1240              		.thumb_func
 1241              		.fpu fpv4-sp-d16
 1242              		.type	clignotant_start, %function
 1243              	clignotant_start:
 1244              	.LFB261:
 1245              		.loc 1 252 0
 1246              		.cfi_startproc
 1247              		@ args = 0, pretend = 0, frame = 8
 1248              		@ frame_needed = 0, uses_anonymous_args = 0
 1249 0000 10B5     		push	{r4, lr}
 1250              		.cfi_def_cfa_offset 8
 1251              		.cfi_offset 4, -8
 1252              		.cfi_offset 14, -4
 1253 0002 0A4C     		ldr	r4, .L55
 1254              		.loc 1 253 0
ARM GAS  /var/folders/j2/t8glr22d56s93xphj_30s8g80000gn/T//ccd3P1vX.s 			page 23


 1255 0004 0A4B     		ldr	r3, .L55+4
 1256              		.loc 1 252 0
 1257 0006 2268     		ldr	r2, [r4]
 1258              		.loc 1 253 0
 1259 0008 0A48     		ldr	r0, .L55+8
 1260              		.loc 1 252 0
 1261 000a 84B0     		sub	sp, sp, #16
 1262              		.cfi_def_cfa_offset 24
 1263              		.loc 1 253 0
 1264 000c 4FF4FC71 		mov	r1, #504
 1265              		.loc 1 252 0
 1266 0010 0392     		str	r2, [sp, #12]
 1267              		.loc 1 253 0
 1268 0012 0022     		movs	r2, #0
 1269 0014 0092     		str	r2, [sp]
 1270 0016 4022     		movs	r2, #64
 1271 0018 FFF7FEFF 		bl	chThdCreateStatic
 1272              	.LVL134:
 1273              		.loc 1 254 0
 1274 001c 039A     		ldr	r2, [sp, #12]
 1275 001e 2368     		ldr	r3, [r4]
 1276 0020 9A42     		cmp	r2, r3
 1277 0022 01D1     		bne	.L54
 1278 0024 04B0     		add	sp, sp, #16
 1279              		.cfi_remember_state
 1280              		.cfi_def_cfa_offset 8
 1281              		@ sp needed
 1282 0026 10BD     		pop	{r4, pc}
 1283              	.L54:
 1284              		.cfi_restore_state
 1285 0028 FFF7FEFF 		bl	__stack_chk_fail
 1286              	.LVL135:
 1287              	.L56:
 1288              		.align	2
 1289              	.L55:
 1290 002c 00000000 		.word	__stack_chk_guard
 1291 0030 00000000 		.word	Clignotant
 1292 0034 00000000 		.word	.LANCHOR7
 1293              		.cfi_endproc
 1294              	.LFE261:
 1295              		.size	clignotant_start, .-clignotant_start
 1296              		.section	.text.depassement_start,"ax",%progbits
 1297              		.align	1
 1298              		.p2align 4,,15
 1299              		.global	depassement_start
 1300              		.syntax unified
 1301              		.thumb
 1302              		.thumb_func
 1303              		.fpu fpv4-sp-d16
 1304              		.type	depassement_start, %function
 1305              	depassement_start:
 1306              	.LFB262:
 1307              		.loc 1 257 0
 1308              		.cfi_startproc
 1309              		@ args = 0, pretend = 0, frame = 8
 1310              		@ frame_needed = 0, uses_anonymous_args = 0
 1311 0000 10B5     		push	{r4, lr}
ARM GAS  /var/folders/j2/t8glr22d56s93xphj_30s8g80000gn/T//ccd3P1vX.s 			page 24


 1312              		.cfi_def_cfa_offset 8
 1313              		.cfi_offset 4, -8
 1314              		.cfi_offset 14, -4
 1315 0002 0A4C     		ldr	r4, .L61
 1316              		.loc 1 258 0
 1317 0004 0A4B     		ldr	r3, .L61+4
 1318              		.loc 1 257 0
 1319 0006 2268     		ldr	r2, [r4]
 1320              		.loc 1 258 0
 1321 0008 0A48     		ldr	r0, .L61+8
 1322              		.loc 1 257 0
 1323 000a 84B0     		sub	sp, sp, #16
 1324              		.cfi_def_cfa_offset 24
 1325              		.loc 1 258 0
 1326 000c 4FF4FC71 		mov	r1, #504
 1327              		.loc 1 257 0
 1328 0010 0392     		str	r2, [sp, #12]
 1329              		.loc 1 258 0
 1330 0012 0022     		movs	r2, #0
 1331 0014 0092     		str	r2, [sp]
 1332 0016 7F22     		movs	r2, #127
 1333 0018 FFF7FEFF 		bl	chThdCreateStatic
 1334              	.LVL136:
 1335              		.loc 1 259 0
 1336 001c 039A     		ldr	r2, [sp, #12]
 1337 001e 2368     		ldr	r3, [r4]
 1338 0020 9A42     		cmp	r2, r3
 1339 0022 01D1     		bne	.L60
 1340 0024 04B0     		add	sp, sp, #16
 1341              		.cfi_remember_state
 1342              		.cfi_def_cfa_offset 8
 1343              		@ sp needed
 1344 0026 10BD     		pop	{r4, pc}
 1345              	.L60:
 1346              		.cfi_restore_state
 1347 0028 FFF7FEFF 		bl	__stack_chk_fail
 1348              	.LVL137:
 1349              	.L62:
 1350              		.align	2
 1351              	.L61:
 1352 002c 00000000 		.word	__stack_chk_guard
 1353 0030 00000000 		.word	Depassement
 1354 0034 00000000 		.word	.LANCHOR8
 1355              		.cfi_endproc
 1356              	.LFE262:
 1357              		.size	depassement_start, .-depassement_start
 1358              		.section	.text.manoeuvre_start,"ax",%progbits
 1359              		.align	1
 1360              		.p2align 4,,15
 1361              		.global	manoeuvre_start
 1362              		.syntax unified
 1363              		.thumb
 1364              		.thumb_func
 1365              		.fpu fpv4-sp-d16
 1366              		.type	manoeuvre_start, %function
 1367              	manoeuvre_start:
 1368              	.LFB263:
ARM GAS  /var/folders/j2/t8glr22d56s93xphj_30s8g80000gn/T//ccd3P1vX.s 			page 25


 1369              		.loc 1 262 0
 1370              		.cfi_startproc
 1371              		@ args = 0, pretend = 0, frame = 8
 1372              		@ frame_needed = 0, uses_anonymous_args = 0
 1373 0000 10B5     		push	{r4, lr}
 1374              		.cfi_def_cfa_offset 8
 1375              		.cfi_offset 4, -8
 1376              		.cfi_offset 14, -4
 1377 0002 0A4C     		ldr	r4, .L67
 1378              		.loc 1 263 0
 1379 0004 0A4B     		ldr	r3, .L67+4
 1380              		.loc 1 262 0
 1381 0006 2268     		ldr	r2, [r4]
 1382              		.loc 1 263 0
 1383 0008 0A48     		ldr	r0, .L67+8
 1384              		.loc 1 262 0
 1385 000a 84B0     		sub	sp, sp, #16
 1386              		.cfi_def_cfa_offset 24
 1387              		.loc 1 263 0
 1388 000c 4FF4FC71 		mov	r1, #504
 1389              		.loc 1 262 0
 1390 0010 0392     		str	r2, [sp, #12]
 1391              		.loc 1 263 0
 1392 0012 0022     		movs	r2, #0
 1393 0014 0092     		str	r2, [sp]
 1394 0016 4122     		movs	r2, #65
 1395 0018 FFF7FEFF 		bl	chThdCreateStatic
 1396              	.LVL138:
 1397              		.loc 1 264 0
 1398 001c 039A     		ldr	r2, [sp, #12]
 1399 001e 2368     		ldr	r3, [r4]
 1400 0020 9A42     		cmp	r2, r3
 1401 0022 01D1     		bne	.L66
 1402 0024 04B0     		add	sp, sp, #16
 1403              		.cfi_remember_state
 1404              		.cfi_def_cfa_offset 8
 1405              		@ sp needed
 1406 0026 10BD     		pop	{r4, pc}
 1407              	.L66:
 1408              		.cfi_restore_state
 1409 0028 FFF7FEFF 		bl	__stack_chk_fail
 1410              	.LVL139:
 1411              	.L68:
 1412              		.align	2
 1413              	.L67:
 1414 002c 00000000 		.word	__stack_chk_guard
 1415 0030 00000000 		.word	Manoeuvre
 1416 0034 00000000 		.word	.LANCHOR9
 1417              		.cfi_endproc
 1418              	.LFE263:
 1419              		.size	manoeuvre_start, .-manoeuvre_start
 1420              		.section	.text.deplacement_start,"ax",%progbits
 1421              		.align	1
 1422              		.p2align 4,,15
 1423              		.global	deplacement_start
 1424              		.syntax unified
 1425              		.thumb
ARM GAS  /var/folders/j2/t8glr22d56s93xphj_30s8g80000gn/T//ccd3P1vX.s 			page 26


 1426              		.thumb_func
 1427              		.fpu fpv4-sp-d16
 1428              		.type	deplacement_start, %function
 1429              	deplacement_start:
 1430              	.LFB264:
 1431              		.loc 1 267 0
 1432              		.cfi_startproc
 1433              		@ args = 0, pretend = 0, frame = 8
 1434              		@ frame_needed = 0, uses_anonymous_args = 0
 1435 0000 10B5     		push	{r4, lr}
 1436              		.cfi_def_cfa_offset 8
 1437              		.cfi_offset 4, -8
 1438              		.cfi_offset 14, -4
 1439 0002 0A4C     		ldr	r4, .L73
 1440              		.loc 1 268 0
 1441 0004 0A4B     		ldr	r3, .L73+4
 1442              		.loc 1 267 0
 1443 0006 2268     		ldr	r2, [r4]
 1444              		.loc 1 268 0
 1445 0008 0A48     		ldr	r0, .L73+8
 1446              		.loc 1 267 0
 1447 000a 84B0     		sub	sp, sp, #16
 1448              		.cfi_def_cfa_offset 24
 1449              		.loc 1 268 0
 1450 000c 4FF4FC71 		mov	r1, #504
 1451              		.loc 1 267 0
 1452 0010 0392     		str	r2, [sp, #12]
 1453              		.loc 1 268 0
 1454 0012 0022     		movs	r2, #0
 1455 0014 0092     		str	r2, [sp]
 1456 0016 4022     		movs	r2, #64
 1457 0018 FFF7FEFF 		bl	chThdCreateStatic
 1458              	.LVL140:
 1459              		.loc 1 269 0
 1460 001c 039A     		ldr	r2, [sp, #12]
 1461 001e 2368     		ldr	r3, [r4]
 1462 0020 9A42     		cmp	r2, r3
 1463 0022 01D1     		bne	.L72
 1464 0024 04B0     		add	sp, sp, #16
 1465              		.cfi_remember_state
 1466              		.cfi_def_cfa_offset 8
 1467              		@ sp needed
 1468 0026 10BD     		pop	{r4, pc}
 1469              	.L72:
 1470              		.cfi_restore_state
 1471 0028 FFF7FEFF 		bl	__stack_chk_fail
 1472              	.LVL141:
 1473              	.L74:
 1474              		.align	2
 1475              	.L73:
 1476 002c 00000000 		.word	__stack_chk_guard
 1477 0030 00000000 		.word	Deplacement
 1478 0034 00000000 		.word	.LANCHOR10
 1479              		.cfi_endproc
 1480              	.LFE264:
 1481              		.size	deplacement_start, .-deplacement_start
 1482              		.section	.bss.cligno,"aw",%nobits
ARM GAS  /var/folders/j2/t8glr22d56s93xphj_30s8g80000gn/T//ccd3P1vX.s 			page 27


 1483              		.align	2
 1484              		.set	.LANCHOR3,. + 0
 1485              		.type	cligno, %object
 1486              		.size	cligno, 4
 1487              	cligno:
 1488 0000 00000000 		.space	4
 1489              		.section	.bss.waClignotant,"aw",%nobits
 1490              		.align	3
 1491              		.set	.LANCHOR7,. + 0
 1492              		.type	waClignotant, %object
 1493              		.size	waClignotant, 504
 1494              	waClignotant:
 1495 0000 00000000 		.space	504
 1495      00000000 
 1495      00000000 
 1495      00000000 
 1495      00000000 
 1496              		.section	.bss.waDepassement,"aw",%nobits
 1497              		.align	3
 1498              		.set	.LANCHOR8,. + 0
 1499              		.type	waDepassement, %object
 1500              		.size	waDepassement, 504
 1501              	waDepassement:
 1502 0000 00000000 		.space	504
 1502      00000000 
 1502      00000000 
 1502      00000000 
 1502      00000000 
 1503              		.section	.bss.waDeplacement,"aw",%nobits
 1504              		.align	3
 1505              		.set	.LANCHOR10,. + 0
 1506              		.type	waDeplacement, %object
 1507              		.size	waDeplacement, 504
 1508              	waDeplacement:
 1509 0000 00000000 		.space	504
 1509      00000000 
 1509      00000000 
 1509      00000000 
 1509      00000000 
 1510              		.section	.bss.waManoeuvre,"aw",%nobits
 1511              		.align	3
 1512              		.set	.LANCHOR9,. + 0
 1513              		.type	waManoeuvre, %object
 1514              		.size	waManoeuvre, 504
 1515              	waManoeuvre:
 1516 0000 00000000 		.space	504
 1516      00000000 
 1516      00000000 
 1516      00000000 
 1516      00000000 
 1517              		.section	.data.mobile,"aw",%progbits
 1518              		.align	2
 1519              		.set	.LANCHOR2,. + 0
 1520              		.type	mobile, %object
 1521              		.size	mobile, 4
 1522              	mobile:
 1523 0000 01000000 		.word	1
ARM GAS  /var/folders/j2/t8glr22d56s93xphj_30s8g80000gn/T//ccd3P1vX.s 			page 28


 1524              		.section	.rodata.__FUNCTION__.9966,"a",%progbits
 1525              		.align	2
 1526              		.set	.LANCHOR5,. + 0
 1527              		.type	__FUNCTION__.9966, %object
 1528              		.size	__FUNCTION__.9966, 10
 1529              	__FUNCTION__.9966:
 1530 0000 4D616E6F 		.ascii	"Manoeuvre\000"
 1530      65757672 
 1530      6500
 1531              		.section	.rodata.__FUNCTION__.9980,"a",%progbits
 1532              		.align	2
 1533              		.set	.LANCHOR6,. + 0
 1534              		.type	__FUNCTION__.9980, %object
 1535              		.size	__FUNCTION__.9980, 11
 1536              	__FUNCTION__.9980:
 1537 0000 436C6967 		.ascii	"Clignotant\000"
 1537      6E6F7461 
 1537      6E7400
 1538              		.section	.rodata.__FUNCTION__.9987,"a",%progbits
 1539              		.align	2
 1540              		.set	.LANCHOR0,. + 0
 1541              		.type	__FUNCTION__.9987, %object
 1542              		.size	__FUNCTION__.9987, 12
 1543              	__FUNCTION__.9987:
 1544 0000 44657061 		.ascii	"Depassement\000"
 1544      7373656D 
 1544      656E7400 
 1545              		.section	.rodata.__FUNCTION__.9994,"a",%progbits
 1546              		.align	2
 1547              		.set	.LANCHOR4,. + 0
 1548              		.type	__FUNCTION__.9994, %object
 1549              		.size	__FUNCTION__.9994, 12
 1550              	__FUNCTION__.9994:
 1551 0000 4465706C 		.ascii	"Deplacement\000"
 1551      6163656D 
 1551      656E7400 
 1552              		.section	.rodata.__func__.7153,"a",%progbits
 1553              		.align	2
 1554              		.set	.LANCHOR1,. + 0
 1555              		.type	__func__.7153, %object
 1556              		.size	__func__.7153, 12
 1557              	__func__.7153:
 1558 0000 63685379 		.ascii	"chSysUnlock\000"
 1558      73556E6C 
 1558      6F636B00 
 1559              		.text
 1560              	.Letext0:
 1561              		.file 6 "/Applications/Eclipse_e-puck2.app/Contents/Eclipse_e-puck2/Tools/gcc-arm-none-eabi-7-2017
 1562              		.file 7 "/Applications/Eclipse_e-puck2.app/Contents/Eclipse_e-puck2/Tools/gcc-arm-none-eabi-7-2017
 1563              		.file 8 "/Applications/Eclipse_e-puck2.app/Contents/Eclipse_e-puck2/Tools/gcc-arm-none-eabi-7-2017
 1564              		.file 9 "../../lib/e-puck2_main-processor/ChibiOS//os/rt/ports/ARMCMx/compilers/GCC/chtypes.h"
 1565              		.file 10 "../../lib/e-puck2_main-processor/ChibiOS//os/rt/include/chsystypes.h"
 1566              		.file 11 "../../lib/e-puck2_main-processor/ChibiOS//os/rt/include/chschd.h"
 1567              		.file 12 "../../lib/e-puck2_main-processor/ChibiOS//os/ext/CMSIS/include/core_cm4.h"
 1568              		.file 13 "../../lib/e-puck2_main-processor/ChibiOS//os/ext/CMSIS/ST/system_stm32f4xx.h"
 1569              		.file 14 "../../lib/e-puck2_main-processor/ChibiOS//os/ext/CMSIS/ST/stm32f407xx.h"
 1570              		.file 15 "../../lib/e-puck2_main-processor/ChibiOS//os/rt/ports/ARMCMx/chcore.h"
ARM GAS  /var/folders/j2/t8glr22d56s93xphj_30s8g80000gn/T//ccd3P1vX.s 			page 29


 1571              		.file 16 "../../lib/e-puck2_main-processor/ChibiOS//os/rt/ports/ARMCMx/chcore_v7m.h"
 1572              		.file 17 "../../lib/e-puck2_main-processor/ChibiOS//os/rt/include/chdebug.h"
 1573              		.file 18 "../../lib/e-puck2_main-processor/ChibiOS//os/rt/include/chtm.h"
 1574              		.file 19 "../../lib/e-puck2_main-processor/ChibiOS//os/rt/include/chstats.h"
 1575              		.file 20 "../../lib/e-puck2_main-processor/ChibiOS//os/rt/include/chsem.h"
 1576              		.file 21 "../../lib/e-puck2_main-processor/ChibiOS//os/rt/include/chmtx.h"
 1577              		.file 22 "../../lib/e-puck2_main-processor/ChibiOS//os/rt/include/chevents.h"
 1578              		.file 23 "../../lib/e-puck2_main-processor/ChibiOS//os/rt/include/chqueues.h"
 1579              		.file 24 "../../lib/e-puck2_main-processor/ChibiOS//os/hal/ports/STM32/STM32F4xx/stm32_dma.h"
 1580              		.file 25 "../../lib/e-puck2_main-processor/ChibiOS//os/hal/include/hal_ioblock.h"
 1581              		.file 26 "../../lib/e-puck2_main-processor/ChibiOS//os/hal/ports/STM32/LLD/GPIOv2/pal_lld.h"
 1582              		.file 27 "../../lib/e-puck2_main-processor/ChibiOS//os/hal/include/adc.h"
 1583              		.file 28 "../../lib/e-puck2_main-processor/ChibiOS//os/hal/ports/STM32/STM32F4xx/adc_lld.h"
 1584              		.file 29 "../../lib/e-puck2_main-processor/ChibiOS//os/hal/include/can.h"
 1585              		.file 30 "../../lib/e-puck2_main-processor/ChibiOS//os/hal/ports/STM32/LLD/can_lld.h"
 1586              		.file 31 "../../lib/e-puck2_main-processor/ChibiOS//os/hal/include/dac.h"
 1587              		.file 32 "../../lib/e-puck2_main-processor/ChibiOS//os/hal/ports/STM32/LLD/DACv1/dac_lld.h"
 1588              		.file 33 "../../lib/e-puck2_main-processor/ChibiOS//os/hal/include/ext.h"
 1589              		.file 34 "../../lib/e-puck2_main-processor/ChibiOS//os/hal/ports/STM32/LLD/ext_lld.h"
 1590              		.file 35 "../../lib/e-puck2_main-processor/ChibiOS//os/hal/include/gpt.h"
 1591              		.file 36 "../../lib/e-puck2_main-processor/ChibiOS//os/hal/ports/STM32/LLD/TIMv1/gpt_lld.h"
 1592              		.file 37 "../../lib/e-puck2_main-processor/ChibiOS//os/hal/ports/STM32/LLD/TIMv1/stm32_tim.h"
 1593              		.file 38 "../../lib/e-puck2_main-processor/ChibiOS//os/hal/include/i2c.h"
 1594              		.file 39 "../../lib/e-puck2_main-processor/ChibiOS//os/hal/ports/STM32/LLD/I2Cv1/i2c_lld.h"
 1595              		.file 40 "../../lib/e-puck2_main-processor/ChibiOS//os/hal/include/i2s.h"
 1596              		.file 41 "../../lib/e-puck2_main-processor/ChibiOS//os/hal/ports/STM32/LLD/SPIv1/i2s_lld.h"
 1597              		.file 42 "../../lib/e-puck2_main-processor/ChibiOS//os/hal/include/pwm.h"
 1598              		.file 43 "../../lib/e-puck2_main-processor/ChibiOS//os/hal/ports/STM32/LLD/TIMv1/pwm_lld.h"
 1599              		.file 44 "../../lib/e-puck2_main-processor/ChibiOS//os/hal/include/serial.h"
 1600              		.file 45 "../../lib/e-puck2_main-processor/ChibiOS//os/hal/ports/STM32/LLD/USARTv1/serial_lld.h"
 1601              		.file 46 "../../lib/e-puck2_main-processor/ChibiOS//os/hal/include/sdc.h"
 1602              		.file 47 "../../lib/e-puck2_main-processor/ChibiOS//os/hal/ports/STM32/LLD/sdc_lld.h"
 1603              		.file 48 "../../lib/e-puck2_main-processor/ChibiOS//os/hal/include/spi.h"
 1604              		.file 49 "../../lib/e-puck2_main-processor/ChibiOS//os/hal/ports/STM32/LLD/SPIv1/spi_lld.h"
 1605              		.file 50 "../../lib/e-puck2_main-processor/ChibiOS//os/hal/include/usb.h"
 1606              		.file 51 "../../lib/e-puck2_main-processor/ChibiOS//os/hal/ports/STM32/LLD/OTGv1/usb_lld.h"
 1607              		.file 52 "../../lib/e-puck2_main-processor/ChibiOS//os/hal/ports/STM32/LLD/OTGv1/stm32_otg.h"
 1608              		.file 53 "../../lib/e-puck2_main-processor/ChibiOS//os/hal/include/serial_usb.h"
 1609              		.file 54 "../../lib/e-puck2_main-processor/src/leds.h"
 1610              		.file 55 "../../lib/e-puck2_main-processor/src/usbcfg.h"
 1611              		.file 56 "../../lib/e-puck2_main-processor/ChibiOS//os/rt/include/chthreads.h"
 1612              		.file 57 "../../lib/e-puck2_main-processor/src/motors.h"
 1613              		.file 58 "../../lib/e-puck2_main-processor/src/sensors/proximity.h"
 1614              		.file 59 "./audio_processing.h"