ARM GAS  /var/folders/j2/t8glr22d56s93xphj_30s8g80000gn/T//ccyXCyzA.s 			page 1


   1              		.cpu cortex-m4
   2              		.eabi_attribute 27, 1
   3              		.eabi_attribute 28, 1
   4              		.eabi_attribute 20, 1
   5              		.eabi_attribute 21, 1
   6              		.eabi_attribute 23, 3
   7              		.eabi_attribute 24, 1
   8              		.eabi_attribute 25, 1
   9              		.eabi_attribute 26, 1
  10              		.eabi_attribute 30, 2
  11              		.eabi_attribute 34, 1
  12              		.eabi_attribute 18, 4
  13              		.file	"pi_regulator.c"
  14              		.text
  15              	.Ltext0:
  16              		.cfi_sections	.debug_frame
  17              		.global	__aeabi_f2d
  18              		.global	__aeabi_dmul
  19              		.global	__aeabi_d2f
  20              		.section	.text.convertisseur_value_dist.part.0,"ax",%progbits
  21              		.align	1
  22              		.p2align 4,,15
  23              		.syntax unified
  24              		.thumb
  25              		.thumb_func
  26              		.fpu fpv4-sp-d16
  27              		.type	convertisseur_value_dist.part.0, %function
  28              	convertisseur_value_dist.part.0:
  29              	.LFB295:
  30              		.file 1 "pi_regulator.c"
  31              		.loc 1 144 0
  32              		.cfi_startproc
  33              		@ args = 0, pretend = 0, frame = 8
  34              		@ frame_needed = 0, uses_anonymous_args = 0
  35              	.LVL0:
  36              	.LBB40:
  37              		.loc 1 148 0
  38 0000 DFED157A 		vldr.32	s15, .L6
  39 0004 DFED156A 		vldr.32	s13, .L6+4
  40 0008 30EE670A 		vsub.f32	s0, s0, s15
  41              	.LVL1:
  42              	.LBE40:
  43              		.loc 1 144 0
  44 000c 10B5     		push	{r4, lr}
  45              		.cfi_def_cfa_offset 8
  46              		.cfi_offset 4, -8
  47              		.cfi_offset 14, -4
  48              	.LBB41:
  49              		.loc 1 148 0
  50 000e 86EE807A 		vdiv.f32	s14, s13, s0
  51              	.LBE41:
  52              		.loc 1 144 0
  53 0012 134C     		ldr	r4, .L6+8
  54 0014 82B0     		sub	sp, sp, #8
  55              		.cfi_def_cfa_offset 16
  56              		.loc 1 144 0
  57 0016 2368     		ldr	r3, [r4]
ARM GAS  /var/folders/j2/t8glr22d56s93xphj_30s8g80000gn/T//ccyXCyzA.s 			page 2


  58 0018 0193     		str	r3, [sp, #4]
  59              	.LBB42:
  60              		.loc 1 148 0
  61 001a F0EE007A 		vmov.f32	s15, #2.0e+0
  62 001e 77EE677A 		vsub.f32	s15, s14, s15
  63 0022 17EE900A 		vmov	r0, s15
  64 0026 FFF7FEFF 		bl	__aeabi_f2d
  65              	.LVL2:
  66 002a 41EC100B 		vmov	d0, r0, r1
  67 002e FFF7FEFF 		bl	log
  68              	.LVL3:
  69 0032 0022     		movs	r2, #0
  70 0034 0B4B     		ldr	r3, .L6+12
  71 0036 51EC100B 		vmov	r0, r1, d0
  72 003a FFF7FEFF 		bl	__aeabi_dmul
  73              	.LVL4:
  74 003e FFF7FEFF 		bl	__aeabi_d2f
  75              	.LVL5:
  76              	.LBE42:
  77              		.loc 1 155 0
  78 0042 019A     		ldr	r2, [sp, #4]
  79 0044 2368     		ldr	r3, [r4]
  80 0046 9A42     		cmp	r2, r3
  81 0048 03D1     		bne	.L5
  82 004a 00EE100A 		vmov	s0, r0
  83 004e 02B0     		add	sp, sp, #8
  84              		.cfi_remember_state
  85              		.cfi_def_cfa_offset 8
  86              		@ sp needed
  87 0050 10BD     		pop	{r4, pc}
  88              	.L5:
  89              		.cfi_restore_state
  90 0052 FFF7FEFF 		bl	__stack_chk_fail
  91              	.LVL6:
  92              	.L7:
  93 0056 00BF     		.align	2
  94              	.L6:
  95 0058 0000F042 		.word	1123024896
  96 005c 00005746 		.word	1180106752
  97 0060 00000000 		.word	__stack_chk_guard
  98 0064 00001840 		.word	1075314688
  99              		.cfi_endproc
 100              	.LFE295:
 101              		.size	convertisseur_value_dist.part.0, .-convertisseur_value_dist.part.0
 102              		.section	.text.chprintf.constprop.1,"ax",%progbits
 103              		.align	1
 104              		.p2align 4,,15
 105              		.syntax unified
 106              		.thumb
 107              		.thumb_func
 108              		.fpu fpv4-sp-d16
 109              		.type	chprintf.constprop.1, %function
 110              	chprintf.constprop.1:
 111              	.LFB296:
 112              		.file 2 "../../lib/e-puck2_main-processor/ChibiOS//os/hal/lib/streams/chprintf.h"
 113              		.loc 2 69 0
 114              		.cfi_startproc
ARM GAS  /var/folders/j2/t8glr22d56s93xphj_30s8g80000gn/T//ccyXCyzA.s 			page 3


 115              		@ args = 4, pretend = 12, frame = 8
 116              		@ frame_needed = 0, uses_anonymous_args = 1
 117              	.LVL7:
 118 0000 0EB4     		push	{r1, r2, r3}
 119              		.cfi_def_cfa_offset 12
 120              		.cfi_offset 1, -12
 121              		.cfi_offset 2, -8
 122              		.cfi_offset 3, -4
 123 0002 10B5     		push	{r4, lr}
 124              		.cfi_def_cfa_offset 20
 125              		.cfi_offset 4, -20
 126              		.cfi_offset 14, -16
 127 0004 83B0     		sub	sp, sp, #12
 128              		.cfi_def_cfa_offset 32
 129              		.loc 2 69 0
 130 0006 05AA     		add	r2, sp, #20
 131 0008 094C     		ldr	r4, .L12
 132 000a 52F8041B 		ldr	r1, [r2], #4
 133 000e 2368     		ldr	r3, [r4]
 134              		.loc 2 74 0
 135 0010 0848     		ldr	r0, .L12+4
 136              	.LVL8:
 137              		.loc 2 73 0
 138 0012 0092     		str	r2, [sp]
 139              		.loc 2 69 0
 140 0014 0193     		str	r3, [sp, #4]
 141              	.LVL9:
 142              		.loc 2 74 0
 143 0016 FFF7FEFF 		bl	chvprintf
 144              	.LVL10:
 145              		.loc 2 78 0
 146 001a 019A     		ldr	r2, [sp, #4]
 147 001c 2368     		ldr	r3, [r4]
 148 001e 9A42     		cmp	r2, r3
 149 0020 04D1     		bne	.L11
 150 0022 03B0     		add	sp, sp, #12
 151              		.cfi_remember_state
 152              		.cfi_def_cfa_offset 20
 153              		@ sp needed
 154 0024 BDE81040 		pop	{r4, lr}
 155              		.cfi_restore 14
 156              		.cfi_restore 4
 157              		.cfi_def_cfa_offset 12
 158 0028 03B0     		add	sp, sp, #12
 159              		.cfi_restore 3
 160              		.cfi_restore 2
 161              		.cfi_restore 1
 162              		.cfi_def_cfa_offset 0
 163 002a 7047     		bx	lr
 164              	.L11:
 165              		.cfi_restore_state
 166 002c FFF7FEFF 		bl	__stack_chk_fail
 167              	.LVL11:
 168              	.L13:
 169              		.align	2
 170              	.L12:
 171 0030 00000000 		.word	__stack_chk_guard
ARM GAS  /var/folders/j2/t8glr22d56s93xphj_30s8g80000gn/T//ccyXCyzA.s 			page 4


 172 0034 00000000 		.word	SDU1
 173              		.cfi_endproc
 174              	.LFE296:
 175              		.size	chprintf.constprop.1, .-chprintf.constprop.1
 176              		.section	.text.pi_regulator,"ax",%progbits
 177              		.align	1
 178              		.p2align 4,,15
 179              		.global	pi_regulator
 180              		.syntax unified
 181              		.thumb
 182              		.thumb_func
 183              		.fpu fpv4-sp-d16
 184              		.type	pi_regulator, %function
 185              	pi_regulator:
 186              	.LFB290:
 187              		.loc 1 17 0
 188              		.cfi_startproc
 189              		@ args = 0, pretend = 0, frame = 8
 190              		@ frame_needed = 0, uses_anonymous_args = 0
 191              	.LVL12:
 192 0000 00B5     		push	{lr}
 193              		.cfi_def_cfa_offset 4
 194              		.cfi_offset 14, -4
 195              		.loc 1 25 0
 196 0002 70EE600A 		vsub.f32	s1, s0, s1
 197              	.LVL13:
 198              		.loc 1 34 0
 199 0006 DFED437A 		vldr.32	s15, .L36
 200              		.loc 1 17 0
 201 000a 434B     		ldr	r3, .L36+4
 202              		.loc 1 34 0
 203 000c B0EEE06A 		vabs.f32	s12, s1
 204              		.loc 1 17 0
 205 0010 83B0     		sub	sp, sp, #12
 206              		.cfi_def_cfa_offset 16
 207              		.loc 1 34 0
 208 0012 B4EEE76A 		vcmpe.f32	s12, s15
 209              		.loc 1 17 0
 210 0016 1A68     		ldr	r2, [r3]
 211 0018 0192     		str	r2, [sp, #4]
 212              	.LVL14:
 213              		.loc 1 34 0
 214 001a F1EE10FA 		vmrs	APSR_nzcv, FPSCR
 215 001e 45D4     		bmi	.L25
 216              		.loc 1 39 0
 217 0020 3E49     		ldr	r1, .L36+8
 218              		.loc 1 43 0
 219 0022 DFED3F6A 		vldr.32	s13, .L36+12
 220              		.loc 1 39 0
 221 0026 91ED007A 		vldr.32	s14, [r1]
 222              		.loc 1 27 0
 223 002a 3E4A     		ldr	r2, .L36+16
 224              		.loc 1 39 0
 225 002c 30EE877A 		vadd.f32	s14, s1, s14
 226              		.loc 1 27 0
 227 0030 D2ED007A 		vldr.32	s15, [r2]
 228              		.loc 1 43 0
ARM GAS  /var/folders/j2/t8glr22d56s93xphj_30s8g80000gn/T//ccyXCyzA.s 			page 5


 229 0034 B4EEE67A 		vcmpe.f32	s14, s13
 230 0038 F1EE10FA 		vmrs	APSR_nzcv, FPSCR
 231 003c 2ADD     		ble	.L31
 232              		.loc 1 44 0
 233 003e C1ED006A 		vstr.32	s13, [r1]
 234 0042 F2EE046A 		vmov.f32	s13, #1.0e+1
 235              	.L18:
 236              		.loc 1 27 0
 237 0046 70EEE77A 		vsub.f32	s15, s1, s15
 238              		.loc 1 50 0
 239 004a 9FED377A 		vldr.32	s14, .L36+20
 240 004e F4EEC77A 		vcmpe.f32	s15, s14
 241 0052 F1EE10FA 		vmrs	APSR_nzcv, FPSCR
 242 0056 41DC     		bgt	.L26
 243              		.loc 1 54 0
 244 0058 9FED347A 		vldr.32	s14, .L36+24
 245              		.loc 1 56 0
 246 005c F4EE477A 		vcmp.f32	s15, s14
 247 0060 F1EE10FA 		vmrs	APSR_nzcv, FPSCR
 248 0064 48BF     		it	mi
 249 0066 F0EE477A 		vmovmi.f32	s15, s14
 250              	.L20:
 251              	.LVL15:
 252              		.loc 1 59 0
 253 006a DFED315A 		vldr.32	s11, .L36+28
 254 006e F4EEE50A 		vcmpe.f32	s1, s11
 255 0072 F1EE10FA 		vmrs	APSR_nzcv, FPSCR
 256 0076 21DC     		bgt	.L28
 257              		.loc 1 63 0
 258 0078 DFED2E5A 		vldr.32	s11, .L36+32
 259 007c F4EEE50A 		vcmpe.f32	s1, s11
 260 0080 F1EE10FA 		vmrs	APSR_nzcv, FPSCR
 261 0084 2DD5     		bpl	.L33
 262 0086 9FED2C7A 		vldr.32	s14, .L36+36
 263              		.loc 1 65 0
 264 008a F0EE650A 		vmov.f32	s1, s11
 265              	.LVL16:
 266 008e 77EE877A 		vadd.f32	s15, s15, s14
 267              	.LVL17:
 268 0092 19E0     		b	.L21
 269              	.LVL18:
 270              	.L31:
 271              		.loc 1 45 0
 272 0094 DFED296A 		vldr.32	s13, .L36+40
 273 0098 B4EEE67A 		vcmpe.f32	s14, s13
 274 009c F1EE10FA 		vmrs	APSR_nzcv, FPSCR
 275 00a0 2FD5     		bpl	.L34
 276              		.loc 1 46 0
 277 00a2 C1ED006A 		vstr.32	s13, [r1]
 278 00a6 FAEE046A 		vmov.f32	s13, #-1.0e+1
 279 00aa CCE7     		b	.L18
 280              	.LVL19:
 281              	.L25:
 282              		.loc 1 36 0
 283 00ac 0020     		movs	r0, #0
 284              	.LVL20:
 285              	.L15:
ARM GAS  /var/folders/j2/t8glr22d56s93xphj_30s8g80000gn/T//ccyXCyzA.s 			page 6


 286              		.loc 1 84 0
 287 00ae 019A     		ldr	r2, [sp, #4]
 288 00b0 1B68     		ldr	r3, [r3]
 289 00b2 9A42     		cmp	r2, r3
 290 00b4 2CD1     		bne	.L35
 291 00b6 03B0     		add	sp, sp, #12
 292              		.cfi_remember_state
 293              		.cfi_def_cfa_offset 4
 294              		@ sp needed
 295 00b8 5DF804FB 		ldr	pc, [sp], #4
 296              	.LVL21:
 297              	.L28:
 298              		.cfi_restore_state
 299 00bc 9FED207A 		vldr.32	s14, .L36+44
 300 00c0 77EE877A 		vadd.f32	s15, s15, s14
 301              	.LVL22:
 302              		.loc 1 61 0
 303 00c4 F0EE650A 		vmov.f32	s1, s11
 304              	.LVL23:
 305              	.L21:
 306              		.loc 1 71 0
 307 00c8 37EEA67A 		vadd.f32	s14, s15, s13
 308              	.LVL24:
 309              	.L22:
 310              		.loc 1 83 0
 311 00cc FDEEC77A 		vcvt.s32.f32	s15, s14
 312              		.loc 1 82 0
 313 00d0 C2ED000A 		vstr.32	s1, [r2]
 314              		.loc 1 83 0
 315 00d4 17EE902A 		vmov	r2, s15	@ int
 316 00d8 10B2     		sxth	r0, r2
 317 00da E8E7     		b	.L15
 318              	.LVL25:
 319              	.L26:
 320              		.loc 1 52 0
 321 00dc F0EE477A 		vmov.f32	s15, s14
 322 00e0 C3E7     		b	.L20
 323              	.LVL26:
 324              	.L33:
 325 00e2 9FED187A 		vldr.32	s14, .L36+48
 326              		.loc 1 69 0
 327 00e6 DFED165A 		vldr.32	s11, .L36+44
 328 00ea 20EE877A 		vmul.f32	s14, s1, s14
 329 00ee B4EEE56A 		vcmpe.f32	s12, s11
 330 00f2 77EE877A 		vadd.f32	s15, s15, s14
 331              	.LVL27:
 332 00f6 F1EE10FA 		vmrs	APSR_nzcv, FPSCR
 333 00fa 37EEA67A 		vadd.f32	s14, s15, s13
 334 00fe E5DD     		ble	.L22
 335 0100 E2E7     		b	.L21
 336              	.LVL28:
 337              	.L34:
 338 0102 DFED116A 		vldr.32	s13, .L36+52
 339              		.loc 1 39 0
 340 0106 81ED007A 		vstr.32	s14, [r1]
 341 010a 67EE266A 		vmul.f32	s13, s14, s13
 342 010e 9AE7     		b	.L18
ARM GAS  /var/folders/j2/t8glr22d56s93xphj_30s8g80000gn/T//ccyXCyzA.s 			page 7


 343              	.LVL29:
 344              	.L35:
 345              		.loc 1 84 0
 346 0110 FFF7FEFF 		bl	__stack_chk_fail
 347              	.LVL30:
 348              	.L37:
 349              		.align	2
 350              	.L36:
 351 0114 0000C842 		.word	1120403456
 352 0118 00000000 		.word	__stack_chk_guard
 353 011c 00000000 		.word	.LANCHOR1
 354 0120 0000FA44 		.word	1157234688
 355 0124 00000000 		.word	.LANCHOR0
 356 0128 00007A43 		.word	1132068864
 357 012c 00007AC3 		.word	3279552512
 358 0130 00007A44 		.word	1148846080
 359 0134 00007AC4 		.word	3296329728
 360 0138 000096C3 		.word	3281387520
 361 013c 0000FAC4 		.word	3304718336
 362 0140 00009643 		.word	1133903872
 363 0144 9A99993E 		.word	1050253722
 364 0148 0AD7A33B 		.word	1000593162
 365              		.cfi_endproc
 366              	.LFE290:
 367              		.size	pi_regulator, .-pi_regulator
 368              		.section	.text.convertisseur_value_dist,"ax",%progbits
 369              		.align	1
 370              		.p2align 4,,15
 371              		.global	convertisseur_value_dist
 372              		.syntax unified
 373              		.thumb
 374              		.thumb_func
 375              		.fpu fpv4-sp-d16
 376              		.type	convertisseur_value_dist, %function
 377              	convertisseur_value_dist:
 378              	.LFB292:
 379              		.loc 1 145 0
 380              		.cfi_startproc
 381              		@ args = 0, pretend = 0, frame = 8
 382              		@ frame_needed = 0, uses_anonymous_args = 0
 383              	.LVL31:
 384 0000 00B5     		push	{lr}
 385              		.cfi_def_cfa_offset 4
 386              		.cfi_offset 14, -4
 387 0002 0E4B     		ldr	r3, .L48
 388              		.loc 1 146 0
 389 0004 DFED0E7A 		vldr.32	s15, .L48+4
 390              		.loc 1 145 0
 391 0008 1A68     		ldr	r2, [r3]
 392 000a 83B0     		sub	sp, sp, #12
 393              		.cfi_def_cfa_offset 16
 394              		.loc 1 146 0
 395 000c B4EEE70A 		vcmpe.f32	s0, s15
 396              		.loc 1 145 0
 397 0010 0192     		str	r2, [sp, #4]
 398              		.loc 1 146 0
 399 0012 F1EE10FA 		vmrs	APSR_nzcv, FPSCR
ARM GAS  /var/folders/j2/t8glr22d56s93xphj_30s8g80000gn/T//ccyXCyzA.s 			page 8


 400 0016 019A     		ldr	r2, [sp, #4]
 401 0018 1B68     		ldr	r3, [r3]
 402 001a 06DC     		bgt	.L47
 403              		.loc 1 155 0
 404 001c 9A42     		cmp	r2, r3
 405 001e 9FED090A 		vldr.32	s0, .L48+8
 406              	.LVL32:
 407 0022 09D1     		bne	.L46
 408 0024 03B0     		add	sp, sp, #12
 409              		.cfi_remember_state
 410              		.cfi_def_cfa_offset 4
 411              		@ sp needed
 412 0026 5DF804FB 		ldr	pc, [sp], #4
 413              	.LVL33:
 414              	.L47:
 415              		.cfi_restore_state
 416 002a 9A42     		cmp	r2, r3
 417 002c 04D1     		bne	.L46
 418 002e 03B0     		add	sp, sp, #12
 419              		.cfi_remember_state
 420              		.cfi_def_cfa_offset 4
 421              		@ sp needed
 422 0030 5DF804EB 		ldr	lr, [sp], #4
 423              		.cfi_restore 14
 424              		.cfi_def_cfa_offset 0
 425 0034 FFF7FEBF 		b	convertisseur_value_dist.part.0
 426              	.LVL34:
 427              	.L46:
 428              		.cfi_restore_state
 429 0038 FFF7FEFF 		bl	__stack_chk_fail
 430              	.LVL35:
 431              	.L49:
 432              		.align	2
 433              	.L48:
 434 003c 00000000 		.word	__stack_chk_guard
 435 0040 0000F842 		.word	1123549184
 436 0044 00000000 		.word	0
 437              		.cfi_endproc
 438              	.LFE292:
 439              		.size	convertisseur_value_dist, .-convertisseur_value_dist
 440              		.global	__aeabi_dadd
 441              		.global	__aeabi_ddiv
 442              		.section	.text.calcul_angle,"ax",%progbits
 443              		.align	1
 444              		.p2align 4,,15
 445              		.global	calcul_angle
 446              		.syntax unified
 447              		.thumb
 448              		.thumb_func
 449              		.fpu fpv4-sp-d16
 450              		.type	calcul_angle, %function
 451              	calcul_angle:
 452              	.LFB293:
 453              		.loc 1 158 0
 454              		.cfi_startproc
 455              		@ args = 0, pretend = 0, frame = 16
 456              		@ frame_needed = 0, uses_anonymous_args = 0
ARM GAS  /var/folders/j2/t8glr22d56s93xphj_30s8g80000gn/T//ccyXCyzA.s 			page 9


 457              	.LVL36:
 458 0000 2DE9F047 		push	{r4, r5, r6, r7, r8, r9, r10, lr}
 459              		.cfi_def_cfa_offset 32
 460              		.cfi_offset 4, -32
 461              		.cfi_offset 5, -28
 462              		.cfi_offset 6, -24
 463              		.cfi_offset 7, -20
 464              		.cfi_offset 8, -16
 465              		.cfi_offset 9, -12
 466              		.cfi_offset 10, -8
 467              		.cfi_offset 14, -4
 468 0004 2DED048B 		vpush.64	{d8, d9}
 469              		.cfi_def_cfa_offset 48
 470              		.cfi_offset 80, -48
 471              		.cfi_offset 81, -44
 472              		.cfi_offset 82, -40
 473              		.cfi_offset 83, -36
 474              		.loc 1 161 0
 475 0008 DFED497A 		vldr.32	s15, .L58+8
 476              		.loc 1 158 0
 477 000c DFF828A1 		ldr	r10, .L58+16
 478 0010 84B0     		sub	sp, sp, #16
 479              		.cfi_def_cfa_offset 64
 480              		.loc 1 161 0
 481 0012 B4EE671A 		vcmp.f32	s2, s15
 482              		.loc 1 158 0
 483 0016 DAF80030 		ldr	r3, [r10]
 484 001a 0393     		str	r3, [sp, #12]
 485              	.LVL37:
 486              		.loc 1 161 0
 487 001c F1EE10FA 		vmrs	APSR_nzcv, FPSCR
 488              		.loc 1 158 0
 489 0020 F0EE418A 		vmov.f32	s17, s2
 490              		.loc 1 161 0
 491 0024 70D0     		beq	.L56
 492              		.loc 1 168 0
 493 0026 DFED437A 		vldr.32	s15, .L58+12
 494 002a B3EE098A 		vmov.f32	s16, #2.5e+1
 495 002e 70EEA70A 		vadd.f32	s1, s1, s15
 496              	.LVL38:
 497 0032 30EE088A 		vadd.f32	s16, s0, s16
 498 0036 70EEC80A 		vsub.f32	s1, s1, s16
 499 003a C0EE817A 		vdiv.f32	s15, s1, s2
 500              	.L55:
 501 003e 17EE900A 		vmov	r0, s15
 502 0042 FFF7FEFF 		bl	__aeabi_f2d
 503              	.LVL39:
 504 0046 41EC100B 		vmov	d0, r0, r1
 505 004a FFF7FEFF 		bl	atan
 506              	.LVL40:
 507              		.loc 1 169 0
 508 004e 18EE100A 		vmov	r0, s16
 509              		.loc 1 168 0
 510 0052 B0EE409A 		vmov.f32	s18, s0
 511 0056 F0EE609A 		vmov.f32	s19, s1
 512              	.LVL41:
 513              		.loc 1 169 0
ARM GAS  /var/folders/j2/t8glr22d56s93xphj_30s8g80000gn/T//ccyXCyzA.s 			page 10


 514 005a FFF7FEFF 		bl	__aeabi_f2d
 515              	.LVL42:
 516 005e 8046     		mov	r8, r0
 517              		.loc 1 172 0
 518 0060 18EE900A 		vmov	r0, s17
 519              		.loc 1 169 0
 520 0064 8946     		mov	r9, r1
 521              	.LVL43:
 522              		.loc 1 172 0
 523 0066 FFF7FEFF 		bl	__aeabi_f2d
 524              	.LVL44:
 525 006a B0EE490A 		vmov.f32	s0, s18
 526 006e F0EE690A 		vmov.f32	s1, s19
 527 0072 0446     		mov	r4, r0
 528 0074 0D46     		mov	r5, r1
 529 0076 FFF7FEFF 		bl	cos
 530              	.LVL45:
 531 007a 57EC106B 		vmov	r6, r7, d0
 532              	.LVL46:
 533              		.loc 1 173 0
 534 007e B0EE490A 		vmov.f32	s0, s18
 535 0082 F0EE690A 		vmov.f32	s1, s19
 536 0086 FFF7FEFF 		bl	sin
 537              	.LVL47:
 538 008a 4246     		mov	r2, r8
 539 008c 4B46     		mov	r3, r9
 540 008e 3046     		mov	r0, r6
 541 0090 3946     		mov	r1, r7
 542 0092 8DED000B 		vstr.64	d0, [sp]
 543              	.LVL48:
 544 0096 FFF7FEFF 		bl	__aeabi_dmul
 545              	.LVL49:
 546 009a 9DED000B 		vldr.64	d0, [sp]
 547 009e 8046     		mov	r8, r0
 548              	.LVL50:
 549 00a0 53EC102B 		vmov	r2, r3, d0
 550 00a4 8946     		mov	r9, r1
 551 00a6 2046     		mov	r0, r4
 552 00a8 2946     		mov	r1, r5
 553 00aa FFF7FEFF 		bl	__aeabi_dmul
 554              	.LVL51:
 555 00ae 0246     		mov	r2, r0
 556 00b0 0B46     		mov	r3, r1
 557 00b2 4046     		mov	r0, r8
 558 00b4 4946     		mov	r1, r9
 559 00b6 FFF7FEFF 		bl	__aeabi_dadd
 560              	.LVL52:
 561              		.loc 1 172 0
 562 00ba 3246     		mov	r2, r6
 563              		.loc 1 173 0
 564 00bc 8046     		mov	r8, r0
 565 00be 8946     		mov	r9, r1
 566              		.loc 1 172 0
 567 00c0 3B46     		mov	r3, r7
 568 00c2 2046     		mov	r0, r4
 569 00c4 2946     		mov	r1, r5
 570 00c6 FFF7FEFF 		bl	__aeabi_dmul
ARM GAS  /var/folders/j2/t8glr22d56s93xphj_30s8g80000gn/T//ccyXCyzA.s 			page 11


 571              	.LVL53:
 572              		.loc 1 175 0
 573 00ca 0246     		mov	r2, r0
 574 00cc 0B46     		mov	r3, r1
 575 00ce 4046     		mov	r0, r8
 576 00d0 4946     		mov	r1, r9
 577 00d2 FFF7FEFF 		bl	__aeabi_ddiv
 578              	.LVL54:
 579 00d6 41EC100B 		vmov	d0, r0, r1
 580 00da FFF7FEFF 		bl	atan
 581              	.LVL55:
 582 00de 12A3     		adr	r3, .L58
 583 00e0 D3E90023 		ldrd	r2, [r3]
 584 00e4 51EC100B 		vmov	r0, r1, d0
 585 00e8 FFF7FEFF 		bl	__aeabi_dmul
 586              	.LVL56:
 587 00ec FFF7FEFF 		bl	__aeabi_d2f
 588              	.LVL57:
 589              		.loc 1 177 0
 590 00f0 039A     		ldr	r2, [sp, #12]
 591 00f2 DAF80030 		ldr	r3, [r10]
 592 00f6 9A42     		cmp	r2, r3
 593 00f8 00EE100A 		vmov	s0, r0
 594 00fc 0FD1     		bne	.L57
 595 00fe 04B0     		add	sp, sp, #16
 596              		.cfi_remember_state
 597              		.cfi_def_cfa_offset 48
 598              		@ sp needed
 599 0100 BDEC048B 		vldm	sp!, {d8-d9}
 600              		.cfi_restore 82
 601              		.cfi_restore 83
 602              		.cfi_restore 80
 603              		.cfi_restore 81
 604              		.cfi_def_cfa_offset 32
 605              	.LVL58:
 606 0104 BDE8F087 		pop	{r4, r5, r6, r7, r8, r9, r10, pc}
 607              	.LVL59:
 608              	.L56:
 609              		.cfi_restore_state
 610              		.loc 1 163 0
 611 0108 9FED0A8A 		vldr.32	s16, .L58+12
 612 010c 70EEA70A 		vadd.f32	s1, s1, s15
 613              	.LVL60:
 614 0110 30EE088A 		vadd.f32	s16, s0, s16
 615 0114 70EEC80A 		vsub.f32	s1, s1, s16
 616 0118 C0EEA77A 		vdiv.f32	s15, s1, s15
 617 011c 8FE7     		b	.L55
 618              	.LVL61:
 619              	.L57:
 620              		.loc 1 177 0
 621 011e FFF7FEFF 		bl	__stack_chk_fail
 622              	.LVL62:
 623              	.L59:
 624 0122 00BFAFF3 		.align	3
 624      0080
 625              	.L58:
 626 0128 00000000 		.word	0
ARM GAS  /var/folders/j2/t8glr22d56s93xphj_30s8g80000gn/T//ccyXCyzA.s 			page 12


 627 012c DCA54C40 		.word	1078765020
 628 0130 00004842 		.word	1112014848
 629 0134 00008C42 		.word	1116471296
 630 0138 00000000 		.word	__stack_chk_guard
 631              		.cfi_endproc
 632              	.LFE293:
 633              		.size	calcul_angle, .-calcul_angle
 634              		.section	.text.PiRegulator,"ax",%progbits
 635              		.align	1
 636              		.p2align 4,,15
 637              		.syntax unified
 638              		.thumb
 639              		.thumb_func
 640              		.fpu fpv4-sp-d16
 641              		.type	PiRegulator, %function
 642              	PiRegulator:
 643              	.LFB291:
 644              		.loc 1 87 0
 645              		.cfi_startproc
 646              		@ args = 0, pretend = 0, frame = 8
 647              		@ frame_needed = 0, uses_anonymous_args = 0
 648              	.LVL63:
 649 0000 70B5     		push	{r4, r5, r6, lr}
 650              		.cfi_def_cfa_offset 16
 651              		.cfi_offset 4, -16
 652              		.cfi_offset 5, -12
 653              		.cfi_offset 6, -8
 654              		.cfi_offset 14, -4
 655 0002 2DED088B 		vpush.64	{d8, d9, d10, d11}
 656              		.cfi_def_cfa_offset 48
 657              		.cfi_offset 80, -48
 658              		.cfi_offset 81, -44
 659              		.cfi_offset 82, -40
 660              		.cfi_offset 83, -36
 661              		.cfi_offset 84, -32
 662              		.cfi_offset 85, -28
 663              		.cfi_offset 86, -24
 664              		.cfi_offset 87, -20
 665              	.LBB66:
 666              	.LBB67:
 667              		.file 3 "../../lib/e-puck2_main-processor/ChibiOS//os/rt/include/chregistry.h"
 668              		.loc 3 135 0
 669 0006 4D4C     		ldr	r4, .L79
 670              	.LBE67:
 671              	.LBE66:
 672              		.loc 1 87 0
 673 0008 4D4B     		ldr	r3, .L79+4
 674              	.LBB70:
 675              	.LBB68:
 676              		.loc 3 135 0
 677 000a A269     		ldr	r2, [r4, #24]
 678 000c 4D49     		ldr	r1, .L79+8
 679              	.LBE68:
 680              	.LBE70:
 681              		.loc 1 87 0
 682 000e 1B68     		ldr	r3, [r3]
 683              	.LBB71:
ARM GAS  /var/folders/j2/t8glr22d56s93xphj_30s8g80000gn/T//ccyXCyzA.s 			page 13


 684              	.LBB72:
 685              	.LBB73:
 686              		.loc 1 146 0
 687 0010 DFED4D8A 		vldr.32	s17, .L79+12
 688              		.loc 1 153 0
 689 0014 DFED4D9A 		vldr.32	s19, .L79+16
 690              	.LBE73:
 691              	.LBE72:
 692              		.loc 1 117 0
 693 0018 9FED4DBA 		vldr.32	s22, .L79+20
 694              		.loc 1 112 0
 695 001c DFED4DAA 		vldr.32	s21, .L79+24
 696              		.loc 1 125 0
 697 0020 4D4E     		ldr	r6, .L79+28
 698              		.loc 1 126 0
 699 0022 9FED4EAA 		vldr.32	s20, .L79+32
 700              	.LBE71:
 701              	.LBB100:
 702              	.LBB69:
 703              		.loc 3 135 0
 704 0026 9161     		str	r1, [r2, #24]
 705              	.LBE69:
 706              	.LBE100:
 707              		.loc 1 87 0
 708 0028 82B0     		sub	sp, sp, #8
 709              		.cfi_def_cfa_offset 56
 710              		.loc 1 87 0
 711 002a 0193     		str	r3, [sp, #4]
 712              	.LVL64:
 713 002c 40E0     		b	.L69
 714              	.LVL65:
 715              	.L75:
 716              	.LBB101:
 717              	.LBB76:
 718              	.LBB74:
 719              		.loc 1 153 0
 720 002e B0EE699A 		vmov.f32	s18, s19
 721              	.LVL66:
 722              	.L62:
 723              	.LBE74:
 724              	.LBE76:
 725              		.loc 1 102 0
 726 0032 0120     		movs	r0, #1
 727 0034 FFF7FEFF 		bl	get_calibrated_prox
 728              	.LVL67:
 729 0038 07EE900A 		vmov	s15, r0	@ int
 730 003c B8EEE70A 		vcvt.f32.s32	s0, s15
 731              	.LVL68:
 732              	.LBB77:
 733              	.LBB78:
 734              		.loc 1 146 0
 735 0040 B4EEE80A 		vcmpe.f32	s0, s17
 736 0044 F1EE10FA 		vmrs	APSR_nzcv, FPSCR
 737 0048 72DC     		bgt	.L78
 738              		.loc 1 153 0
 739 004a B0EE698A 		vmov.f32	s16, s19
 740              	.LVL69:
ARM GAS  /var/folders/j2/t8glr22d56s93xphj_30s8g80000gn/T//ccyXCyzA.s 			page 14


 741              	.L64:
 742              	.LBE78:
 743              	.LBE77:
 744              		.loc 1 103 0
 745 004e 0320     		movs	r0, #3
 746 0050 FFF7FEFF 		bl	get_calibrated_prox
 747              	.LVL70:
 748 0054 07EE900A 		vmov	s15, r0	@ int
 749 0058 B8EEE70A 		vcvt.f32.s32	s0, s15
 750              	.LVL71:
 751              	.LBB80:
 752              	.LBB81:
 753              		.loc 1 146 0
 754 005c B4EEE80A 		vcmpe.f32	s0, s17
 755 0060 F1EE10FA 		vmrs	APSR_nzcv, FPSCR
 756 0064 4FDC     		bgt	.L66
 757              	.LVL72:
 758              	.L68:
 759              	.LBE81:
 760              	.LBE80:
 761              		.loc 1 112 0
 762 0066 F0EE480A 		vmov.f32	s1, s16
 763 006a B0EE490A 		vmov.f32	s0, s18
 764 006e B0EE6A1A 		vmov.f32	s2, s21
 765 0072 FFF7FEFF 		bl	calcul_angle
 766              	.LVL73:
 767 0076 B0EE408A 		vmov.f32	s16, s0
 768              	.LVL74:
 769              	.L67:
 770              		.loc 1 125 0
 771 007a 18EE100A 		vmov	r0, s16
 772 007e FFF7FEFF 		bl	__aeabi_f2d
 773              	.LVL75:
 774 0082 0246     		mov	r2, r0
 775 0084 0B46     		mov	r3, r1
 776 0086 3046     		mov	r0, r6
 777 0088 3549     		ldr	r1, .L79+36
 778 008a FFF7FEFF 		bl	chprintf.constprop.1
 779              	.LVL76:
 780              		.loc 1 126 0
 781 008e 78EE4A7A 		vsub.f32	s15, s16, s20
 782 0092 17EE900A 		vmov	r0, s15
 783 0096 FFF7FEFF 		bl	__aeabi_f2d
 784              	.LVL77:
 785 009a 0246     		mov	r2, r0
 786 009c 0B46     		mov	r3, r1
 787 009e 3046     		mov	r0, r6
 788 00a0 3049     		ldr	r1, .L79+40
 789 00a2 FFF7FEFF 		bl	chprintf.constprop.1
 790              	.LVL78:
 791              		.loc 1 138 0
 792 00a6 05F57A71 		add	r1, r5, #1000
 793 00aa 2846     		mov	r0, r5
 794 00ac FFF7FEFF 		bl	chThdSleepUntilWindowed
 795              	.LVL79:
 796              	.L69:
 797              	.LBB83:
ARM GAS  /var/folders/j2/t8glr22d56s93xphj_30s8g80000gn/T//ccyXCyzA.s 			page 15


 798              	.LBB84:
 799              	.LBB85:
 800              	.LBB86:
 801              	.LBB87:
 802              	.LBB88:
 803              	.LBB89:
 804              		.file 4 "../../lib/e-puck2_main-processor/ChibiOS//os/ext/CMSIS/include/core_cmFunc.h"
 805              		.loc 4 546 0
 806 00b0 2023     		movs	r3, #32
 807              		.syntax unified
 808              	@ 546 "../../lib/e-puck2_main-processor/ChibiOS//os/ext/CMSIS/include/core_cmFunc.h" 1
 809 00b2 83F31188 		MSR basepri, r3
 810              	@ 0 "" 2
 811              	.LVL80:
 812              		.thumb
 813              		.syntax unified
 814              	.LBE89:
 815              	.LBE88:
 816              	.LBE87:
 817              		.file 5 "../../lib/e-puck2_main-processor/ChibiOS//os/rt/include/chsys.h"
 818              		.loc 5 349 0
 819 00b6 FFF7FEFF 		bl	_stats_start_measure_crit_thd
 820              	.LVL81:
 821              		.loc 5 350 0
 822 00ba FFF7FEFF 		bl	_dbg_check_lock
 823              	.LVL82:
 824              	.LBE86:
 825              	.LBE85:
 826              	.LBB90:
 827              	.LBB91:
 828              		.file 6 "../../lib/e-puck2_main-processor/ChibiOS//os/rt/include/chvt.h"
 829              		.loc 6 231 0
 830 00be A56A     		ldr	r5, [r4, #40]
 831              	.LBE91:
 832              	.LBE90:
 833              	.LBB92:
 834              	.LBB93:
 835              		.loc 5 360 0
 836 00c0 FFF7FEFF 		bl	_dbg_check_unlock
 837              	.LVL83:
 838              		.loc 5 361 0
 839 00c4 FFF7FEFF 		bl	_stats_stop_measure_crit_thd
 840              	.LVL84:
 841              		.loc 5 367 0
 842 00c8 2368     		ldr	r3, [r4]
 843 00ca A342     		cmp	r3, r4
 844 00cc 07D0     		beq	.L61
 845 00ce A269     		ldr	r2, [r4, #24]
 846 00d0 9B68     		ldr	r3, [r3, #8]
 847 00d2 9268     		ldr	r2, [r2, #8]
 848 00d4 9A42     		cmp	r2, r3
 849 00d6 02D2     		bcs	.L61
 850 00d8 2348     		ldr	r0, .L79+44
 851 00da FFF7FEFF 		bl	chSysHalt
 852              	.LVL85:
 853              	.L61:
 854              	.LBB94:
ARM GAS  /var/folders/j2/t8glr22d56s93xphj_30s8g80000gn/T//ccyXCyzA.s 			page 16


 855              	.LBB95:
 856              	.LBB96:
 857              		.loc 4 546 0
 858 00de 0023     		movs	r3, #0
 859              		.syntax unified
 860              	@ 546 "../../lib/e-puck2_main-processor/ChibiOS//os/ext/CMSIS/include/core_cmFunc.h" 1
 861 00e0 83F31188 		MSR basepri, r3
 862              	@ 0 "" 2
 863              	.LVL86:
 864              		.thumb
 865              		.syntax unified
 866              	.LBE96:
 867              	.LBE95:
 868              	.LBE94:
 869              	.LBE93:
 870              	.LBE92:
 871              	.LBE84:
 872              	.LBE83:
 873              		.loc 1 101 0
 874 00e4 0220     		movs	r0, #2
 875 00e6 FFF7FEFF 		bl	get_calibrated_prox
 876              	.LVL87:
 877 00ea 07EE900A 		vmov	s15, r0	@ int
 878 00ee B8EEE70A 		vcvt.f32.s32	s0, s15
 879              	.LVL88:
 880              	.LBB97:
 881              	.LBB75:
 882              		.loc 1 146 0
 883 00f2 B4EEE80A 		vcmpe.f32	s0, s17
 884 00f6 F1EE10FA 		vmrs	APSR_nzcv, FPSCR
 885 00fa 98DD     		ble	.L75
 886 00fc FFF7FEFF 		bl	convertisseur_value_dist.part.0
 887              	.LVL89:
 888 0100 B0EE409A 		vmov.f32	s18, s0
 889 0104 95E7     		b	.L62
 890              	.LVL90:
 891              	.L66:
 892              	.LBE75:
 893              	.LBE97:
 894              	.LBB98:
 895              	.LBB82:
 896 0106 FFF7FEFF 		bl	convertisseur_value_dist.part.0
 897              	.LVL91:
 898              	.LBE82:
 899              	.LBE98:
 900              		.loc 1 109 0
 901 010a B5EE400A 		vcmp.f32	s0, #0
 902 010e F1EE10FA 		vmrs	APSR_nzcv, FPSCR
 903 0112 A8D0     		beq	.L68
 904              		.loc 1 109 0 is_stmt 0 discriminator 1
 905 0114 B5EE408A 		vcmp.f32	s16, #0
 906 0118 F1EE10FA 		vmrs	APSR_nzcv, FPSCR
 907 011c A3D1     		bne	.L68
 908              		.loc 1 117 0 is_stmt 1
 909 011e F0EE490A 		vmov.f32	s1, s18
 910 0122 B0EE4B1A 		vmov.f32	s2, s22
 911 0126 FFF7FEFF 		bl	calcul_angle
ARM GAS  /var/folders/j2/t8glr22d56s93xphj_30s8g80000gn/T//ccyXCyzA.s 			page 17


 912              	.LVL92:
 913 012a B0EE408A 		vmov.f32	s16, s0
 914              	.LVL93:
 915 012e A4E7     		b	.L67
 916              	.LVL94:
 917              	.L78:
 918              	.LBB99:
 919              	.LBB79:
 920 0130 FFF7FEFF 		bl	convertisseur_value_dist.part.0
 921              	.LVL95:
 922 0134 B0EE408A 		vmov.f32	s16, s0
 923 0138 89E7     		b	.L64
 924              	.L80:
 925 013a 00BF     		.align	2
 926              	.L79:
 927 013c 00000000 		.word	ch
 928 0140 00000000 		.word	__stack_chk_guard
 929 0144 00000000 		.word	.LANCHOR2
 930 0148 0000F842 		.word	1123549184
 931 014c 00000000 		.word	0
 932 0150 00007042 		.word	1114636288
 933 0154 00004842 		.word	1112014848
 934 0158 00000000 		.word	SDU1
 935 015c 33332942 		.word	1109996339
 936 0160 00000000 		.word	.LC0
 937 0164 0C000000 		.word	.LC1
 938 0168 00000000 		.word	.LANCHOR3
 939              	.LBE79:
 940              	.LBE99:
 941              	.LBE101:
 942              		.cfi_endproc
 943              	.LFE291:
 944              		.size	PiRegulator, .-PiRegulator
 945              		.section	.text.pi_regulator_start,"ax",%progbits
 946              		.align	1
 947              		.p2align 4,,15
 948              		.global	pi_regulator_start
 949              		.syntax unified
 950              		.thumb
 951              		.thumb_func
 952              		.fpu fpv4-sp-d16
 953              		.type	pi_regulator_start, %function
 954              	pi_regulator_start:
 955              	.LFB294:
 956              		.loc 1 179 0
 957              		.cfi_startproc
 958              		@ args = 0, pretend = 0, frame = 8
 959              		@ frame_needed = 0, uses_anonymous_args = 0
 960 0000 10B5     		push	{r4, lr}
 961              		.cfi_def_cfa_offset 8
 962              		.cfi_offset 4, -8
 963              		.cfi_offset 14, -4
 964 0002 0A4C     		ldr	r4, .L85
 965              		.loc 1 180 0
 966 0004 0A4B     		ldr	r3, .L85+4
 967              		.loc 1 179 0
 968 0006 2268     		ldr	r2, [r4]
ARM GAS  /var/folders/j2/t8glr22d56s93xphj_30s8g80000gn/T//ccyXCyzA.s 			page 18


 969              		.loc 1 180 0
 970 0008 0A48     		ldr	r0, .L85+8
 971              		.loc 1 179 0
 972 000a 84B0     		sub	sp, sp, #16
 973              		.cfi_def_cfa_offset 24
 974              		.loc 1 180 0
 975 000c 4FF41E71 		mov	r1, #632
 976              		.loc 1 179 0
 977 0010 0392     		str	r2, [sp, #12]
 978              		.loc 1 180 0
 979 0012 0022     		movs	r2, #0
 980 0014 0092     		str	r2, [sp]
 981 0016 4022     		movs	r2, #64
 982 0018 FFF7FEFF 		bl	chThdCreateStatic
 983              	.LVL96:
 984              		.loc 1 181 0
 985 001c 039A     		ldr	r2, [sp, #12]
 986 001e 2368     		ldr	r3, [r4]
 987 0020 9A42     		cmp	r2, r3
 988 0022 01D1     		bne	.L84
 989 0024 04B0     		add	sp, sp, #16
 990              		.cfi_remember_state
 991              		.cfi_def_cfa_offset 8
 992              		@ sp needed
 993 0026 10BD     		pop	{r4, pc}
 994              	.L84:
 995              		.cfi_restore_state
 996 0028 FFF7FEFF 		bl	__stack_chk_fail
 997              	.LVL97:
 998              	.L86:
 999              		.align	2
 1000              	.L85:
 1001 002c 00000000 		.word	__stack_chk_guard
 1002 0030 00000000 		.word	PiRegulator
 1003 0034 00000000 		.word	.LANCHOR4
 1004              		.cfi_endproc
 1005              	.LFE294:
 1006              		.size	pi_regulator_start, .-pi_regulator_start
 1007              		.section	.bss.error_prec.14122,"aw",%nobits
 1008              		.align	2
 1009              		.set	.LANCHOR0,. + 0
 1010              		.type	error_prec.14122, %object
 1011              		.size	error_prec.14122, 4
 1012              	error_prec.14122:
 1013 0000 00000000 		.space	4
 1014              		.section	.bss.sum_error.14121,"aw",%nobits
 1015              		.align	2
 1016              		.set	.LANCHOR1,. + 0
 1017              		.type	sum_error.14121, %object
 1018              		.size	sum_error.14121, 4
 1019              	sum_error.14121:
 1020 0000 00000000 		.space	4
 1021              		.section	.bss.waPiRegulator,"aw",%nobits
 1022              		.align	3
 1023              		.set	.LANCHOR4,. + 0
 1024              		.type	waPiRegulator, %object
 1025              		.size	waPiRegulator, 632
ARM GAS  /var/folders/j2/t8glr22d56s93xphj_30s8g80000gn/T//ccyXCyzA.s 			page 19


 1026              	waPiRegulator:
 1027 0000 00000000 		.space	632
 1027      00000000 
 1027      00000000 
 1027      00000000 
 1027      00000000 
 1028              		.section	.rodata.PiRegulator.str1.4,"aMS",%progbits,1
 1029              		.align	2
 1030              	.LC0:
 1031 0000 416E676C 		.ascii	"Angle = %f\012\000"
 1031      65203D20 
 1031      25660A00 
 1032              	.LC1:
 1033 000c 44696666 		.ascii	"Diff angle = %f\012\000"
 1033      20616E67 
 1033      6C65203D 
 1033      2025660A 
 1033      00
 1034              		.section	.rodata.__FUNCTION__.14128,"a",%progbits
 1035              		.align	2
 1036              		.set	.LANCHOR2,. + 0
 1037              		.type	__FUNCTION__.14128, %object
 1038              		.size	__FUNCTION__.14128, 12
 1039              	__FUNCTION__.14128:
 1040 0000 50695265 		.ascii	"PiRegulator\000"
 1040      67756C61 
 1040      746F7200 
 1041              		.section	.rodata.__func__.7153,"a",%progbits
 1042              		.align	2
 1043              		.set	.LANCHOR3,. + 0
 1044              		.type	__func__.7153, %object
 1045              		.size	__func__.7153, 12
 1046              	__func__.7153:
 1047 0000 63685379 		.ascii	"chSysUnlock\000"
 1047      73556E6C 
 1047      6F636B00 
 1048              		.text
 1049              	.Letext0:
 1050              		.file 7 "/Applications/Eclipse_e-puck2.app/Contents/Eclipse_e-puck2/Tools/gcc-arm-none-eabi-7-2017
 1051              		.file 8 "/Applications/Eclipse_e-puck2.app/Contents/Eclipse_e-puck2/Tools/gcc-arm-none-eabi-7-2017
 1052              		.file 9 "/Applications/Eclipse_e-puck2.app/Contents/Eclipse_e-puck2/Tools/gcc-arm-none-eabi-7-2017
 1053              		.file 10 "../../lib/e-puck2_main-processor/ChibiOS//os/rt/ports/ARMCMx/compilers/GCC/chtypes.h"
 1054              		.file 11 "../../lib/e-puck2_main-processor/ChibiOS//os/rt/include/chsystypes.h"
 1055              		.file 12 "../../lib/e-puck2_main-processor/ChibiOS//os/rt/include/chschd.h"
 1056              		.file 13 "../../lib/e-puck2_main-processor/ChibiOS//os/ext/CMSIS/include/core_cm4.h"
 1057              		.file 14 "../../lib/e-puck2_main-processor/ChibiOS//os/ext/CMSIS/ST/system_stm32f4xx.h"
 1058              		.file 15 "../../lib/e-puck2_main-processor/ChibiOS//os/ext/CMSIS/ST/stm32f407xx.h"
 1059              		.file 16 "../../lib/e-puck2_main-processor/ChibiOS//os/rt/ports/ARMCMx/chcore.h"
 1060              		.file 17 "../../lib/e-puck2_main-processor/ChibiOS//os/rt/ports/ARMCMx/chcore_v7m.h"
 1061              		.file 18 "../../lib/e-puck2_main-processor/ChibiOS//os/rt/include/chdebug.h"
 1062              		.file 19 "../../lib/e-puck2_main-processor/ChibiOS//os/rt/include/chtm.h"
 1063              		.file 20 "../../lib/e-puck2_main-processor/ChibiOS//os/rt/include/chstats.h"
 1064              		.file 21 "../../lib/e-puck2_main-processor/ChibiOS//os/rt/include/chsem.h"
 1065              		.file 22 "../../lib/e-puck2_main-processor/ChibiOS//os/rt/include/chmtx.h"
 1066              		.file 23 "../../lib/e-puck2_main-processor/ChibiOS//os/rt/include/chevents.h"
 1067              		.file 24 "../../lib/e-puck2_main-processor/ChibiOS//os/rt/include/chqueues.h"
 1068              		.file 25 "../../lib/e-puck2_main-processor/ChibiOS//os/rt/include/chstreams.h"
ARM GAS  /var/folders/j2/t8glr22d56s93xphj_30s8g80000gn/T//ccyXCyzA.s 			page 20


 1069              		.file 26 "../../lib/e-puck2_main-processor/ChibiOS//os/hal/ports/STM32/STM32F4xx/stm32_dma.h"
 1070              		.file 27 "../../lib/e-puck2_main-processor/ChibiOS//os/hal/include/hal_ioblock.h"
 1071              		.file 28 "../../lib/e-puck2_main-processor/ChibiOS//os/hal/ports/STM32/LLD/GPIOv2/pal_lld.h"
 1072              		.file 29 "../../lib/e-puck2_main-processor/ChibiOS//os/hal/include/adc.h"
 1073              		.file 30 "../../lib/e-puck2_main-processor/ChibiOS//os/hal/ports/STM32/STM32F4xx/adc_lld.h"
 1074              		.file 31 "../../lib/e-puck2_main-processor/ChibiOS//os/hal/include/can.h"
 1075              		.file 32 "../../lib/e-puck2_main-processor/ChibiOS//os/hal/ports/STM32/LLD/can_lld.h"
 1076              		.file 33 "../../lib/e-puck2_main-processor/ChibiOS//os/hal/include/dac.h"
 1077              		.file 34 "../../lib/e-puck2_main-processor/ChibiOS//os/hal/ports/STM32/LLD/DACv1/dac_lld.h"
 1078              		.file 35 "../../lib/e-puck2_main-processor/ChibiOS//os/hal/include/ext.h"
 1079              		.file 36 "../../lib/e-puck2_main-processor/ChibiOS//os/hal/ports/STM32/LLD/ext_lld.h"
 1080              		.file 37 "../../lib/e-puck2_main-processor/ChibiOS//os/hal/include/gpt.h"
 1081              		.file 38 "../../lib/e-puck2_main-processor/ChibiOS//os/hal/ports/STM32/LLD/TIMv1/gpt_lld.h"
 1082              		.file 39 "../../lib/e-puck2_main-processor/ChibiOS//os/hal/ports/STM32/LLD/TIMv1/stm32_tim.h"
 1083              		.file 40 "../../lib/e-puck2_main-processor/ChibiOS//os/hal/include/i2c.h"
 1084              		.file 41 "../../lib/e-puck2_main-processor/ChibiOS//os/hal/ports/STM32/LLD/I2Cv1/i2c_lld.h"
 1085              		.file 42 "../../lib/e-puck2_main-processor/ChibiOS//os/hal/include/i2s.h"
 1086              		.file 43 "../../lib/e-puck2_main-processor/ChibiOS//os/hal/ports/STM32/LLD/SPIv1/i2s_lld.h"
 1087              		.file 44 "../../lib/e-puck2_main-processor/ChibiOS//os/hal/include/pwm.h"
 1088              		.file 45 "../../lib/e-puck2_main-processor/ChibiOS//os/hal/ports/STM32/LLD/TIMv1/pwm_lld.h"
 1089              		.file 46 "../../lib/e-puck2_main-processor/ChibiOS//os/hal/include/serial.h"
 1090              		.file 47 "../../lib/e-puck2_main-processor/ChibiOS//os/hal/ports/STM32/LLD/USARTv1/serial_lld.h"
 1091              		.file 48 "../../lib/e-puck2_main-processor/ChibiOS//os/hal/include/sdc.h"
 1092              		.file 49 "../../lib/e-puck2_main-processor/ChibiOS//os/hal/ports/STM32/LLD/sdc_lld.h"
 1093              		.file 50 "../../lib/e-puck2_main-processor/ChibiOS//os/hal/include/spi.h"
 1094              		.file 51 "../../lib/e-puck2_main-processor/ChibiOS//os/hal/ports/STM32/LLD/SPIv1/spi_lld.h"
 1095              		.file 52 "../../lib/e-puck2_main-processor/ChibiOS//os/hal/include/usb.h"
 1096              		.file 53 "../../lib/e-puck2_main-processor/ChibiOS//os/hal/ports/STM32/LLD/OTGv1/usb_lld.h"
 1097              		.file 54 "../../lib/e-puck2_main-processor/ChibiOS//os/hal/ports/STM32/LLD/OTGv1/stm32_otg.h"
 1098              		.file 55 "../../lib/e-puck2_main-processor/ChibiOS//os/hal/include/serial_usb.h"
 1099              		.file 56 "/Applications/Eclipse_e-puck2.app/Contents/Eclipse_e-puck2/Tools/gcc-arm-none-eabi-7-201
 1100              		.file 57 "/Applications/Eclipse_e-puck2.app/Contents/Eclipse_e-puck2/Tools/gcc-arm-none-eabi-7-201
 1101              		.file 58 "/Applications/Eclipse_e-puck2.app/Contents/Eclipse_e-puck2/Tools/gcc-arm-none-eabi-7-201
 1102              		.file 59 "/Applications/Eclipse_e-puck2.app/Contents/Eclipse_e-puck2/Tools/gcc-arm-none-eabi-7-201
 1103              		.file 60 "../../lib/e-puck2_main-processor/src/usbcfg.h"
 1104              		.file 61 "/Applications/Eclipse_e-puck2.app/Contents/Eclipse_e-puck2/Tools/gcc-arm-none-eabi-7-201
 1105              		.file 62 "<built-in>"
 1106              		.file 63 "../../lib/e-puck2_main-processor/ChibiOS_ext/os/hal/include/../ports/STM32/STM32F4xx/dcm
 1107              		.file 64 "/Applications/Eclipse_e-puck2.app/Contents/Eclipse_e-puck2/Tools/gcc-arm-none-eabi-7-201
 1108              		.file 65 "../../lib/e-puck2_main-processor/src/msgbus/messagebus.h"
 1109              		.file 66 "/Applications/Eclipse_e-puck2.app/Contents/Eclipse_e-puck2/Tools/gcc-arm-none-eabi-7-201
 1110              		.file 67 "../../lib/e-puck2_main-processor/src/parameter/parameter.h"
 1111              		.file 68 "./main.h"
 1112              		.file 69 "../../lib/e-puck2_main-processor/ChibiOS//os/rt/include/chthreads.h"
 1113              		.file 70 "../../lib/e-puck2_main-processor/src/sensors/proximity.h"